08013de8 t .LC0
080142f8 t .LC0
08014700 t .LC0
080146e0 t .LC0
080144b0 t .LC0
08014618 t .LC0
08013a98 t .LC0
080142e0 t .LC0
08013b90 t .LC0
08014380 t .LC0
08013aa4 t .LC1
08013e04 t .LC1
080142e8 t .LC1
08014628 t .LC1
080144c4 t .LC1
08014714 t .LC1
080143a0 t .LC1
08013bc8 t .LC1
08014558 t .LC10
08014564 t .LC11
08014588 t .LC12
080145ac t .LC13
080145c4 t .LC14
080145dc t .LC15
080145ec t .LC16
08014600 t .LC17
080143cc t .LC2
08013ab0 t .LC2
08013e20 t .LC2
08013c18 t .LC2
080144d8 t .LC2
08013e2c t .LC3
08013c48 t .LC3
080143f4 t .LC3
080144f0 t .LC3
08013abc t .LC3
08014434 t .LC4
08013acc t .LC4
0801450c t .LC4
08013e38 t .LC4
08013c84 t .LC4
08014474 t .LC5
08013ae0 t .LC5
08013c8c t .LC5
08014518 t .LC5
08013e50 t .LC5
08013af4 t .LC6
08014524 t .LC6
08013b18 t .LC7
08014540 t .LC7
08013b40 t .LC8
08014544 t .LC8
0801454c t .LC9
0800bc5c T ADC1_2_IRQHandler
0800c5fc T ADC3_IRQHandler
200003c0 d ADCPrescTable
200003b0 d APBAHBPrescTable
08000000 T ARM_Vectors
00000000 a BUILD_RTM
00000000 a BUILD_RTM
00000000 a BUILD_RTM
00000000 a BUILD_RTM
000000aa a BackDoorK0
00000055 a BackDoorK1
00000011 a BackDoorK2
00000088 a BackDoorK3
000000ff a BackDoorK4
000000ff a BackDoorK5
000000ff a BackDoorK6
000000ff a BackDoorK7
08008174 T BootEntry
f1e0f85f a BootRAM
08014aa8 T Boot_Vectors
0800ccec T BootstrapCode
0800bd64 T CAN1_RX1_IRQHandler
0800bdbc T CAN1_SCE_IRQHandler
00000001 a COMPILE_THUMB2
00000001 a COMPILE_THUMB2
00000001 a COMPILE_THUMB2
00000001 a COMPILE_THUMB2
2000037c D COM_RX_PORT
20000374 D COM_TX_PORT
2000036c D COM_USART
08007dcc T Crypto_AbortRSAOperation
08007d8c T Crypto_StartRSAOperationWithKey
08007db0 T Crypto_StepRSAOperation
0800b9f4 T DMA1_Channel1_IRQHandler
0800ba4c T DMA1_Channel2_IRQHandler
0800baa4 T DMA1_Channel3_IRQHandler
0800bafc T DMA1_Channel4_IRQHandler
0800bb54 T DMA1_Channel5_IRQHandler
0800bbac T DMA1_Channel6_IRQHandler
0800bc04 T DMA1_Channel7_IRQHandler
0800c914 T DMA2_Channel1_IRQHandler
0800c96c T DMA2_Channel2_IRQHandler
0800c9c4 T DMA2_Channel3_IRQHandler
0800ca1c T DMA2_Channel4_5_IRQHandler
0800b6a8 T Default_Handler
0800ca74 T EXTI0_IRQHandler
0800c394 T EXTI15_10_IRQHandler
0800b894 T EXTI1_IRQHandler
0800b8ec T EXTI2_IRQHandler
0800b944 T EXTI3_IRQHandler
0800b99c T EXTI4_IRQHandler
0800be14 T EXTI9_5_IRQHandler
20000328 D EXTILines
080001f8 T EntryPoint
000000ff a FDPROT
000000ff a FEPROT
0800b7cc T FLASH_IRQHandler
0800cd44 T FLASH_PrefetchBufferCmd
0800cd00 T FLASH_SetLatency
0800cd88 T FLASH_Unlock
000000ff a FOPT
000000ff a FPROT0
000000ff a FPROT1
000000ff a FPROT2
000000ff a FPROT3
000000fe a FSEC
0800c654 T FSMC_IRQHandler
0800cf50 T FSMC_NORSRAMCmd
0800cddc T FSMC_NORSRAMInit
08009638 T Fault_Handler_Display
08006dc4 T GPIO_Init
20002394 B GPIO_Instances
2000030c D GPIO_PORT_ARRAY
08007058 T GPIO_PinRemapConfig
08006fb0 T GPIO_ReadInputDataBit
08006fec T GPIO_ReadOutputDataBit
20002554 B GPIO_Reserve
08006f84 T GPIO_StructInit
08007028 T GPIO_WriteBit
200030a8 B HALTimerHandlerFPN
080060a0 T HAL_Time_CurrentTicks
080096a8 T HARD_Breakpoint
080096b8 T HARD_Breakpoint_Handler
08014368 T HalName
20000388 D HalSystemConfig
20002dd8 B Hal_Usart_State
0800b5b0 T HardFault_Handler
0800c0d4 T I2C1_ER_IRQHandler
0800c07c T I2C1_EV_IRQHandler
0800c184 T I2C2_ER_IRQHandler
0800c12c T I2C2_EV_IRQHandler
00014a94 A Image$$ER_FLASH$$Length
20000000 N Image$$ER_RAM_RO$$Base
00000000 A Image$$ER_RAM_RO$$Length
20000000 D Image$$ER_RAM_RW$$Base
000030f0 A Image$$ER_RAM_RW$$Length
20000cd0 B Image$$ER_RAM_RW$$ZI$$Base
00002420 A Image$$ER_RAM_RW$$ZI$$Length
2000c000 a InitStackTop
2000c000 a Initial_spTop
08007d74 T LED_ORANGE_OFF
20002578 B LOAD_IMAGE_CalcCRC
20002574 B LOAD_IMAGE_Length
20002570 B LOAD_IMAGE_Start
08000000 T Load$$ER_FLASH$$Base
08014c80 A Load$$ER_RAM_RO$$Base
08014c80 A Load$$ER_RAM_RW$$Base
0800b1dc T NOR_Init
0800d72c T NVIC_PriorityGroupConfig
00000001 a PLATFORM_ARM_EmoteDotNow
00000001 a PLATFORM_ARM_EmoteDotNow
00000001 a PLATFORM_ARM_EmoteDotNow
00000001 a PLATFORM_ARM_EmoteDotNow
00000001 a PLATFORM_ARM_STM32F10x
00000001 a PLATFORM_ARM_STM32F10x
00000001 a PLATFORM_ARM_STM32F10x
00000001 a PLATFORM_ARM_STM32F10x
0800b6b8 T PVD_IRQHandler
08000328 T PrepareImageRegions
08014a98 T Prot_Bytes
08007438 T RCC_ADCCLKConfig
08007644 T RCC_AHBPeriphClockCmd
080076f4 T RCC_APB1PeriphClockCmd
080077a4 T RCC_APB1PeriphResetCmd
0800769c T RCC_APB2PeriphClockCmd
0800774c T RCC_APB2PeriphResetCmd
0800717c T RCC_DeInit
0800747c T RCC_GetClocksFreq
080077fc T RCC_GetFlagStatus
0800734c T RCC_GetSYSCLKSource
08007368 T RCC_HCLKConfig
08007218 T RCC_HSEConfig
0800b830 T RCC_IRQHandler
080073ac T RCC_PCLK1Config
080073f0 T RCC_PCLK2Config
080072e8 T RCC_PLLCmd
0800729c T RCC_PLLConfig
08007308 T RCC_SYSCLKConfig
0800c3ec T RTCAlarm_IRQHandler
0800b774 T RTC_IRQHandler
200029d8 B RxBuffer_Com
0800c6ac T SDIO_IRQHandler
0800c1dc T SPI1_IRQHandler
0800c234 T SPI2_IRQHandler
0800c75c T SPI3_IRQHandler
20002ec0 B SPI_InitStructure
20002ed8 B SPI_Initialized
20002ed4 B SPI_mod
200003f4 D STM32F10x_BlockDeviceInfo_ExternalFlash_NOR
200003c8 D STM32F10x_BlockDeviceInfo_InternalFlash
20002eb0 B STM32F10x_BlockStorageDevice_ExternalFlash_NOR
20002ea0 B STM32F10x_BlockStorageDevice_InternalFlash
2000045c D STM32F10x_IBlockStorageDevice_ExternalFlash_NOR
20000420 D STM32F10x_IBlockStorageDevice_InternalFlash
20000410 D STM32F10x_blConfig_ExternalFlash_NOR
200003e4 D STM32F10x_blConfig_InternalFlash
08014a94 R StackTop
20001fd8 B SystemEvents
080083dc T SystemState_ClearNoLock
08008428 T SystemState_QueryNoLock
08008390 T SystemState_SetNoLock
200025c4 B SystemStates
0800b71c T TAMPER_IRQHandler
00000001 a TARGETLOCATION_FLASH
00000001 a TARGETLOCATION_FLASH
00000001 a TARGETLOCATION_FLASH
00000001 a TARGETLOCATION_FLASH
0800be6c T TIM1_BRK_IRQHandler
0800bf74 T TIM1_CC_IRQHandler
0800bf1c T TIM1_TRG_COM_IRQHandler
0800bec4 T TIM1_UP_IRQHandler
0800cacc T TIM2_IRQHandler
0800bfcc T TIM3_IRQHandler
0800c024 T TIM4_IRQHandler
0800c704 T TIM5_IRQHandler
0800c864 T TIM6_IRQHandler
0800c8bc T TIM7_IRQHandler
0800c49c T TIM8_BRK_IRQHandler
0800c5a4 T TIM8_CC_IRQHandler
0800c54c T TIM8_TRG_COM_IRQHandler
0800c4f4 T TIM8_UP_IRQHandler
0800d660 T TIM_ClearFlag
0800d6e8 T TIM_ClearITPendingBit
0800d4b8 T TIM_Cmd
0800cfa8 T TIM_DeInit
0800d54c T TIM_GenerateEvent
0800d604 T TIM_GetCounter
0800d620 T TIM_GetFlagStatus
0800d684 T TIM_GetITStatus
0800d500 T TIM_ITConfig
0800d378 T TIM_OC1Init
0800d568 T TIM_OC1PreloadConfig
0800d5a4 T TIM_SelectOnePulseMode
0800d5e8 T TIM_SetCompare1
0800d258 T TIM_TimeBaseInit
200025d8 B TxBuffer_Com
0800c7b4 T UART4_IRQHandler
0800c80c T UART5_IRQHandler
08006624 T USART1_Handler
0800c28c T USART1_IRQHandler
080067c4 T USART2_Handler
0800c2e4 T USART2_IRQHandler
0800c33c T USART3_IRQHandler
08007b2c T USART_Cmd
0800788c T USART_DeInit
08007c68 T USART_GetFlagStatus
08007ca8 T USART_GetITStatus
08007b78 T USART_ITConfig
08007964 T USART_Init
08007c44 T USART_ReceiveData
08007c20 T USART_SendData
0800c444 T USBWakeUp_IRQHandler
0800bcb4 T USB_HP_CAN1_TX_IRQHandler
0800bd0c T USB_LP_CAN1_RX0_IRQHandler
08000788 T VectorRelocate
08010d28 T _Balloc
080109f0 T _Bfree
08012eac T _Unwind_Backtrace
080123a4 T _Unwind_Complete
080123a8 T _Unwind_DeleteException
08012e88 T _Unwind_ForcedUnwind
080123a0 T _Unwind_GetCFA
08012f08 T _Unwind_GetDataRelBase
080122cc t _Unwind_GetGR
08012f10 t _Unwind_GetGR
08012f34 T _Unwind_GetLanguageSpecificData
08012f48 T _Unwind_GetRegionStart
08012f00 T _Unwind_GetTextRelBase
08012e1c T _Unwind_RaiseException
08012e40 T _Unwind_Resume
08012e64 T _Unwind_Resume_or_Rethrow
08012314 t _Unwind_SetGR
0801229c T _Unwind_VRS_Get
08012a98 T _Unwind_VRS_Pop
080122e4 T _Unwind_VRS_Set
08012290 t _Unwind_decode_target2
08005ab4 T _Z10Events_Setj
0800a3c4 T _Z10RCC_Configv
080084e4 T _Z10USART_ReadiPcj
08007e5c T _Z10hal_printfPKcz
08005d40 T _Z11GPIO_GetPinj
0800a3ec T _Z11NVIC_Configv
08008508 T _Z11USART_Flushi
080084c0 T _Z11USART_WriteiPKcj
08007eb4 T _Z11hal_fprintfiPKcz
08007e88 T _Z11hal_vprintfPKcSt9__va_list
08005b1c T _Z12Events_Clearj
08005d64 T _Z12GPIO_GetPortj
08007e0c T _Z12HAL_AssertExv
08005d18 T _Z12HeapLocationRPhRj
0800cbb8 T _Z12LowLevelInitv
08006d40 T _Z12SOCKETS_ReadiPcj
0800807c T _Z12hal_strlen_sPKc
08007ee4 T _Z12hal_vfprintfiPKcSt9__va_list
08009d04 T _Z13FS_AddVolumesv
08009d10 T _Z13FS_Initializev
08006d5c T _Z13SOCKETS_Flushi
08006d24 T _Z13SOCKETS_WriteiPKcj
0800952c T _Z13USB_ConfigureiPK25USB_DYNAMIC_CONFIGURATION
08008018 T _Z13hal_strncpy_sPcjPKcj
08007ff0 T _Z13hal_vsnprintfPcjPKcSt9__va_list
08007e18 T _Z14CPU_Initializev
080080fc T _Z14HAL_Initializev
08009d48 T _Z14I2C_Initializev
08009d58 T _Z14Ink_Initializev
08005cd8 T _Z14LCD_Initializev
08009514 T _Z14USB_Initializei
08009560 T _Z14USB_OpenStreamiii
08005f90 T _Z15CPU_TicksToTimey
08005d80 T _Z15GPIO_GetPortPtrj
08003f40 T _Z15LZ77_DecompressPhiS_i
080038f8 T _Z15LZ77_DecompressPhiS_iPFjjjPKhEPFjjjS_E
0800d70c T _Z15Time_Initializev
0800957c T _Z15USB_CloseStreami
08005ce8 T _Z16LCD_Uninitializev
0800b1a8 T _Z16Piezo_Initializev
08008474 T _Z16USART_Initializeiiiiii
08009548 T _Z16USB_Uninitializei
08007de8 T _Z17CPU_DisableCachesv
0800587c T _Z17DebuggerPort_ReadiPcj
08005a8c T _Z17Events_Initializev
08005b64 T _Z17Events_MaskedReadj
08009cf4 T _Z18Battery_Initializev
080055d0 T _Z18Buttons_Initializev
0800a398 T _Z18CPU_SPI_Initializev
08005f7c T _Z18CPU_TicksPerSecondv
08009ce4 T _Z18Charger_Initializev
0800b1b4 T _Z18CustomHeapLocationRPhRj
08005900 T _Z18DebuggerPort_Flushi
0800575c T _Z18DebuggerPort_WriteiPKcj
08009d38 T _Z18Gesture_Initializev
08006ce4 T _Z18Network_Initializev
08006cf4 T _Z18SOCKETS_Initializei
0800388c T _Z18SUPPORT_ComputeCRCPKvij
080068d8 T _Z18SimpleHeap_ReleasePv
080084a4 T _Z18USART_Uninitializei
08005e30 T _Z19CPU_GPIO_Attributesj
08005da8 T _Z19CPU_GPIO_Initializev
08006d74 T _Z19CPU_INTC_Initializev
         U _Z19CPU_USB_ProtectPinsij
08006090 T _Z19HAL_Time_Initializev
080060d8 T _Z19HAL_Time_SetComparey
0800b198 T _Z19PalEvent_Initializev
08006a4c T _Z19SimpleHeap_Allocatej
08009cd4 T _Z20BackLight_Initializev
08005eb0 T _Z20CPU_GPIO_GetPinStatej
08005f28 T _Z20CPU_GPIO_SetPinStatejj
080062b8 T _Z20CPU_USART_Initializeiiiiii
080003a4 W _Z20Events_WaitForEventsjj
08005b88 T _Z20Events_WaitForEventsjjj
080080bc W _Z20HAL_Init_Custom_Heapv
080060b4 T _Z20HAL_Time_TicksToTimey
08006d0c T _Z20SOCKETS_Uninitializei
080035b8 T _Z21ApplicationEntryPointv
0800687c T _Z21SimpleHeap_InitializePvj
08006398 T _Z22CPU_USART_Uninitializei
08005d04 T _Z22LCD_WriteFormattedCharh
0800d71c T _Z22TimeService_Initializev
080095e4 T _Z22Watchdog_GetSetEnabledjj
08009600 T _Z22Watchdog_GetSetTimeoutij
08009c8c T _Z23BlockStorage_AddDevicesv
0800606c T _Z23CPU_MicrosecondsToTicksj
08005fe8 T _Z23CPU_MillisecondsToTicksj
080063d8 T _Z23CPU_USART_TxBufferEmptyi
080055fc T _Z23DebuggerPort_Initializei
08008524 T _Z23USART_AddCharToRxBufferic
08000488 T _Z23WaitForTinyBooterUploadRi
0800961c T _Z23Watchdog_GetSetBehavior17Watchdog_Behaviorj
08005e48 T _Z24CPU_GPIO_EnableOutputPinjj
08007df4 T _Z24CPU_GetUncachableAddressj
08000508 T _Z24TinyBooter_OnStateChange16_TinyBooterStatePvPS0_
080056e0 T _Z25DebuggerPort_Uninitializei
08000740 T _Z25TinyBooter_GetReleaseInfoR13MfReleaseInfo
080055e0 T _Z26Buttons_GetNextStateChangeRjS_
08006d80 T _Z26CPU_INTC_ActivateInterruptjPFvPvES_
080006a4 T _Z26CheckFlashSectorPermissionP18BlockStorageDevicej
0800596c T _Z27CPU_InitializeCommunicationv
080060f4 T _Z27HAL_Time_Sleep_MicroSecondsj
08000440 T _Z27Tinybooter_ProgramWordCheckv
08000454 T _Z28Tinybooter_ImageIsCompressedv
08008548 T _Z28USART_RemoveCharFromTxBufferiRc
08006da8 T _Z29CPU_INTC_InterruptEnableStatej
08006488 T _Z29CPU_USART_WriteCharToTxBufferih
08006430 T _Z30CPU_USART_TxShiftRegisterEmptyi
08000464 T _Z31Tinybooter_CompressedImageStartRK22CompressedImage_Header
0800660c T _Z33CPU_USART_TxHandshakeEnabledStatei
08006584 T _Z37CPU_USART_RxBufferFullInterruptEnableij
0800652c T _Z37CPU_USART_TxBufferEmptyInterruptStatei
080064d8 T _Z38CPU_USART_TxBufferEmptyInterruptEnableij
0800047c T _Z39Tinybooter_PrepareForDecompressedLaunchv
0800610c T _Z44HAL_Time_Sleep_MicroSeconds_InterruptEnabledj
08006124 T _Z7COMInitiP17USART_InitTypeDef
08007e50 T _Z8CPU_Haltv
080095b0 T _Z8USB_ReadiPcj
08007e28 T _Z9CPU_Resetv
08007e34 T _Z9CPU_Sleep11SLEEP_LEVELy
08005cf8 T _Z9LCD_Clearv
080095cc T _Z9USB_Flushi
08009594 T _Z9USB_WriteiPKcj
0801435c t _ZL10COM_RX_PIN
08014358 t _ZL10COM_TX_PIN
08013ee0 t _ZL10c_CRCTable
08014364 t _ZL11COM_CTS_PIN
08014360 t _ZL11COM_RTS_PIN
0800127c t _ZL12AccessMemoryjjPhi
080080f0 t _ZL12InitCRuntimev
08000210 t _ZL12Prepare_CopyPjS_j
080002ac t _ZL12Prepare_ZeroPjj
08014340 t _ZL13COM_USART_CLK
08013e78 t _ZL14CLR_EmptyIndex
08013cb8 t _ZL14CLR_EmptyIndex
08013e7c t _ZL14CLR_EmptyToken
08013cbc t _ZL14CLR_EmptyToken
08013d10 t _ZL14MAXHOSTNAMELEN
08013ed0 t _ZL14MAXHOSTNAMELEN
08013ed4 t _ZL14MAXTYPENAMELEN
08013d14 t _ZL14MAXTYPENAMELEN
08014640 t _ZL14XOFF_FLAG_FULL
08013dd4 t _ZL14c_Debugger_app
08013dcc t _ZL14c_Debugger_phy
08013dc0 t _ZL14c_Lookup_Reply
08014350 t _ZL15COM_RX_PORT_CLK
08014348 t _ZL15COM_TX_PORT_CLK
2000256c b _ZL15LoggingCallback
08014641 t _ZL15XOFF_CLOCK_HALT
08013ed8 t _ZL16MAX_SD_CARD_SIZE
08014338 t _ZL16MAX_SD_CARD_SIZE
08014610 t _ZL16MAX_SD_CARD_SIZE
08014740 t _ZL16MAX_SD_CARD_SIZE
08013e70 t _ZL16MAX_SD_CARD_SIZE
08014378 t _ZL16MAX_SD_CARD_SIZE
080142f0 t _ZL16MAX_SD_CARD_SIZE
08014648 t _ZL16MAX_SD_CARD_SIZE
08013cb0 t _ZL16MAX_SD_CARD_SIZE
08014638 t _ZL16MAX_SD_CARD_SIZE
080146f8 t _ZL16MAX_SD_CARD_SIZE
08013b88 t _ZL16MAX_SD_CARD_SIZE
08014330 t _ZL16MAX_SD_CARD_SIZE
08014498 t _ZL16MAX_SD_CARD_SIZE
080146b8 t _ZL16MAX_SD_CARD_SIZE
08013d30 t _ZL16c_Lookup_Request
20002564 b _ZL16g_s_FirstCluster
20002580 b _ZL16s_rebootHandlers
08013d2c t _ZL17AccessMemory_Mask
08013d20 t _ZL17AccessMemory_Read
0800cc54 t _ZL17RCC_Configurationv
08013d1c t _ZL18AccessMemory_Check
08013d28 t _ZL18AccessMemory_Erase
08013d24 t _ZL18AccessMemory_Write
08013ec0 t _ZL19c_CLR_RT_Trace_Info
08013d00 t _ZL19c_CLR_RT_Trace_Info
08013ebc t _ZL19c_CLR_RT_Trace_None
08013cfc t _ZL19c_CLR_RT_Trace_None
08013ec4 t _ZL22c_CLR_RT_Trace_Verbose
08013d04 t _ZL22c_CLR_RT_Trace_Verbose
08013ec8 t _ZL23c_CLR_RT_Trace_Annoying
08013d08 t _ZL23c_CLR_RT_Trace_Annoying
2000257c b _ZL23g_Boot_RAMConstants_CRC
08013d18 t _ZL23g_ConfigBufferTotalSize
08013d0c t _ZL24c_CLR_RT_Trace_Obnoxious
08013ecc t _ZL24c_CLR_RT_Trace_Obnoxious
08013eac t _ZL25CLR_MaxStreamSize_Strings
08013cec t _ZL25CLR_MaxStreamSize_Strings
08013e90 t _ZL25CLR_MaxStreamSize_TypeDef
08013cd0 t _ZL25CLR_MaxStreamSize_TypeDef
08013e84 t _ZL25CLR_MaxStreamSize_TypeRef
08013cc4 t _ZL25CLR_MaxStreamSize_TypeRef
08013cf4 t _ZL26CLR_MaxStreamSize_ByteCode
08013eb4 t _ZL26CLR_MaxStreamSize_ByteCode
08013cd4 t _ZL26CLR_MaxStreamSize_FieldDef
08013e94 t _ZL26CLR_MaxStreamSize_FieldDef
08013e88 t _ZL26CLR_MaxStreamSize_FieldRef
08013cc8 t _ZL26CLR_MaxStreamSize_FieldRef
08013ea0 t _ZL26CLR_MaxStreamSize_TypeSpec
08013ce0 t _ZL26CLR_MaxStreamSize_TypeSpec
08013e98 t _ZL27CLR_MaxStreamSize_MethodDef
08013cd8 t _ZL27CLR_MaxStreamSize_MethodDef
08013ccc t _ZL27CLR_MaxStreamSize_MethodRef
08013e8c t _ZL27CLR_MaxStreamSize_MethodRef
08013ce4 t _ZL27CLR_MaxStreamSize_Resources
08013ea4 t _ZL27CLR_MaxStreamSize_Resources
08013cdc t _ZL28CLR_MaxStreamSize_Attributes
08013e9c t _ZL28CLR_MaxStreamSize_Attributes
08013eb0 t _ZL28CLR_MaxStreamSize_Signatures
08013cf0 t _ZL28CLR_MaxStreamSize_Signatures
08013e80 t _ZL29CLR_MaxStreamSize_AssemblyRef
08013cc0 t _ZL29CLR_MaxStreamSize_AssemblyRef
08013ce8 t _ZL31CLR_MaxStreamSize_ResourcesData
08013ea8 t _ZL31CLR_MaxStreamSize_ResourcesData
08013eb8 t _ZL32CLR_MaxStreamSize_ResourcesFiles
08013cf8 t _ZL32CLR_MaxStreamSize_ResourcesFiles
08014650 t _ZL34STM32F10x_BlockRange_InternalFlash
080146c0 t _ZL38STM32F10x_BlockRange_ExternalFlash_NOR
080146a4 t _ZL39STM32F10x_BlockRegionInfo_InternalFlash
080146cc t _ZL43STM32F10x_BlockRegionInfo_ExternalFlash_NOR
080144a4 t _ZL6c_Busy
080144a0 t _ZL6c_Free
080144a8 t _ZL7c_Guard
080007d8 W _ZN10BlockRange25IsBlockTinyBooterAgnosticEj
0800b40c W _ZN10STM32_AITC11SetPriorityEjj
0800b3a0 W _ZN10STM32_AITC15EnableInterruptEj
0800b364 W _ZN10STM32_AITC16DisableInterruptEj
0800b3d8 W _ZN10STM32_AITC18IsInterruptEnabledEj
0800b450 W _ZN10STM32_AITC21RemoveForcedInterruptEj
08003f74 T _ZN10WP_Message10InitializeEP13WP_Controller
0800409c T _ZN10WP_Message12PrepareReplyERK9WP_PacketjjPh
08004188 T _ZN10WP_Message12VerifyHeaderEv
080041d4 T _ZN10WP_Message13VerifyPayloadEv
08003fec T _ZN10WP_Message14PrepareRequestEjjjPh
08004220 T _ZN10WP_Message14ReplyBadPacketEj
08003fd0 T _ZN10WP_Message16PrepareReceptionEv
08004278 T _ZN10WP_Message7ProcessEv
08004154 T _ZN10WP_Message7ReleaseEv
08003280 T _ZN11CryptoState15VerifySignatureEj
08003214 T _ZN11CryptoStateC1EjjPhjj
08003260 T _ZN11CryptoStateD1Ev
0800a5c0 T _ZN11Time_Driver10InitializeEv
0800a874 T _ZN11Time_Driver10Sleep_uSecEj
0800a850 T _ZN11Time_Driver11TicksToTimeEy
0800a634 T _ZN11Time_Driver12CounterValueEv
0800a6f8 T _ZN11Time_Driver15SetCompareValueEy
0800a8bc T _ZN11Time_Driver15Sleep_uSec_LoopEj
0800a7dc T _ZN11Time_Driver3ISREPv
080096d8 W _ZN12HAL_CALLBACK10InitializeEPFvPvES0_
08006bac T _ZN12SmartPtr_IRQ11WasDisabledEv
08006c98 T _ZN12SmartPtr_IRQ12ForceEnabledEPv
08006c7c T _ZN12SmartPtr_IRQ13ForceDisabledEPv
08006c30 T _ZN12SmartPtr_IRQ5ProbeEv
08006bd0 T _ZN12SmartPtr_IRQ7AcquireEv
08006cb4 T _ZN12SmartPtr_IRQ7DisableEv
08006bf8 T _ZN12SmartPtr_IRQ7ReleaseEv
08006cd0 T _ZN12SmartPtr_IRQ7RestoreEv
08006c58 T _ZN12SmartPtr_IRQ8GetStateEPv
08006b6c T _ZN12SmartPtr_IRQC1EPv
08006b90 T _ZN12SmartPtr_IRQD1Ev
0800a4ac W _ZN12Timer_Driver10GetCounterEj
0800a998 T _ZN12Timer_Driver10InitializeEjjjjPFvPvES0_
0800b084 T _ZN12Timer_Driver10RCC_DeInitEj
0800a450 W _ZN12Timer_Driver10SetCompareEjt
0800a3f8 W _ZN12Timer_Driver14ForceInterruptEj
0800a504 W _ZN12Timer_Driver15DidTimeOverFlowEj
0800a568 W _ZN12Timer_Driver17ClearTimeOverFlowEj
0800a8d0 W _ZN12Timer_Driver22EnableCompareInterruptEj
0800a934 W _ZN12Timer_Driver23DisableCompareInterruptEj
0800b0d0 T _ZN12Timer_Driver8RCC_InitEjj
08008568 T _ZN12USART_Driver10InitializeEiiiiii
080086bc T _ZN12USART_Driver12UninitializeEi
08008da8 T _ZN12USART_Driver17AddCharToRxBufferEic
08008f34 T _ZN12USART_Driver22RemoveCharFromTxBufferEiRc
08008974 T _ZN12USART_Driver4ReadEiPcj
08008b34 T _ZN12USART_Driver5FlushEi
08008750 T _ZN12USART_Driver5WriteEiPKcj
080090b0 T _ZN12USART_Driver7SendXONEij
08009010 T _ZN12USART_Driver8SendXOFFEij
08009154 T _ZN12USART_Driver8SetEventEij
08001d2c T _ZN13Loader_Engine10InitializeEi
08001ce8 T _ZN13Loader_Engine11App_ReleaseEPvP10WP_Message
08002260 T _ZN13Loader_Engine12Monitor_PingEP10WP_Message
08001ddc T _ZN13Loader_Engine13ProcessHeaderEP10WP_Message
08002360 T _ZN13Loader_Engine14Monitor_RebootEP10WP_Message
08001df8 T _ZN13Loader_Engine14ProcessPayloadEP10WP_Message
08002230 T _ZN13Loader_Engine14ReplyToCommandEP10WP_Messagebb
08002160 T _ZN13Loader_Engine14ReplyToCommandEP10WP_MessagebbPvi
0800261c T _ZN13Loader_Engine15Monitor_ExecuteEP10WP_Message
08002304 T _ZN13Loader_Engine15Monitor_OemInfoEP10WP_Message
08001dc0 T _ZN13Loader_Engine15ProcessCommandsEv
08001854 T _ZN13Loader_Engine15SignedDataState10CheckDirtyEv
08001a4c T _ZN13Loader_Engine15SignedDataState15VerifySignatureEPhjj
080018b8 T _ZN13Loader_Engine15SignedDataState19EraseMemoryAndResetEv
08001908 T _ZN13Loader_Engine15SignedDataState20VerifyContiguousDataEjj
08001884 T _ZN13Loader_Engine15SignedDataState5ResetEv
080020c4 T _ZN13Loader_Engine15TransmitMessageEPK10WP_Messageb
08001b90 T _ZN13Loader_Engine16Phy_ReceiveBytesEPvRPhRj
08001c20 T _ZN13Loader_Engine17App_ProcessHeaderEPvP10WP_Message
08002750 T _ZN13Loader_Engine17Monitor_MemoryMapEP10WP_Message
08001c90 T _ZN13Loader_Engine18App_ProcessPayloadEPvP10WP_Message
08001ef4 T _ZN13Loader_Engine18EnumerateAndLaunchEv
080023b0 T _ZN13Loader_Engine18Monitor_ReadMemoryEP10WP_Message
08002510 T _ZN13Loader_Engine19Monitor_CheckMemoryEP10WP_Message
08002590 T _ZN13Loader_Engine19Monitor_EraseMemoryEP10WP_Message
08002478 T _ZN13Loader_Engine19Monitor_WriteMemoryEP10WP_Message
08001bf8 T _ZN13Loader_Engine19Phy_TransmitMessageEPvPK10WP_Message
080027ec T _ZN13Loader_Engine22Monitor_CheckSignatureEP10WP_Message
080029dc T _ZN13Loader_Engine22Monitor_FlashSectorMapEP10WP_Message
08002868 T _ZN13Loader_Engine26Monitor_SignatureKeyUpdateEP10WP_Message
08001ffc T _ZN13Loader_Engine6LaunchEPFvvE
080022a8 T _ZN13MfReleaseInfo4InitERS_ttttPKcj
080045b0 T _ZN13WP_Controller10InitializeEPKcPK16WP_PhysicalLayerPK19WP_ApplicationLayerPv
08004618 T _ZN13WP_Controller12AdvanceStateEv
08004638 T _ZN13WP_Controller19SendProtocolMessageERK10WP_Message
08004660 T _ZN13WP_Controller19SendProtocolMessageEjjjPh
080097e4 T _ZN14HAL_COMPLETION14DequeueAndExecEv
080097d0 T _ZN14HAL_COMPLETION14InitializeListEv
08009898 T _ZN14HAL_COMPLETION17WaitForInterruptsEyjy
08009778 T _ZN14HAL_COMPLETION7ExecuteEv
0800d754 T _ZN14PalEventDriver10InitializeEv
200030b8 B _ZN14PalEventDriver13s_initializedE
08000b00 W _ZN15BitFieldManager17SetDirtySectorBitEj
080009b8 W _ZN15BitFieldManager20ResetBitFieldManagerEv
08000f8c W _ZN15BitFieldManager24InvalidateSectorBitFieldEv
080009fc W _ZN15BitFieldManager24ResetSignatureCheckArrayEv
08000fc8 W _ZN15BitFieldManager25EraseOnSignatureCheckFailEv
08000cb4 W _ZN15BitFieldManager27GetNextSectorSignatureCheckEP18BlockStorageDeviceR16SECTOR_BIT_FIELD
08004750 T _ZN16BlockStorageList10InitializeEv
20001fc0 B _ZN16BlockStorageList12s_deviceListE
08004a34 T _ZN16BlockStorageList13GetNextDeviceER18BlockStorageDevice
20001fd0 B _ZN16BlockStorageList13s_InitializedE
08004a08 T _ZN16BlockStorageList14GetFirstDeviceEv
20001fcc B _ZN16BlockStorageList15s_primaryDeviceE
08004780 T _ZN16BlockStorageList17InitializeDevicesEv
080048ec T _ZN16BlockStorageList28FindDeviceForPhysicalAddressEPP18BlockStorageDevicejRj
08004878 T _ZN16BlockStorageList9AddDeviceEP18BlockStorageDeviceP19IBlockStorageDevicePvj
08009988 T _ZN16HAL_CONTINUATION14InitializeListEv
080099e8 T _ZN16HAL_CONTINUATION19Dequeue_And_ExecuteEv
0800999c T _ZN16HAL_CONTINUATION7EnqueueEv
08009a64 W _ZN17HAL_DblLinkedListI16HAL_CONTINUATIONE10InitializeEv
08009b80 W _ZN17HAL_DblLinkedListI16HAL_CONTINUATIONE10LinkAtBackEPS0_
08009b54 W _ZN17HAL_DblLinkedListI16HAL_CONTINUATIONE16ExtractFirstNodeEv
08009b0c W _ZN17HAL_DblLinkedListI16HAL_CONTINUATIONE16InsertBeforeNodeEPS0_S2_
08009c14 W _ZN17HAL_DblLinkedListI16HAL_CONTINUATIONE6InsertEPS0_S2_S2_
0800d788 W _ZN17HAL_DblLinkedListI16PalEventListenerE10InitializeEv
080053f8 W _ZN17HAL_DblLinkedListI18BlockStorageDeviceE10InitializeEv
0800547c W _ZN17HAL_DblLinkedListI18BlockStorageDeviceE10LinkAtBackEPS0_
08005520 W _ZN17HAL_DblLinkedListI18BlockStorageDeviceE16InsertBeforeNodeEPS0_S2_
080055a0 W _ZN17HAL_DblLinkedListI18BlockStorageDeviceE6InsertEPS0_S2_S2_
08005cb4 W _ZN17HAL_DblLinkedNodeI16HAL_CONTINUATIONE10InitializeEv
08009bdc W _ZN17HAL_DblLinkedNodeI16HAL_CONTINUATIONE14RemoveFromListEv
08009ac4 W _ZN17HAL_DblLinkedNodeI16HAL_CONTINUATIONE6UnlinkEv
08005458 W _ZN17HAL_DblLinkedNodeI18BlockStorageDeviceE10InitializeEv
08005568 W _ZN17HAL_DblLinkedNodeI18BlockStorageDeviceE14RemoveFromListEv
0800b478 T _ZN17STM32_AITC_Driver10InitializeEv
20000000 D _ZN17STM32_AITC_Driver10s_IsrTableE
0800cb48 T _ZN17STM32_AITC_Driver14IRQToIRQVectorEj
0800cb88 T _ZN17STM32_AITC_Driver14STUB_ISRVectorEPv
0800b53c T _ZN17STM32_AITC_Driver17ActivateInterruptEjjPFvPvES0_
0800cb24 T _ZN17STM32_AITC_Driver20InterruptEnableStateEj
080003ec W _ZN18BlockStorageDevice13GetDeviceInfoEv
08000964 W _ZN18BlockStorageDevice13IsBlockErasedEjj
080046c4 W _ZN18BlockStorageDevice16InitializeDeviceEv
080046e8 W _ZN18BlockStorageDevice17FindForBlockUsageEjRjS0_S0_
0800471c W _ZN18BlockStorageDevice18FindNextUsageBlockEjRjS0_S0_
08000410 W _ZN18BlockStorageDevice21FindRegionFromAddressEjRjS0_
08000900 W _ZN18BlockStorageDevice4ReadEjjPh
08000930 W _ZN18BlockStorageDevice5WriteEjjPhj
08004a90 T _ZN18BlockStorageStream10InitializeEj
08004ab4 T _ZN18BlockStorageStream10InitializeEjP18BlockStorageDevice
08004d6c T _ZN18BlockStorageStream10NextStreamEv
08004b80 T _ZN18BlockStorageStream10PrevStreamEv
08004b60 T _ZN18BlockStorageStream14CurrentAddressEv
080050a0 T _ZN18BlockStorageStream4ReadEPPhj
08004f78 T _ZN18BlockStorageStream4SeekEiNS_10SeekOriginE
0800a038 T _ZN18STM32F10x_blDriver10EraseBlockEPvj
08009d98 T _ZN18STM32F10x_blDriver13GetDeviceInfoEPv
0800a008 T _ZN18STM32F10x_blDriver13IsBlockErasedEPvjj
0800a14c T _ZN18STM32F10x_blDriver13SetPowerStateEPvj
08009d68 T _ZN18STM32F10x_blDriver16InitializeDeviceEPv
08009fd0 T _ZN18STM32F10x_blDriver17GetSectorMetadataEPvjP14SectorMetadata
08009fec T _ZN18STM32F10x_blDriver17SetSectorMetadataEPvjP14SectorMetadata
0800a180 T _ZN18STM32F10x_blDriver18MaxBlockErase_uSecEPv
08009d80 T _ZN18STM32F10x_blDriver18UninitializeDeviceEPv
0800a160 T _ZN18STM32F10x_blDriver19MaxSectorWrite_uSecEPv
08009db4 T _ZN18STM32F10x_blDriver4ReadEPvjjPh
08009dd8 T _ZN18STM32F10x_blDriver5WriteEPvjjPhj
08009f04 T _ZN18STM32F10x_blDriver6MemsetEPvjhj
08009d1c T _ZN20FileSystemVolumeList10InitializeEv
08009d28 T _ZN20FileSystemVolumeList17InitializeVolumesEv
0800925c W _ZN21Hal_Queue_UnknownSizeIhE10InitializeEPhj
0800942c W _ZN21Hal_Queue_UnknownSizeIhE16NumberOfElementsEv
08009358 W _ZN21Hal_Queue_UnknownSizeIhE3PopERj
080091f8 W _ZN21Hal_Queue_UnknownSizeIhE3PopEv
08009298 W _ZN21Hal_Queue_UnknownSizeIhE4PushERj
080094b0 W _ZN21Hal_Queue_UnknownSizeIhE4PushEv
0800947c W _ZN21Hal_Queue_UnknownSizeIhE7IsEmptyEv
0800a330 T _ZN22STM32F10x_blDriver_nor10EraseBlockEPvj
0800a1cc T _ZN22STM32F10x_blDriver_nor13GetDeviceInfoEPv
0800a300 T _ZN22STM32F10x_blDriver_nor13IsBlockErasedEPvjj
0800a344 T _ZN22STM32F10x_blDriver_nor13SetPowerStateEPvj
0800a1a0 T _ZN22STM32F10x_blDriver_nor16InitializeDeviceEPv
0800a2c8 T _ZN22STM32F10x_blDriver_nor17GetSectorMetadataEPvjP14SectorMetadata
0800a2e4 T _ZN22STM32F10x_blDriver_nor17SetSectorMetadataEPvjP14SectorMetadata
0800a378 T _ZN22STM32F10x_blDriver_nor18MaxBlockErase_uSecEPv
0800a1b4 T _ZN22STM32F10x_blDriver_nor18UninitializeDeviceEPv
0800a358 T _ZN22STM32F10x_blDriver_nor19MaxSectorWrite_uSecEPv
0800a1e8 T _ZN22STM32F10x_blDriver_nor4ReadEPvjjPh
0800a21c T _ZN22STM32F10x_blDriver_nor5WriteEPvjjPhj
0800a260 T _ZN22STM32F10x_blDriver_nor6MemsetEPvjhj
080031a4 T _ZN26ConfigurationSectorManager17GetDeploymentKeysEj
08002d4c T _ZN26ConfigurationSectorManager17LoadConfigurationEv
080030dc T _ZN26ConfigurationSectorManager18UpdateSignatureKeyEjPh
08002db4 T _ZN26ConfigurationSectorManager18WriteConfigurationEjPhjj
08003030 T _ZN26ConfigurationSectorManager19CleanBootLoaderFlagEv
0800312c T _ZN26ConfigurationSectorManager19VerifiySignatureKeyEjPh
080031e8 T _ZN26ConfigurationSectorManager20GetTinyBooterVersionEv
08002f84 T _ZN26ConfigurationSectorManager20IsBootLoaderRequiredERi
08002f38 T _ZN26ConfigurationSectorManager21EraseWriteConfigBlockEPhj
08003070 T _ZN26ConfigurationSectorManager22CheckSignatureKeyEmptyEj
08002c0c T _ZN26ConfigurationSectorManager25LocateConfigurationSectorEj
0800b464 W _ZN5STM324AITCEv
080007a8 W _ZN9MFVersion4InitERS_tttt
080003c8 W _ZNK10BlockRange11IsBootstrapEv
0800085c W _ZNK10BlockRange13GetBlockCountEv
080046a8 W _ZNK10BlockRange13GetBlockUsageEv
08000828 W _ZNK10BlockRange8IsConfigEv
080096fc W _ZNK12HAL_CALLBACK13GetEntryPointEv
08009714 W _ZNK12HAL_CALLBACK7ExecuteEv
080052e0 T _ZNK15BlockDeviceInfo17FindForBlockUsageEjRjS0_S0_
08005324 T _ZNK15BlockDeviceInfo18FindNextUsageBlockEjRjS0_S0_
080051e0 T _ZNK15BlockDeviceInfo21FindRegionFromAddressEjRjS0_
08000880 W _ZNK15BlockRegionInfo12BlockAddressEj
080008a8 W _ZNK15BlockRegionInfo15OffsetFromBlockEj
080008d8 W _ZNK15BlockRegionInfo21BlockIndexFromAddressEj
0800973c W _ZNK16HAL_CONTINUATION13GetEntryPointEv
0800975c W _ZNK16HAL_CONTINUATION7ExecuteEv
08009c5c W _ZNK17HAL_DblLinkedListI16HAL_CONTINUATIONE14FirstValidNodeEv
08009bc4 W _ZNK17HAL_DblLinkedListI16HAL_CONTINUATIONE4HeadEv
08009ba4 W _ZNK17HAL_DblLinkedListI16HAL_CONTINUATIONE4TailEv
08009a94 W _ZNK17HAL_DblLinkedListI16HAL_CONTINUATIONE9FirstNodeEv
0800d7d8 W _ZNK17HAL_DblLinkedListI16PalEventListenerE4HeadEv
0800d7b8 W _ZNK17HAL_DblLinkedListI16PalEventListenerE4TailEv
080054a0 W _ZNK17HAL_DblLinkedListI18BlockStorageDeviceE14FirstValidNodeEv
08005508 W _ZNK17HAL_DblLinkedListI18BlockStorageDeviceE4HeadEv
080054e8 W _ZNK17HAL_DblLinkedListI18BlockStorageDeviceE4TailEv
08005428 W _ZNK17HAL_DblLinkedListI18BlockStorageDeviceE9FirstNodeEv
08009aac W _ZNK17HAL_DblLinkedNodeI16HAL_CONTINUATIONE4NextEv
08009c44 W _ZNK17HAL_DblLinkedNodeI16HAL_CONTINUATIONE4PrevEv
08005440 W _ZNK17HAL_DblLinkedNodeI18BlockStorageDeviceE4NextEv
080054d0 W _ZNK17HAL_DblLinkedNodeI18BlockStorageDeviceE4PrevEv
08000990 W _ZNK18BlockStorageDevice10EraseBlockEj
08013de0 t _ZZN13Loader_Engine18EnumerateAndLaunchEvE12MAX_PROGRAMS
08012eac T ___Unwind_Backtrace
08012e88 T ___Unwind_ForcedUnwind
08012e1c T ___Unwind_RaiseException
08012e40 T ___Unwind_Resume
08012e64 T ___Unwind_Resume_or_Rethrow
08011934 T __adddf3
08012154 T __aeabi_cdcmpeq
08012154 T __aeabi_cdcmple
08012144 T __aeabi_cdrcmple
080121c8 T __aeabi_d2iz
08011934 T __aeabi_dadd
08012164 T __aeabi_dcmpeq
080121a0 T __aeabi_dcmpge
080121b4 T __aeabi_dcmpgt
0801218c T __aeabi_dcmple
08012178 T __aeabi_dcmplt
08011eec T __aeabi_ddiv
08011c98 T __aeabi_dmul
08011928 T __aeabi_drsub
08011930 T __aeabi_dsub
08011bf0 T __aeabi_f2d
08011bcc T __aeabi_i2d
08011880 T __aeabi_idiv
08011924 T __aeabi_idiv0
08011914 T __aeabi_idivmod
08011c3c T __aeabi_l2d
08011924 T __aeabi_ldiv0
08011bac T __aeabi_ui2d
080117f8 T __aeabi_uidiv
08011870 T __aeabi_uidivmod
08011c2c T __aeabi_ul2d
08012218 T __aeabi_uldivmod
080126a0 T __aeabi_unwind_cpp_pr0
08012694 W __aeabi_unwind_cpp_pr1
08012688 W __aeabi_unwind_cpp_pr2
08010cd4 T __any_on
08010b4c T __b2d
080120cc T __cmpdf2
08010c8c T __copybits
         w __cxa_begin_cleanup
         w __cxa_call_unexpected
         w __cxa_type_match
08010d7c T __d2b
08011924 T __div0
08011eec T __divdf3
08013268 T __divdi3
08011880 T __divsi3
080120cc T __eqdf2
200030f0 B __exidx_end
200030f0 B __exidx_start
08011bf0 T __extendsfdf2
080121c8 T __fixdfsi
08011c3c T __floatdidf
08011bcc T __floatsidf
08011c2c T __floatundidf
08011bac T __floatunsidf
080120bc T __gedf2
080127d8 T __gnu_Unwind_Backtrace
         w __gnu_Unwind_Find_exidx
08012984 T __gnu_Unwind_ForcedUnwind
080129c8 T __gnu_Unwind_RaiseException
08012d3c T __gnu_Unwind_Restore_VFP
08012d4c T __gnu_Unwind_Restore_VFP_D
08012d5c T __gnu_Unwind_Restore_VFP_D_16_to_31
08012df4 T __gnu_Unwind_Restore_WMMXC
08012d6c T __gnu_Unwind_Restore_WMMXD
08012a5c T __gnu_Unwind_Resume
08012a44 T __gnu_Unwind_Resume_or_Rethrow
08012d44 T __gnu_Unwind_Save_VFP
08012d54 T __gnu_Unwind_Save_VFP_D
08012d64 T __gnu_Unwind_Save_VFP_D_16_to_31
08012e08 T __gnu_Unwind_Save_WMMXC
08012db0 T __gnu_Unwind_Save_WMMXD
08012260 T __gnu_ldivmod_helper
08012230 T __gnu_uldivmod_helper
08012f54 T __gnu_unwind_execute
0801323c T __gnu_unwind_frame
080123b8 t __gnu_unwind_pr_common
080120bc T __gtdf2
08010a08 T __hi0bits
080111a8 T __i2b
0801170c T __isinfd
08011730 T __isnand
080120c4 T __ledf2
08010a54 T __lo0bits
080103e0 T __locale_charset
08010f80 T __lshift
080120c4 T __ltdf2
200008c0 D __malloc_av_
200030c0 B __malloc_current_mallinfo
080109e4 T __malloc_lock
200030e8 B __malloc_max_sbrked_mem
200030ec B __malloc_max_total_mem
20000cc8 D __malloc_sbrk_base
200030bc B __malloc_top_pad
20000ccc D __malloc_trim_threshold
080109e8 T __malloc_unlock
08010abc T __mcmp
08010e60 T __mdiff
08014a40 T __mprec_bigtens
08014968 T __mprec_tens
08014a68 T __mprec_tinytens
08011c98 T __muldf3
080111c0 T __multadd
08011044 T __multiply
080120cc T __nedf2
08011264 T __pow5mult
08010be8 T __ratio
08012d24 T __restore_core_regs
0801131c T __s2b
080139e8 T __sigtramp
08013990 T __sigtramp_r
0800db68 t __sprint_r
08011930 T __subdf3
080135c0 T __udivdi3
080117f8 T __udivsi3
08010afc T __ulp
00000000 A __use_no_semihosting_swi
0801179c T _calloc_r
0800f304 T _dtoa_r
08014a90 T _exit
08010234 T _free_r
08014a90 T _getpid
08013a60 T _getpid_r
20000490 D _impure_ptr
0801397c T _init_signal
08013944 T _init_signal_r
08014a90 T _kill
08013a6c T _kill_r
080103ec T _localeconv_r
08010464 T _malloc_r
08010190 T _malloc_trim_r
08010c4c T _mprec_log10
080138d0 T _raise_r
080113b8 T _realloc_r
08014a90 T _sbrk
08011750 T _sbrk_r
08010404 T _setlocale_r
08013a00 T _signal_r
         U _start
0800dc9c T _svfprintf_r
0800dae0 T _vsnprintf_r
080138c0 T abort
080148b0 t blanks.3587
08014924 t charset
080082f4 T debug_printf
20002568 B errno
20000cd8 B g_BitFieldManager
20000cd0 B g_ConfigBuffer
20000cd4 B g_ConfigBufferLength
         U g_DebuggerPortSslConfig
20001fdc B g_Event_Callback
20001fe0 B g_Event_Callback_Arg
20001fe8 B g_Events_BoolTimerCompletion
200002d4 D g_GPIO_BUTTON_Config
20002e88 B g_HAL_Completion_List
20002e94 B g_HAL_Continuation_List
20000d14 B g_PrimaryConfigManager
20002ee0 B g_Time_Driver
20002ef0 B g_Timer_Driver
20001640 B g_eng
200025c0 B g_fDoNotUninitializeDebuggerPort
200030ac B g_palEventDriver
080126ac t get_eit_entry
20002014 B gpinIsr
20000498 d impure_data
20000458 D isErased
08008368 T lcd_printf
08014928 t lconv
080103f8 T localeconv
08010964 T memchr
0800d7f0 T memcmp
0800d848 T memcpy
0800d94c T memmove
0800d9ec T memset
00000000 a nFDPROT
00000000 a nFEPROT
00000000 a nFPROT0
00000000 a nFPROT1
00000000 a nFPROT2
00000000 a nFPROT3
08012ed0 t next_unwind_byte
08014a30 t p05.2435
20002010 B pinState
080035a0 T private_free
08003584 T private_malloc
0800f1b0 t quorem
0801392c T raise
08012d24 T restore_core_regs
08012774 t restore_non_core_regs
08012344 t search_EIT_table
08012330 t selfrel_offset31
08010448 T setlocale
08013a40 T signal
08011778 T strcmp
0801178c T strlen
0800da7c T strncpy
08012f28 t unwind_UCB_from_context
08012998 t unwind_phase2
08012878 t unwind_phase2_forced
0800db40 T vsnprintf
080148c0 t zeroes.3588
08013de8 t .LC0
080142f8 t .LC0
08014700 t .LC0
080146e0 t .LC0
080144b0 t .LC0
08014618 t .LC0
08013a98 t .LC0
080142e0 t .LC0
08013b90 t .LC0
08014380 t .LC0
08013aa4 t .LC1
08013e04 t .LC1
080142e8 t .LC1
08014628 t .LC1
080144c4 t .LC1
08014714 t .LC1
080143a0 t .LC1
08013bc8 t .LC1
08014558 t .LC10
08014564 t .LC11
08014588 t .LC12
080145ac t .LC13
080145c4 t .LC14
080145dc t .LC15
080145ec t .LC16
08014600 t .LC17
080143cc t .LC2
08013ab0 t .LC2
08013e20 t .LC2
08013c18 t .LC2
080144d8 t .LC2
08013e2c t .LC3
08013c48 t .LC3
080143f4 t .LC3
080144f0 t .LC3
08013abc t .LC3
08014434 t .LC4
08013acc t .LC4
0801450c t .LC4
08013e38 t .LC4
08013c84 t .LC4
08014474 t .LC5
08013ae0 t .LC5
08013c8c t .LC5
08014518 t .LC5
08013e50 t .LC5
08013af4 t .LC6
08014524 t .LC6
08013b18 t .LC7
08014540 t .LC7
08013b40 t .LC8
08014544 t .LC8
0801454c t .LC9
0800bc5c T ADC1_2_IRQHandler
0800c5fc T ADC3_IRQHandler
200003c0 d ADCPrescTable
200003b0 d APBAHBPrescTable
08000000 T ARM_Vectors
00000000 a BUILD_RTM
00000000 a BUILD_RTM
00000000 a BUILD_RTM
00000000 a BUILD_RTM
000000aa a BackDoorK0
00000055 a BackDoorK1
00000011 a BackDoorK2
00000088 a BackDoorK3
000000ff a BackDoorK4
000000ff a BackDoorK5
000000ff a BackDoorK6
000000ff a BackDoorK7
08008174 T BootEntry
f1e0f85f a BootRAM
08014aa8 T Boot_Vectors
0800ccec T BootstrapCode
0800bd64 T CAN1_RX1_IRQHandler
0800bdbc T CAN1_SCE_IRQHandler
00000001 a COMPILE_THUMB2
00000001 a COMPILE_THUMB2
00000001 a COMPILE_THUMB2
00000001 a COMPILE_THUMB2
2000037c D COM_RX_PORT
20000374 D COM_TX_PORT
2000036c D COM_USART
08007dcc T Crypto_AbortRSAOperation
08007d8c T Crypto_StartRSAOperationWithKey
08007db0 T Crypto_StepRSAOperation
0800b9f4 T DMA1_Channel1_IRQHandler
0800ba4c T DMA1_Channel2_IRQHandler
0800baa4 T DMA1_Channel3_IRQHandler
0800bafc T DMA1_Channel4_IRQHandler
0800bb54 T DMA1_Channel5_IRQHandler
0800bbac T DMA1_Channel6_IRQHandler
0800bc04 T DMA1_Channel7_IRQHandler
0800c914 T DMA2_Channel1_IRQHandler
0800c96c T DMA2_Channel2_IRQHandler
0800c9c4 T DMA2_Channel3_IRQHandler
0800ca1c T DMA2_Channel4_5_IRQHandler
0800b6a8 T Default_Handler
0800ca74 T EXTI0_IRQHandler
0800c394 T EXTI15_10_IRQHandler
0800b894 T EXTI1_IRQHandler
0800b8ec T EXTI2_IRQHandler
0800b944 T EXTI3_IRQHandler
0800b99c T EXTI4_IRQHandler
0800be14 T EXTI9_5_IRQHandler
20000328 D EXTILines
080001f8 T EntryPoint
000000ff a FDPROT
000000ff a FEPROT
0800b7cc T FLASH_IRQHandler
0800cd44 T FLASH_PrefetchBufferCmd
0800cd00 T FLASH_SetLatency
0800cd88 T FLASH_Unlock
000000ff a FOPT
000000ff a FPROT0
000000ff a FPROT1
000000ff a FPROT2
000000ff a FPROT3
000000fe a FSEC
0800c654 T FSMC_IRQHandler
0800cf50 T FSMC_NORSRAMCmd
0800cddc T FSMC_NORSRAMInit
08009638 T Fault_Handler_Display
08006dc4 T GPIO_Init
20002394 B GPIO_Instances
2000030c D GPIO_PORT_ARRAY
08007058 T GPIO_PinRemapConfig
08006fb0 T GPIO_ReadInputDataBit
08006fec T GPIO_ReadOutputDataBit
20002554 B GPIO_Reserve
08006f84 T GPIO_StructInit
08007028 T GPIO_WriteBit
200030a8 B HALTimerHandlerFPN
080060a0 T HAL_Time_CurrentTicks
080096a8 T HARD_Breakpoint
080096b8 T HARD_Breakpoint_Handler
08014368 T HalName
20000388 D HalSystemConfig
20002dd8 B Hal_Usart_State
0800b5b0 T HardFault_Handler
0800c0d4 T I2C1_ER_IRQHandler
0800c07c T I2C1_EV_IRQHandler
0800c184 T I2C2_ER_IRQHandler
0800c12c T I2C2_EV_IRQHandler
00014a94 A Image$$ER_FLASH$$Length
20000000 N Image$$ER_RAM_RO$$Base
00000000 A Image$$ER_RAM_RO$$Length
20000000 D Image$$ER_RAM_RW$$Base
000030f0 A Image$$ER_RAM_RW$$Length
20000cd0 B Image$$ER_RAM_RW$$ZI$$Base
00002420 A Image$$ER_RAM_RW$$ZI$$Length
2000c000 a InitStackTop
2000c000 a Initial_spTop
08007d74 T LED_ORANGE_OFF
20002578 B LOAD_IMAGE_CalcCRC
20002574 B LOAD_IMAGE_Length
20002570 B LOAD_IMAGE_Start
08000000 T Load$$ER_FLASH$$Base
08014c80 A Load$$ER_RAM_RO$$Base
08014c80 A Load$$ER_RAM_RW$$Base
0800b1dc T NOR_Init
0800d72c T NVIC_PriorityGroupConfig
00000001 a PLATFORM_ARM_EmoteDotNow
00000001 a PLATFORM_ARM_EmoteDotNow
00000001 a PLATFORM_ARM_EmoteDotNow
00000001 a PLATFORM_ARM_EmoteDotNow
00000001 a PLATFORM_ARM_STM32F10x
00000001 a PLATFORM_ARM_STM32F10x
00000001 a PLATFORM_ARM_STM32F10x
00000001 a PLATFORM_ARM_STM32F10x
0800b6b8 T PVD_IRQHandler
08000328 T PrepareImageRegions
08014a98 T Prot_Bytes
08007438 T RCC_ADCCLKConfig
08007644 T RCC_AHBPeriphClockCmd
080076f4 T RCC_APB1PeriphClockCmd
080077a4 T RCC_APB1PeriphResetCmd
0800769c T RCC_APB2PeriphClockCmd
0800774c T RCC_APB2PeriphResetCmd
0800717c T RCC_DeInit
0800747c T RCC_GetClocksFreq
080077fc T RCC_GetFlagStatus
0800734c T RCC_GetSYSCLKSource
08007368 T RCC_HCLKConfig
08007218 T RCC_HSEConfig
0800b830 T RCC_IRQHandler
080073ac T RCC_PCLK1Config
080073f0 T RCC_PCLK2Config
080072e8 T RCC_PLLCmd
0800729c T RCC_PLLConfig
08007308 T RCC_SYSCLKConfig
0800c3ec T RTCAlarm_IRQHandler
0800b774 T RTC_IRQHandler
200029d8 B RxBuffer_Com
0800c6ac T SDIO_IRQHandler
0800c1dc T SPI1_IRQHandler
0800c234 T SPI2_IRQHandler
0800c75c T SPI3_IRQHandler
20002ec0 B SPI_InitStructure
20002ed8 B SPI_Initialized
20002ed4 B SPI_mod
200003f4 D STM32F10x_BlockDeviceInfo_ExternalFlash_NOR
200003c8 D STM32F10x_BlockDeviceInfo_InternalFlash
20002eb0 B STM32F10x_BlockStorageDevice_ExternalFlash_NOR
20002ea0 B STM32F10x_BlockStorageDevice_InternalFlash
2000045c D STM32F10x_IBlockStorageDevice_ExternalFlash_NOR
20000420 D STM32F10x_IBlockStorageDevice_InternalFlash
20000410 D STM32F10x_blConfig_ExternalFlash_NOR
200003e4 D STM32F10x_blConfig_InternalFlash
08014a94 R StackTop
20001fd8 B SystemEvents
080083dc T SystemState_ClearNoLock
08008428 T SystemState_QueryNoLock
08008390 T SystemState_SetNoLock
200025c4 B SystemStates
0800b71c T TAMPER_IRQHandler
00000001 a TARGETLOCATION_FLASH
00000001 a TARGETLOCATION_FLASH
00000001 a TARGETLOCATION_FLASH
00000001 a TARGETLOCATION_FLASH
0800be6c T TIM1_BRK_IRQHandler
0800bf74 T TIM1_CC_IRQHandler
0800bf1c T TIM1_TRG_COM_IRQHandler
0800bec4 T TIM1_UP_IRQHandler
0800cacc T TIM2_IRQHandler
0800bfcc T TIM3_IRQHandler
0800c024 T TIM4_IRQHandler
0800c704 T TIM5_IRQHandler
0800c864 T TIM6_IRQHandler
0800c8bc T TIM7_IRQHandler
0800c49c T TIM8_BRK_IRQHandler
0800c5a4 T TIM8_CC_IRQHandler
0800c54c T TIM8_TRG_COM_IRQHandler
0800c4f4 T TIM8_UP_IRQHandler
0800d660 T TIM_ClearFlag
0800d6e8 T TIM_ClearITPendingBit
0800d4b8 T TIM_Cmd
0800cfa8 T TIM_DeInit
0800d54c T TIM_GenerateEvent
0800d604 T TIM_GetCounter
0800d620 T TIM_GetFlagStatus
0800d684 T TIM_GetITStatus
0800d500 T TIM_ITConfig
0800d378 T TIM_OC1Init
0800d568 T TIM_OC1PreloadConfig
0800d5a4 T TIM_SelectOnePulseMode
0800d5e8 T TIM_SetCompare1
0800d258 T TIM_TimeBaseInit
200025d8 B TxBuffer_Com
0800c7b4 T UART4_IRQHandler
0800c80c T UART5_IRQHandler
08006624 T USART1_Handler
0800c28c T USART1_IRQHandler
080067c4 T USART2_Handler
0800c2e4 T USART2_IRQHandler
0800c33c T USART3_IRQHandler
08007b2c T USART_Cmd
0800788c T USART_DeInit
08007c68 T USART_GetFlagStatus
08007ca8 T USART_GetITStatus
08007b78 T USART_ITConfig
08007964 T USART_Init
08007c44 T USART_ReceiveData
08007c20 T USART_SendData
0800c444 T USBWakeUp_IRQHandler
0800bcb4 T USB_HP_CAN1_TX_IRQHandler
0800bd0c T USB_LP_CAN1_RX0_IRQHandler
08000788 T VectorRelocate
08010d28 T _Balloc
080109f0 T _Bfree
08012eac T _Unwind_Backtrace
080123a4 T _Unwind_Complete
080123a8 T _Unwind_DeleteException
08012e88 T _Unwind_ForcedUnwind
080123a0 T _Unwind_GetCFA
08012f08 T _Unwind_GetDataRelBase
080122cc t _Unwind_GetGR
08012f10 t _Unwind_GetGR
08012f34 T _Unwind_GetLanguageSpecificData
08012f48 T _Unwind_GetRegionStart
08012f00 T _Unwind_GetTextRelBase
08012e1c T _Unwind_RaiseException
08012e40 T _Unwind_Resume
08012e64 T _Unwind_Resume_or_Rethrow
08012314 t _Unwind_SetGR
0801229c T _Unwind_VRS_Get
08012a98 T _Unwind_VRS_Pop
080122e4 T _Unwind_VRS_Set
08012290 t _Unwind_decode_target2
08005ab4 T _Z10Events_Setj
0800a3c4 T _Z10RCC_Configv
080084e4 T _Z10USART_ReadiPcj
08007e5c T _Z10hal_printfPKcz
08005d40 T _Z11GPIO_GetPinj
0800a3ec T _Z11NVIC_Configv
08008508 T _Z11USART_Flushi
080084c0 T _Z11USART_WriteiPKcj
08007eb4 T _Z11hal_fprintfiPKcz
08007e88 T _Z11hal_vprintfPKcSt9__va_list
08005b1c T _Z12Events_Clearj
08005d64 T _Z12GPIO_GetPortj
08007e0c T _Z12HAL_AssertExv
08005d18 T _Z12HeapLocationRPhRj
0800cbb8 T _Z12LowLevelInitv
08006d40 T _Z12SOCKETS_ReadiPcj
0800807c T _Z12hal_strlen_sPKc
08007ee4 T _Z12hal_vfprintfiPKcSt9__va_list
08009d04 T _Z13FS_AddVolumesv
08009d10 T _Z13FS_Initializev
08006d5c T _Z13SOCKETS_Flushi
08006d24 T _Z13SOCKETS_WriteiPKcj
0800952c T _Z13USB_ConfigureiPK25USB_DYNAMIC_CONFIGURATION
08008018 T _Z13hal_strncpy_sPcjPKcj
08007ff0 T _Z13hal_vsnprintfPcjPKcSt9__va_list
08007e18 T _Z14CPU_Initializev
080080fc T _Z14HAL_Initializev
08009d48 T _Z14I2C_Initializev
08009d58 T _Z14Ink_Initializev
08005cd8 T _Z14LCD_Initializev
08009514 T _Z14USB_Initializei
08009560 T _Z14USB_OpenStreamiii
08005f90 T _Z15CPU_TicksToTimey
08005d80 T _Z15GPIO_GetPortPtrj
08003f40 T _Z15LZ77_DecompressPhiS_i
080038f8 T _Z15LZ77_DecompressPhiS_iPFjjjPKhEPFjjjS_E
0800d70c T _Z15Time_Initializev
0800957c T _Z15USB_CloseStreami
08005ce8 T _Z16LCD_Uninitializev
0800b1a8 T _Z16Piezo_Initializev
08008474 T _Z16USART_Initializeiiiiii
08009548 T _Z16USB_Uninitializei
08007de8 T _Z17CPU_DisableCachesv
0800587c T _Z17DebuggerPort_ReadiPcj
08005a8c T _Z17Events_Initializev
08005b64 T _Z17Events_MaskedReadj
08009cf4 T _Z18Battery_Initializev
080055d0 T _Z18Buttons_Initializev
0800a398 T _Z18CPU_SPI_Initializev
08005f7c T _Z18CPU_TicksPerSecondv
08009ce4 T _Z18Charger_Initializev
0800b1b4 T _Z18CustomHeapLocationRPhRj
08005900 T _Z18DebuggerPort_Flushi
0800575c T _Z18DebuggerPort_WriteiPKcj
08009d38 T _Z18Gesture_Initializev
08006ce4 T _Z18Network_Initializev
08006cf4 T _Z18SOCKETS_Initializei
0800388c T _Z18SUPPORT_ComputeCRCPKvij
080068d8 T _Z18SimpleHeap_ReleasePv
080084a4 T _Z18USART_Uninitializei
08005e30 T _Z19CPU_GPIO_Attributesj
08005da8 T _Z19CPU_GPIO_Initializev
08006d74 T _Z19CPU_INTC_Initializev
         U _Z19CPU_USB_ProtectPinsij
08006090 T _Z19HAL_Time_Initializev
080060d8 T _Z19HAL_Time_SetComparey
0800b198 T _Z19PalEvent_Initializev
08006a4c T _Z19SimpleHeap_Allocatej
08009cd4 T _Z20BackLight_Initializev
08005eb0 T _Z20CPU_GPIO_GetPinStatej
08005f28 T _Z20CPU_GPIO_SetPinStatejj
080062b8 T _Z20CPU_USART_Initializeiiiiii
080003a4 W _Z20Events_WaitForEventsjj
08005b88 T _Z20Events_WaitForEventsjjj
080080bc W _Z20HAL_Init_Custom_Heapv
080060b4 T _Z20HAL_Time_TicksToTimey
08006d0c T _Z20SOCKETS_Uninitializei
080035b8 T _Z21ApplicationEntryPointv
0800687c T _Z21SimpleHeap_InitializePvj
08006398 T _Z22CPU_USART_Uninitializei
08005d04 T _Z22LCD_WriteFormattedCharh
0800d71c T _Z22TimeService_Initializev
080095e4 T _Z22Watchdog_GetSetEnabledjj
08009600 T _Z22Watchdog_GetSetTimeoutij
08009c8c T _Z23BlockStorage_AddDevicesv
0800606c T _Z23CPU_MicrosecondsToTicksj
08005fe8 T _Z23CPU_MillisecondsToTicksj
080063d8 T _Z23CPU_USART_TxBufferEmptyi
080055fc T _Z23DebuggerPort_Initializei
08008524 T _Z23USART_AddCharToRxBufferic
08000488 T _Z23WaitForTinyBooterUploadRi
0800961c T _Z23Watchdog_GetSetBehavior17Watchdog_Behaviorj
08005e48 T _Z24CPU_GPIO_EnableOutputPinjj
08007df4 T _Z24CPU_GetUncachableAddressj
08000508 T _Z24TinyBooter_OnStateChange16_TinyBooterStatePvPS0_
080056e0 T _Z25DebuggerPort_Uninitializei
08000740 T _Z25TinyBooter_GetReleaseInfoR13MfReleaseInfo
080055e0 T _Z26Buttons_GetNextStateChangeRjS_
08006d80 T _Z26CPU_INTC_ActivateInterruptjPFvPvES_
080006a4 T _Z26CheckFlashSectorPermissionP18BlockStorageDevicej
0800596c T _Z27CPU_InitializeCommunicationv
080060f4 T _Z27HAL_Time_Sleep_MicroSecondsj
08000440 T _Z27Tinybooter_ProgramWordCheckv
08000454 T _Z28Tinybooter_ImageIsCompressedv
08008548 T _Z28USART_RemoveCharFromTxBufferiRc
08006da8 T _Z29CPU_INTC_InterruptEnableStatej
08006488 T _Z29CPU_USART_WriteCharToTxBufferih
08006430 T _Z30CPU_USART_TxShiftRegisterEmptyi
08000464 T _Z31Tinybooter_CompressedImageStartRK22CompressedImage_Header
0800660c T _Z33CPU_USART_TxHandshakeEnabledStatei
08006584 T _Z37CPU_USART_RxBufferFullInterruptEnableij
0800652c T _Z37CPU_USART_TxBufferEmptyInterruptStatei
080064d8 T _Z38CPU_USART_TxBufferEmptyInterruptEnableij
0800047c T _Z39Tinybooter_PrepareForDecompressedLaunchv
0800610c T _Z44HAL_Time_Sleep_MicroSeconds_InterruptEnabledj
08006124 T _Z7COMInitiP17USART_InitTypeDef
08007e50 T _Z8CPU_Haltv
080095b0 T _Z8USB_ReadiPcj
08007e28 T _Z9CPU_Resetv
08007e34 T _Z9CPU_Sleep11SLEEP_LEVELy
08005cf8 T _Z9LCD_Clearv
080095cc T _Z9USB_Flushi
08009594 T _Z9USB_WriteiPKcj
0801435c t _ZL10COM_RX_PIN
08014358 t _ZL10COM_TX_PIN
08013ee0 t _ZL10c_CRCTable
08014364 t _ZL11COM_CTS_PIN
08014360 t _ZL11COM_RTS_PIN
0800127c t _ZL12AccessMemoryjjPhi
080080f0 t _ZL12InitCRuntimev
08000210 t _ZL12Prepare_CopyPjS_j
080002ac t _ZL12Prepare_ZeroPjj
08014340 t _ZL13COM_USART_CLK
08013e78 t _ZL14CLR_EmptyIndex
08013cb8 t _ZL14CLR_EmptyIndex
08013e7c t _ZL14CLR_EmptyToken
08013cbc t _ZL14CLR_EmptyToken
08013d10 t _ZL14MAXHOSTNAMELEN
08013ed0 t _ZL14MAXHOSTNAMELEN
08013ed4 t _ZL14MAXTYPENAMELEN
08013d14 t _ZL14MAXTYPENAMELEN
08014640 t _ZL14XOFF_FLAG_FULL
08013dd4 t _ZL14c_Debugger_app
08013dcc t _ZL14c_Debugger_phy
08013dc0 t _ZL14c_Lookup_Reply
08014350 t _ZL15COM_RX_PORT_CLK
08014348 t _ZL15COM_TX_PORT_CLK
2000256c b _ZL15LoggingCallback
08014641 t _ZL15XOFF_CLOCK_HALT
08013ed8 t _ZL16MAX_SD_CARD_SIZE
08014338 t _ZL16MAX_SD_CARD_SIZE
08014610 t _ZL16MAX_SD_CARD_SIZE
08014740 t _ZL16MAX_SD_CARD_SIZE
08013e70 t _ZL16MAX_SD_CARD_SIZE
08014378 t _ZL16MAX_SD_CARD_SIZE
080142f0 t _ZL16MAX_SD_CARD_SIZE
08014648 t _ZL16MAX_SD_CARD_SIZE
08013cb0 t _ZL16MAX_SD_CARD_SIZE
08014638 t _ZL16MAX_SD_CARD_SIZE
080146f8 t _ZL16MAX_SD_CARD_SIZE
08013b88 t _ZL16MAX_SD_CARD_SIZE
08014330 t _ZL16MAX_SD_CARD_SIZE
08014498 t _ZL16MAX_SD_CARD_SIZE
080146b8 t _ZL16MAX_SD_CARD_SIZE
08013d30 t _ZL16c_Lookup_Request
20002564 b _ZL16g_s_FirstCluster
20002580 b _ZL16s_rebootHandlers
08013d2c t _ZL17AccessMemory_Mask
08013d20 t _ZL17AccessMemory_Read
0800cc54 t _ZL17RCC_Configurationv
08013d1c t _ZL18AccessMemory_Check
08013d28 t _ZL18AccessMemory_Erase
08013d24 t _ZL18AccessMemory_Write
08013ec0 t _ZL19c_CLR_RT_Trace_Info
08013d00 t _ZL19c_CLR_RT_Trace_Info
08013ebc t _ZL19c_CLR_RT_Trace_None
08013cfc t _ZL19c_CLR_RT_Trace_None
08013ec4 t _ZL22c_CLR_RT_Trace_Verbose
08013d04 t _ZL22c_CLR_RT_Trace_Verbose
08013ec8 t _ZL23c_CLR_RT_Trace_Annoying
08013d08 t _ZL23c_CLR_RT_Trace_Annoying
2000257c b _ZL23g_Boot_RAMConstants_CRC
08013d18 t _ZL23g_ConfigBufferTotalSize
08013d0c t _ZL24c_CLR_RT_Trace_Obnoxious
08013ecc t _ZL24c_CLR_RT_Trace_Obnoxious
08013eac t _ZL25CLR_MaxStreamSize_Strings
08013cec t _ZL25CLR_MaxStreamSize_Strings
08013e90 t _ZL25CLR_MaxStreamSize_TypeDef
08013cd0 t _ZL25CLR_MaxStreamSize_TypeDef
08013e84 t _ZL25CLR_MaxStreamSize_TypeRef
08013cc4 t _ZL25CLR_MaxStreamSize_TypeRef
08013cf4 t _ZL26CLR_MaxStreamSize_ByteCode
08013eb4 t _ZL26CLR_MaxStreamSize_ByteCode
08013cd4 t _ZL26CLR_MaxStreamSize_FieldDef
08013e94 t _ZL26CLR_MaxStreamSize_FieldDef
08013e88 t _ZL26CLR_MaxStreamSize_FieldRef
08013cc8 t _ZL26CLR_MaxStreamSize_FieldRef
08013ea0 t _ZL26CLR_MaxStreamSize_TypeSpec
08013ce0 t _ZL26CLR_MaxStreamSize_TypeSpec
08013e98 t _ZL27CLR_MaxStreamSize_MethodDef
08013cd8 t _ZL27CLR_MaxStreamSize_MethodDef
08013ccc t _ZL27CLR_MaxStreamSize_MethodRef
08013e8c t _ZL27CLR_MaxStreamSize_MethodRef
08013ce4 t _ZL27CLR_MaxStreamSize_Resources
08013ea4 t _ZL27CLR_MaxStreamSize_Resources
08013cdc t _ZL28CLR_MaxStreamSize_Attributes
08013e9c t _ZL28CLR_MaxStreamSize_Attributes
08013eb0 t _ZL28CLR_MaxStreamSize_Signatures
08013cf0 t _ZL28CLR_MaxStreamSize_Signatures
08013e80 t _ZL29CLR_MaxStreamSize_AssemblyRef
08013cc0 t _ZL29CLR_MaxStreamSize_AssemblyRef
08013ce8 t _ZL31CLR_MaxStreamSize_ResourcesData
08013ea8 t _ZL31CLR_MaxStreamSize_ResourcesData
08013eb8 t _ZL32CLR_MaxStreamSize_ResourcesFiles
08013cf8 t _ZL32CLR_MaxStreamSize_ResourcesFiles
08014650 t _ZL34STM32F10x_BlockRange_InternalFlash
080146c0 t _ZL38STM32F10x_BlockRange_ExternalFlash_NOR
080146a4 t _ZL39STM32F10x_BlockRegionInfo_InternalFlash
080146cc t _ZL43STM32F10x_BlockRegionInfo_ExternalFlash_NOR
080144a4 t _ZL6c_Busy
080144a0 t _ZL6c_Free
080144a8 t _ZL7c_Guard
080007d8 W _ZN10BlockRange25IsBlockTinyBooterAgnosticEj
0800b40c W _ZN10STM32_AITC11SetPriorityEjj
0800b3a0 W _ZN10STM32_AITC15EnableInterruptEj
0800b364 W _ZN10STM32_AITC16DisableInterruptEj
0800b3d8 W _ZN10STM32_AITC18IsInterruptEnabledEj
0800b450 W _ZN10STM32_AITC21RemoveForcedInterruptEj
08003f74 T _ZN10WP_Message10InitializeEP13WP_Controller
0800409c T _ZN10WP_Message12PrepareReplyERK9WP_PacketjjPh
08004188 T _ZN10WP_Message12VerifyHeaderEv
080041d4 T _ZN10WP_Message13VerifyPayloadEv
08003fec T _ZN10WP_Message14PrepareRequestEjjjPh
08004220 T _ZN10WP_Message14ReplyBadPacketEj
08003fd0 T _ZN10WP_Message16PrepareReceptionEv
08004278 T _ZN10WP_Message7ProcessEv
08004154 T _ZN10WP_Message7ReleaseEv
08003280 T _ZN11CryptoState15VerifySignatureEj
08003214 T _ZN11CryptoStateC1EjjPhjj
08003260 T _ZN11CryptoStateD1Ev
0800a5c0 T _ZN11Time_Driver10InitializeEv
0800a874 T _ZN11Time_Driver10Sleep_uSecEj
0800a850 T _ZN11Time_Driver11TicksToTimeEy
0800a634 T _ZN11Time_Driver12CounterValueEv
0800a6f8 T _ZN11Time_Driver15SetCompareValueEy
0800a8bc T _ZN11Time_Driver15Sleep_uSec_LoopEj
0800a7dc T _ZN11Time_Driver3ISREPv
080096d8 W _ZN12HAL_CALLBACK10InitializeEPFvPvES0_
08006bac T _ZN12SmartPtr_IRQ11WasDisabledEv
08006c98 T _ZN12SmartPtr_IRQ12ForceEnabledEPv
08006c7c T _ZN12SmartPtr_IRQ13ForceDisabledEPv
08006c30 T _ZN12SmartPtr_IRQ5ProbeEv
08006bd0 T _ZN12SmartPtr_IRQ7AcquireEv
08006cb4 T _ZN12SmartPtr_IRQ7DisableEv
08006bf8 T _ZN12SmartPtr_IRQ7ReleaseEv
08006cd0 T _ZN12SmartPtr_IRQ7RestoreEv
08006c58 T _ZN12SmartPtr_IRQ8GetStateEPv
08006b6c T _ZN12SmartPtr_IRQC1EPv
08006b90 T _ZN12SmartPtr_IRQD1Ev
0800a4ac W _ZN12Timer_Driver10GetCounterEj
0800a998 T _ZN12Timer_Driver10InitializeEjjjjPFvPvES0_
0800b084 T _ZN12Timer_Driver10RCC_DeInitEj
0800a450 W _ZN12Timer_Driver10SetCompareEjt
0800a3f8 W _ZN12Timer_Driver14ForceInterruptEj
0800a504 W _ZN12Timer_Driver15DidTimeOverFlowEj
0800a568 W _ZN12Timer_Driver17ClearTimeOverFlowEj
0800a8d0 W _ZN12Timer_Driver22EnableCompareInterruptEj
0800a934 W _ZN12Timer_Driver23DisableCompareInterruptEj
0800b0d0 T _ZN12Timer_Driver8RCC_InitEjj
08008568 T _ZN12USART_Driver10InitializeEiiiiii
080086bc T _ZN12USART_Driver12UninitializeEi
08008da8 T _ZN12USART_Driver17AddCharToRxBufferEic
08008f34 T _ZN12USART_Driver22RemoveCharFromTxBufferEiRc
08008974 T _ZN12USART_Driver4ReadEiPcj
08008b34 T _ZN12USART_Driver5FlushEi
08008750 T _ZN12USART_Driver5WriteEiPKcj
080090b0 T _ZN12USART_Driver7SendXONEij
08009010 T _ZN12USART_Driver8SendXOFFEij
08009154 T _ZN12USART_Driver8SetEventEij
08001d2c T _ZN13Loader_Engine10InitializeEi
08001ce8 T _ZN13Loader_Engine11App_ReleaseEPvP10WP_Message
08002260 T _ZN13Loader_Engine12Monitor_PingEP10WP_Message
08001ddc T _ZN13Loader_Engine13ProcessHeaderEP10WP_Message
08002360 T _ZN13Loader_Engine14Monitor_RebootEP10WP_Message
08001df8 T _ZN13Loader_Engine14ProcessPayloadEP10WP_Message
08002230 T _ZN13Loader_Engine14ReplyToCommandEP10WP_Messagebb
08002160 T _ZN13Loader_Engine14ReplyToCommandEP10WP_MessagebbPvi
0800261c T _ZN13Loader_Engine15Monitor_ExecuteEP10WP_Message
08002304 T _ZN13Loader_Engine15Monitor_OemInfoEP10WP_Message
08001dc0 T _ZN13Loader_Engine15ProcessCommandsEv
08001854 T _ZN13Loader_Engine15SignedDataState10CheckDirtyEv
08001a4c T _ZN13Loader_Engine15SignedDataState15VerifySignatureEPhjj
080018b8 T _ZN13Loader_Engine15SignedDataState19EraseMemoryAndResetEv
08001908 T _ZN13Loader_Engine15SignedDataState20VerifyContiguousDataEjj
08001884 T _ZN13Loader_Engine15SignedDataState5ResetEv
080020c4 T _ZN13Loader_Engine15TransmitMessageEPK10WP_Messageb
08001b90 T _ZN13Loader_Engine16Phy_ReceiveBytesEPvRPhRj
08001c20 T _ZN13Loader_Engine17App_ProcessHeaderEPvP10WP_Message
08002750 T _ZN13Loader_Engine17Monitor_MemoryMapEP10WP_Message
08001c90 T _ZN13Loader_Engine18App_ProcessPayloadEPvP10WP_Message
08001ef4 T _ZN13Loader_Engine18EnumerateAndLaunchEv
080023b0 T _ZN13Loader_Engine18Monitor_ReadMemoryEP10WP_Message
08002510 T _ZN13Loader_Engine19Monitor_CheckMemoryEP10WP_Message
08002590 T _ZN13Loader_Engine19Monitor_EraseMemoryEP10WP_Message
08002478 T _ZN13Loader_Engine19Monitor_WriteMemoryEP10WP_Message
08001bf8 T _ZN13Loader_Engine19Phy_TransmitMessageEPvPK10WP_Message
080027ec T _ZN13Loader_Engine22Monitor_CheckSignatureEP10WP_Message
080029dc T _ZN13Loader_Engine22Monitor_FlashSectorMapEP10WP_Message
08002868 T _ZN13Loader_Engine26Monitor_SignatureKeyUpdateEP10WP_Message
08001ffc T _ZN13Loader_Engine6LaunchEPFvvE
080022a8 T _ZN13MfReleaseInfo4InitERS_ttttPKcj
080045b0 T _ZN13WP_Controller10InitializeEPKcPK16WP_PhysicalLayerPK19WP_ApplicationLayerPv
08004618 T _ZN13WP_Controller12AdvanceStateEv
08004638 T _ZN13WP_Controller19SendProtocolMessageERK10WP_Message
08004660 T _ZN13WP_Controller19SendProtocolMessageEjjjPh
080097e4 T _ZN14HAL_COMPLETION14DequeueAndExecEv
080097d0 T _ZN14HAL_COMPLETION14InitializeListEv
08009898 T _ZN14HAL_COMPLETION17WaitForInterruptsEyjy
08009778 T _ZN14HAL_COMPLETION7ExecuteEv
0800d754 T _ZN14PalEventDriver10InitializeEv
200030b8 B _ZN14PalEventDriver13s_initializedE
08000b00 W _ZN15BitFieldManager17SetDirtySectorBitEj
080009b8 W _ZN15BitFieldManager20ResetBitFieldManagerEv
08000f8c W _ZN15BitFieldManager24InvalidateSectorBitFieldEv
080009fc W _ZN15BitFieldManager24ResetSignatureCheckArrayEv
08000fc8 W _ZN15BitFieldManager25EraseOnSignatureCheckFailEv
08000cb4 W _ZN15BitFieldManager27GetNextSectorSignatureCheckEP18BlockStorageDeviceR16SECTOR_BIT_FIELD
08004750 T _ZN16BlockStorageList10InitializeEv
20001fc0 B _ZN16BlockStorageList12s_deviceListE
08004a34 T _ZN16BlockStorageList13GetNextDeviceER18BlockStorageDevice
20001fd0 B _ZN16BlockStorageList13s_InitializedE
08004a08 T _ZN16BlockStorageList14GetFirstDeviceEv
20001fcc B _ZN16BlockStorageList15s_primaryDeviceE
08004780 T _ZN16BlockStorageList17InitializeDevicesEv
080048ec T _ZN16BlockStorageList28FindDeviceForPhysicalAddressEPP18BlockStorageDevicejRj
08004878 T _ZN16BlockStorageList9AddDeviceEP18BlockStorageDeviceP19IBlockStorageDevicePvj
08009988 T _ZN16HAL_CONTINUATION14InitializeListEv
080099e8 T _ZN16HAL_CONTINUATION19Dequeue_And_ExecuteEv
0800999c T _ZN16HAL_CONTINUATION7EnqueueEv
08009a64 W _ZN17HAL_DblLinkedListI16HAL_CONTINUATIONE10InitializeEv
08009b80 W _ZN17HAL_DblLinkedListI16HAL_CONTINUATIONE10LinkAtBackEPS0_
08009b54 W _ZN17HAL_DblLinkedListI16HAL_CONTINUATIONE16ExtractFirstNodeEv
08009b0c W _ZN17HAL_DblLinkedListI16HAL_CONTINUATIONE16InsertBeforeNodeEPS0_S2_
08009c14 W _ZN17HAL_DblLinkedListI16HAL_CONTINUATIONE6InsertEPS0_S2_S2_
0800d788 W _ZN17HAL_DblLinkedListI16PalEventListenerE10InitializeEv
080053f8 W _ZN17HAL_DblLinkedListI18BlockStorageDeviceE10InitializeEv
0800547c W _ZN17HAL_DblLinkedListI18BlockStorageDeviceE10LinkAtBackEPS0_
08005520 W _ZN17HAL_DblLinkedListI18BlockStorageDeviceE16InsertBeforeNodeEPS0_S2_
080055a0 W _ZN17HAL_DblLinkedListI18BlockStorageDeviceE6InsertEPS0_S2_S2_
08005cb4 W _ZN17HAL_DblLinkedNodeI16HAL_CONTINUATIONE10InitializeEv
08009bdc W _ZN17HAL_DblLinkedNodeI16HAL_CONTINUATIONE14RemoveFromListEv
08009ac4 W _ZN17HAL_DblLinkedNodeI16HAL_CONTINUATIONE6UnlinkEv
08005458 W _ZN17HAL_DblLinkedNodeI18BlockStorageDeviceE10InitializeEv
08005568 W _ZN17HAL_DblLinkedNodeI18BlockStorageDeviceE14RemoveFromListEv
0800b478 T _ZN17STM32_AITC_Driver10InitializeEv
20000000 D _ZN17STM32_AITC_Driver10s_IsrTableE
0800cb48 T _ZN17STM32_AITC_Driver14IRQToIRQVectorEj
0800cb88 T _ZN17STM32_AITC_Driver14STUB_ISRVectorEPv
0800b53c T _ZN17STM32_AITC_Driver17ActivateInterruptEjjPFvPvES0_
0800cb24 T _ZN17STM32_AITC_Driver20InterruptEnableStateEj
080003ec W _ZN18BlockStorageDevice13GetDeviceInfoEv
08000964 W _ZN18BlockStorageDevice13IsBlockErasedEjj
080046c4 W _ZN18BlockStorageDevice16InitializeDeviceEv
080046e8 W _ZN18BlockStorageDevice17FindForBlockUsageEjRjS0_S0_
0800471c W _ZN18BlockStorageDevice18FindNextUsageBlockEjRjS0_S0_
08000410 W _ZN18BlockStorageDevice21FindRegionFromAddressEjRjS0_
08000900 W _ZN18BlockStorageDevice4ReadEjjPh
08000930 W _ZN18BlockStorageDevice5WriteEjjPhj
08004a90 T _ZN18BlockStorageStream10InitializeEj
08004ab4 T _ZN18BlockStorageStream10InitializeEjP18BlockStorageDevice
08004d6c T _ZN18BlockStorageStream10NextStreamEv
08004b80 T _ZN18BlockStorageStream10PrevStreamEv
08004b60 T _ZN18BlockStorageStream14CurrentAddressEv
080050a0 T _ZN18BlockStorageStream4ReadEPPhj
08004f78 T _ZN18BlockStorageStream4SeekEiNS_10SeekOriginE
0800a038 T _ZN18STM32F10x_blDriver10EraseBlockEPvj
08009d98 T _ZN18STM32F10x_blDriver13GetDeviceInfoEPv
0800a008 T _ZN18STM32F10x_blDriver13IsBlockErasedEPvjj
0800a14c T _ZN18STM32F10x_blDriver13SetPowerStateEPvj
08009d68 T _ZN18STM32F10x_blDriver16InitializeDeviceEPv
08009fd0 T _ZN18STM32F10x_blDriver17GetSectorMetadataEPvjP14SectorMetadata
08009fec T _ZN18STM32F10x_blDriver17SetSectorMetadataEPvjP14SectorMetadata
0800a180 T _ZN18STM32F10x_blDriver18MaxBlockErase_uSecEPv
08009d80 T _ZN18STM32F10x_blDriver18UninitializeDeviceEPv
0800a160 T _ZN18STM32F10x_blDriver19MaxSectorWrite_uSecEPv
08009db4 T _ZN18STM32F10x_blDriver4ReadEPvjjPh
08009dd8 T _ZN18STM32F10x_blDriver5WriteEPvjjPhj
08009f04 T _ZN18STM32F10x_blDriver6MemsetEPvjhj
08009d1c T _ZN20FileSystemVolumeList10InitializeEv
08009d28 T _ZN20FileSystemVolumeList17InitializeVolumesEv
0800925c W _ZN21Hal_Queue_UnknownSizeIhE10InitializeEPhj
0800942c W _ZN21Hal_Queue_UnknownSizeIhE16NumberOfElementsEv
08009358 W _ZN21Hal_Queue_UnknownSizeIhE3PopERj
080091f8 W _ZN21Hal_Queue_UnknownSizeIhE3PopEv
08009298 W _ZN21Hal_Queue_UnknownSizeIhE4PushERj
080094b0 W _ZN21Hal_Queue_UnknownSizeIhE4PushEv
0800947c W _ZN21Hal_Queue_UnknownSizeIhE7IsEmptyEv
0800a330 T _ZN22STM32F10x_blDriver_nor10EraseBlockEPvj
0800a1cc T _ZN22STM32F10x_blDriver_nor13GetDeviceInfoEPv
0800a300 T _ZN22STM32F10x_blDriver_nor13IsBlockErasedEPvjj
0800a344 T _ZN22STM32F10x_blDriver_nor13SetPowerStateEPvj
0800a1a0 T _ZN22STM32F10x_blDriver_nor16InitializeDeviceEPv
0800a2c8 T _ZN22STM32F10x_blDriver_nor17GetSectorMetadataEPvjP14SectorMetadata
0800a2e4 T _ZN22STM32F10x_blDriver_nor17SetSectorMetadataEPvjP14SectorMetadata
0800a378 T _ZN22STM32F10x_blDriver_nor18MaxBlockErase_uSecEPv
0800a1b4 T _ZN22STM32F10x_blDriver_nor18UninitializeDeviceEPv
0800a358 T _ZN22STM32F10x_blDriver_nor19MaxSectorWrite_uSecEPv
0800a1e8 T _ZN22STM32F10x_blDriver_nor4ReadEPvjjPh
0800a21c T _ZN22STM32F10x_blDriver_nor5WriteEPvjjPhj
0800a260 T _ZN22STM32F10x_blDriver_nor6MemsetEPvjhj
080031a4 T _ZN26ConfigurationSectorManager17GetDeploymentKeysEj
08002d4c T _ZN26ConfigurationSectorManager17LoadConfigurationEv
080030dc T _ZN26ConfigurationSectorManager18UpdateSignatureKeyEjPh
08002db4 T _ZN26ConfigurationSectorManager18WriteConfigurationEjPhjj
08003030 T _ZN26ConfigurationSectorManager19CleanBootLoaderFlagEv
0800312c T _ZN26ConfigurationSectorManager19VerifiySignatureKeyEjPh
080031e8 T _ZN26ConfigurationSectorManager20GetTinyBooterVersionEv
08002f84 T _ZN26ConfigurationSectorManager20IsBootLoaderRequiredERi
08002f38 T _ZN26ConfigurationSectorManager21EraseWriteConfigBlockEPhj
08003070 T _ZN26ConfigurationSectorManager22CheckSignatureKeyEmptyEj
08002c0c T _ZN26ConfigurationSectorManager25LocateConfigurationSectorEj
0800b464 W _ZN5STM324AITCEv
080007a8 W _ZN9MFVersion4InitERS_tttt
080003c8 W _ZNK10BlockRange11IsBootstrapEv
0800085c W _ZNK10BlockRange13GetBlockCountEv
080046a8 W _ZNK10BlockRange13GetBlockUsageEv
08000828 W _ZNK10BlockRange8IsConfigEv
080096fc W _ZNK12HAL_CALLBACK13GetEntryPointEv
08009714 W _ZNK12HAL_CALLBACK7ExecuteEv
080052e0 T _ZNK15BlockDeviceInfo17FindForBlockUsageEjRjS0_S0_
08005324 T _ZNK15BlockDeviceInfo18FindNextUsageBlockEjRjS0_S0_
080051e0 T _ZNK15BlockDeviceInfo21FindRegionFromAddressEjRjS0_
08000880 W _ZNK15BlockRegionInfo12BlockAddressEj
080008a8 W _ZNK15BlockRegionInfo15OffsetFromBlockEj
080008d8 W _ZNK15BlockRegionInfo21BlockIndexFromAddressEj
0800973c W _ZNK16HAL_CONTINUATION13GetEntryPointEv
0800975c W _ZNK16HAL_CONTINUATION7ExecuteEv
08009c5c W _ZNK17HAL_DblLinkedListI16HAL_CONTINUATIONE14FirstValidNodeEv
08009bc4 W _ZNK17HAL_DblLinkedListI16HAL_CONTINUATIONE4HeadEv
08009ba4 W _ZNK17HAL_DblLinkedListI16HAL_CONTINUATIONE4TailEv
08009a94 W _ZNK17HAL_DblLinkedListI16HAL_CONTINUATIONE9FirstNodeEv
0800d7d8 W _ZNK17HAL_DblLinkedListI16PalEventListenerE4HeadEv
0800d7b8 W _ZNK17HAL_DblLinkedListI16PalEventListenerE4TailEv
080054a0 W _ZNK17HAL_DblLinkedListI18BlockStorageDeviceE14FirstValidNodeEv
08005508 W _ZNK17HAL_DblLinkedListI18BlockStorageDeviceE4HeadEv
080054e8 W _ZNK17HAL_DblLinkedListI18BlockStorageDeviceE4TailEv
08005428 W _ZNK17HAL_DblLinkedListI18BlockStorageDeviceE9FirstNodeEv
08009aac W _ZNK17HAL_DblLinkedNodeI16HAL_CONTINUATIONE4NextEv
08009c44 W _ZNK17HAL_DblLinkedNodeI16HAL_CONTINUATIONE4PrevEv
08005440 W _ZNK17HAL_DblLinkedNodeI18BlockStorageDeviceE4NextEv
080054d0 W _ZNK17HAL_DblLinkedNodeI18BlockStorageDeviceE4PrevEv
08000990 W _ZNK18BlockStorageDevice10EraseBlockEj
08013de0 t _ZZN13Loader_Engine18EnumerateAndLaunchEvE12MAX_PROGRAMS
08012eac T ___Unwind_Backtrace
08012e88 T ___Unwind_ForcedUnwind
08012e1c T ___Unwind_RaiseException
08012e40 T ___Unwind_Resume
08012e64 T ___Unwind_Resume_or_Rethrow
08011934 T __adddf3
08012154 T __aeabi_cdcmpeq
08012154 T __aeabi_cdcmple
08012144 T __aeabi_cdrcmple
080121c8 T __aeabi_d2iz
08011934 T __aeabi_dadd
08012164 T __aeabi_dcmpeq
080121a0 T __aeabi_dcmpge
080121b4 T __aeabi_dcmpgt
0801218c T __aeabi_dcmple
08012178 T __aeabi_dcmplt
08011eec T __aeabi_ddiv
08011c98 T __aeabi_dmul
08011928 T __aeabi_drsub
08011930 T __aeabi_dsub
08011bf0 T __aeabi_f2d
08011bcc T __aeabi_i2d
08011880 T __aeabi_idiv
08011924 T __aeabi_idiv0
08011914 T __aeabi_idivmod
08011c3c T __aeabi_l2d
08011924 T __aeabi_ldiv0
08011bac T __aeabi_ui2d
080117f8 T __aeabi_uidiv
08011870 T __aeabi_uidivmod
08011c2c T __aeabi_ul2d
08012218 T __aeabi_uldivmod
080126a0 T __aeabi_unwind_cpp_pr0
08012694 W __aeabi_unwind_cpp_pr1
08012688 W __aeabi_unwind_cpp_pr2
08010cd4 T __any_on
08010b4c T __b2d
080120cc T __cmpdf2
08010c8c T __copybits
         w __cxa_begin_cleanup
         w __cxa_call_unexpected
         w __cxa_type_match
08010d7c T __d2b
08011924 T __div0
08011eec T __divdf3
08013268 T __divdi3
08011880 T __divsi3
080120cc T __eqdf2
200030f0 B __exidx_end
200030f0 B __exidx_start
08011bf0 T __extendsfdf2
080121c8 T __fixdfsi
08011c3c T __floatdidf
08011bcc T __floatsidf
08011c2c T __floatundidf
08011bac T __floatunsidf
080120bc T __gedf2
080127d8 T __gnu_Unwind_Backtrace
         w __gnu_Unwind_Find_exidx
08012984 T __gnu_Unwind_ForcedUnwind
080129c8 T __gnu_Unwind_RaiseException
08012d3c T __gnu_Unwind_Restore_VFP
08012d4c T __gnu_Unwind_Restore_VFP_D
08012d5c T __gnu_Unwind_Restore_VFP_D_16_to_31
08012df4 T __gnu_Unwind_Restore_WMMXC
08012d6c T __gnu_Unwind_Restore_WMMXD
08012a5c T __gnu_Unwind_Resume
08012a44 T __gnu_Unwind_Resume_or_Rethrow
08012d44 T __gnu_Unwind_Save_VFP
08012d54 T __gnu_Unwind_Save_VFP_D
08012d64 T __gnu_Unwind_Save_VFP_D_16_to_31
08012e08 T __gnu_Unwind_Save_WMMXC
08012db0 T __gnu_Unwind_Save_WMMXD
08012260 T __gnu_ldivmod_helper
08012230 T __gnu_uldivmod_helper
08012f54 T __gnu_unwind_execute
0801323c T __gnu_unwind_frame
080123b8 t __gnu_unwind_pr_common
080120bc T __gtdf2
08010a08 T __hi0bits
080111a8 T __i2b
0801170c T __isinfd
08011730 T __isnand
080120c4 T __ledf2
08010a54 T __lo0bits
080103e0 T __locale_charset
08010f80 T __lshift
080120c4 T __ltdf2
200008c0 D __malloc_av_
200030c0 B __malloc_current_mallinfo
080109e4 T __malloc_lock
200030e8 B __malloc_max_sbrked_mem
200030ec B __malloc_max_total_mem
20000cc8 D __malloc_sbrk_base
200030bc B __malloc_top_pad
20000ccc D __malloc_trim_threshold
080109e8 T __malloc_unlock
08010abc T __mcmp
08010e60 T __mdiff
08014a40 T __mprec_bigtens
08014968 T __mprec_tens
08014a68 T __mprec_tinytens
08011c98 T __muldf3
080111c0 T __multadd
08011044 T __multiply
080120cc T __nedf2
08011264 T __pow5mult
08010be8 T __ratio
08012d24 T __restore_core_regs
0801131c T __s2b
080139e8 T __sigtramp
08013990 T __sigtramp_r
0800db68 t __sprint_r
08011930 T __subdf3
080135c0 T __udivdi3
080117f8 T __udivsi3
08010afc T __ulp
00000000 A __use_no_semihosting_swi
0801179c T _calloc_r
0800f304 T _dtoa_r
08014a90 T _exit
08010234 T _free_r
08014a90 T _getpid
08013a60 T _getpid_r
20000490 D _impure_ptr
0801397c T _init_signal
08013944 T _init_signal_r
08014a90 T _kill
08013a6c T _kill_r
080103ec T _localeconv_r
08010464 T _malloc_r
08010190 T _malloc_trim_r
08010c4c T _mprec_log10
080138d0 T _raise_r
080113b8 T _realloc_r
08014a90 T _sbrk
08011750 T _sbrk_r
08010404 T _setlocale_r
08013a00 T _signal_r
         U _start
0800dc9c T _svfprintf_r
0800dae0 T _vsnprintf_r
080138c0 T abort
080148b0 t blanks.3587
08014924 t charset
080082f4 T debug_printf
20002568 B errno
20000cd8 B g_BitFieldManager
20000cd0 B g_ConfigBuffer
20000cd4 B g_ConfigBufferLength
         U g_DebuggerPortSslConfig
20001fdc B g_Event_Callback
20001fe0 B g_Event_Callback_Arg
20001fe8 B g_Events_BoolTimerCompletion
200002d4 D g_GPIO_BUTTON_Config
20002e88 B g_HAL_Completion_List
20002e94 B g_HAL_Continuation_List
20000d14 B g_PrimaryConfigManager
20002ee0 B g_Time_Driver
20002ef0 B g_Timer_Driver
20001640 B g_eng
200025c0 B g_fDoNotUninitializeDebuggerPort
200030ac B g_palEventDriver
080126ac t get_eit_entry
20002014 B gpinIsr
20000498 d impure_data
20000458 D isErased
08008368 T lcd_printf
08014928 t lconv
080103f8 T localeconv
08010964 T memchr
0800d7f0 T memcmp
0800d848 T memcpy
0800d94c T memmove
0800d9ec T memset
00000000 a nFDPROT
00000000 a nFEPROT
00000000 a nFPROT0
00000000 a nFPROT1
00000000 a nFPROT2
00000000 a nFPROT3
08012ed0 t next_unwind_byte
08014a30 t p05.2435
20002010 B pinState
080035a0 T private_free
08003584 T private_malloc
0800f1b0 t quorem
0801392c T raise
08012d24 T restore_core_regs
08012774 t restore_non_core_regs
08012344 t search_EIT_table
08012330 t selfrel_offset31
08010448 T setlocale
08013a40 T signal
08011778 T strcmp
0801178c T strlen
0800da7c T strncpy
08012f28 t unwind_UCB_from_context
08012998 t unwind_phase2
08012878 t unwind_phase2_forced
0800db40 T vsnprintf
080148c0 t zeroes.3588
