08060ca8 t .LC0
0805f818 t .LC0
08060cc0 t .LC0
08060d48 t .LC0
08061510 t .LC0
08068450 t .LC0
0805f7b8 t .LC0
08060ef0 t .LC0
08061408 t .LC0
08060f20 t .LC0
080611e8 t .LC0
08061208 t .LC0
0805fb10 t .LC0
08060d88 t .LC0
08061380 t .LC0
080691f0 t .LC0
08060050 t .LC0
0805ff58 t .LC0
08061338 t .LC0
0806134c t .LC1
08067470 t .LC1
08060f00 t .LC1
08060054 t .LC1
08060d9c t .LC1
08061384 t .LC1
0805fb34 t .LC1
08061228 t .LC1
0805f7c4 t .LC1
08068534 t .LC1
08061518 t .LC1
08060d54 t .LC1
0805f828 t .LC1
08060cb0 t .LC1
0805f9a8 t .LC10
080600a4 t .LC10
080674b4 t .LC10
08060e30 t .LC10
08061614 t .LC10
080607a4 t .LC100
080607bc t .LC101
080607d0 t .LC102
080607e8 t .LC103
0805f9c8 t .LC11
080600a8 t .LC11
08060e3c t .LC11
08061664 t .LC11
080674bc t .LC11
08060e60 t .LC12
080674c4 t .LC12
080600ac t .LC12
0806168c t .LC12
0805f9e4 t .LC12
080600b0 t .LC13
0805fa18 t .LC13
0806169c t .LC13
080674dc t .LC13
08060e84 t .LC13
08060e9c t .LC14
080616b0 t .LC14
0805fa3c t .LC14
080600b4 t .LC14
08060eb4 t .LC15
080600b8 t .LC15
0805fa4c t .LC15
080616d4 t .LC15
080616f4 t .LC16
080600bc t .LC16
0805fa58 t .LC16
08060ec4 t .LC16
08060ed8 t .LC17
080600c0 t .LC17
08061714 t .LC17
080600c4 t .LC18
08061728 t .LC18
08061744 t .LC19
080600d0 t .LC19
0805fb54 t .LC2
08060058 t .LC2
08060db0 t .LC2
08067474 t .LC2
08061254 t .LC2
08061388 t .LC2
08060d64 t .LC2
0805f83c t .LC2
08061538 t .LC2
0806853c t .LC2
08061750 t .LC20
080600dc t .LC20
080600e8 t .LC21
08061768 t .LC21
08061788 t .LC22
080600f4 t .LC22
080617b0 t .LC23
08060100 t .LC23
080617e0 t .LC24
0806010c t .LC24
08061810 t .LC25
08060120 t .LC25
08061840 t .LC26
08060130 t .LC26
08061870 t .LC27
08060144 t .LC27
080618a0 t .LC28
0806014c t .LC28
08060158 t .LC29
080618d0 t .LC29
08060060 t .LC3
08061584 t .LC3
0805fb68 t .LC3
08060dc8 t .LC3
0806747c t .LC3
0806127c t .LC3
08060d70 t .LC3
0805f888 t .LC3
08061390 t .LC3
08060164 t .LC30
08061900 t .LC30
08060170 t .LC31
08061904 t .LC31
0806017c t .LC32
08061934 t .LC32
0806018c t .LC33
08061964 t .LC33
08061994 t .LC34
080601a0 t .LC34
080619c4 t .LC35
080601b8 t .LC35
080619e8 t .LC36
080601c8 t .LC36
08061a0c t .LC37
080601dc t .LC37
080601f0 t .LC38
08061a30 t .LC38
080601f4 t .LC39
08061a54 t .LC39
08061398 t .LC4
080615b4 t .LC4
0805f8d4 t .LC4
08067484 t .LC4
08060de4 t .LC4
080612bc t .LC4
08060068 t .LC4
0805fb78 t .LC4
08061a5c t .LC40
08060208 t .LC40
0806021c t .LC41
08061a78 t .LC41
08060220 t .LC42
08061aa0 t .LC42
08060238 t .LC43
08061ac0 t .LC43
08060244 t .LC44
08061adc t .LC44
08061afc t .LC45
08060258 t .LC45
08060284 t .LC46
08061b24 t .LC46
08061b44 t .LC47
080602b0 t .LC47
08061b68 t .LC48
080602cc t .LC48
08061b74 t .LC49
080602ec t .LC49
0806748c t .LC5
080612fc t .LC5
08060df0 t .LC5
0805fbb4 t .LC5
08060084 t .LC5
0805f920 t .LC5
080615c8 t .LC5
080613a0 t .LC5
08061b8c t .LC50
08060304 t .LC50
0806031c t .LC51
08061bcc t .LC51
08060334 t .LC52
08061bfc t .LC52
08061c1c t .LC53
08060350 t .LC53
08060374 t .LC54
08061c20 t .LC54
08061c24 t .LC55
08060388 t .LC55
08061c28 t .LC56
080603a0 t .LC56
08061c2c t .LC57
080603b8 t .LC57
080603d0 t .LC58
080603e4 t .LC59
080615d0 t .LC6
08060dfc t .LC6
0806008c t .LC6
08067494 t .LC6
0805f954 t .LC6
0805fbfc t .LC6
080603fc t .LC60
08060410 t .LC61
08060424 t .LC62
08060444 t .LC63
08060464 t .LC64
0806047c t .LC65
08060488 t .LC66
080604a0 t .LC67
080604b8 t .LC68
080604e0 t .LC69
080615d8 t .LC7
0805f964 t .LC7
0806749c t .LC7
08060e18 t .LC7
08060094 t .LC7
0805fc08 t .LC7
080604f8 t .LC70
0806051c t .LC71
08060530 t .LC72
08060544 t .LC73
08060550 t .LC74
0806056c t .LC75
08060588 t .LC76
080605a0 t .LC77
080605b0 t .LC78
080605c8 t .LC79
080674a4 t .LC8
0806009c t .LC8
080615dc t .LC8
08060e1c t .LC8
0805f988 t .LC8
080605e4 t .LC80
080605f8 t .LC81
08060610 t .LC82
08060620 t .LC83
08060638 t .LC84
08060650 t .LC85
0806066c t .LC86
08060684 t .LC87
08060698 t .LC88
080606b4 t .LC89
080615f0 t .LC9
0805f998 t .LC9
08060e24 t .LC9
080674ac t .LC9
080600a0 t .LC9
080606d0 t .LC90
080606ec t .LC91
08060708 t .LC92
0806071c t .LC93
08060730 t .LC94
08060744 t .LC95
0806075c t .LC96
0806076c t .LC97
08060778 t .LC98
0806078c t .LC99
0801577c T ADC1_2_IRQHandler
0801611c T ADC3_IRQHandler
0804ee78 T ADCCallback
2000033c d ADCPrescTable
0804f8a8 T ADC_Cmd
0804f958 T ADC_GetCalibrationStatus
0804fb98 T ADC_GetConversionValue
0804f900 T ADC_GetResetCalibrationStatus
0804f7e8 T ADC_Init
200004f8 D ADC_MODULE
0804f9c8 T ADC_RegularChannelConfig
0804f8e0 T ADC_ResetCalibration
0804f990 T ADC_SoftwareStartConvCmd
0804f938 T ADC_StartCalibration
2000032c d APBAHBPrescTable
08000000 T ARM_Vectors
00000000 a BUILD_RTM
00000000 a BUILD_RTM
00000000 a BUILD_RTM
00000000 a BUILD_RTM
00000000 a BUILD_RTM
000000aa a BackDoorK0
00000055 a BackDoorK1
00000011 a BackDoorK2
00000088 a BackDoorK3
000000ff a BackDoorK4
000000ff a BackDoorK5
000000ff a BackDoorK6
000000ff a BackDoorK7
0800dcd0 T BootEntry
f1e0f85f a BootRAM
0807b6e8 T Boot_Vectors
0800b81c T BootstrapCode
08015884 T CAN1_RX1_IRQHandler
080158dc T CAN1_SCE_IRQHandler
00000001 a COMPILE_THUMB2
00000001 a COMPILE_THUMB2
00000001 a COMPILE_THUMB2
00000001 a COMPILE_THUMB2
00000001 a COMPILE_THUMB2
200002f8 D COM_RX_PORT
200002f0 D COM_TX_PORT
200002e8 D COM_USART
20006b08 B CSMAInteropBuffer
08015514 T DMA1_Channel1_IRQHandler
0801556c T DMA1_Channel2_IRQHandler
080155c4 T DMA1_Channel3_IRQHandler
0801561c T DMA1_Channel4_IRQHandler
08015674 T DMA1_Channel5_IRQHandler
080156cc T DMA1_Channel6_IRQHandler
08015724 T DMA1_Channel7_IRQHandler
08016434 T DMA2_Channel1_IRQHandler
0801648c T DMA2_Channel2_IRQHandler
080164e4 T DMA2_Channel3_IRQHandler
0801653c T DMA2_Channel4_5_IRQHandler
0804fe1c T DefaultRadioInterruptHandler
0804fde8 T DefaultRecieveHandler
0804fe00 T DefaultSendAckHandler
08012b58 T Default_EXTI_Handler
080151c8 T Default_Handler
200004f4 D EMOTE_ADC_CHANNEL
08016594 T EXTI0_IRQHandler
08012afc T EXTI0_IRQ_HANDLER
08015eb4 T EXTI15_10_IRQHandler
08012d44 T EXTI15_10_IRQ_Handler
080153b4 T EXTI1_IRQHandler
08012aa4 T EXTI1_IRQ_HANDLER
0801540c T EXTI2_IRQHandler
08012b6c T EXTI2_IRQ_HANDLER
08015464 T EXTI3_IRQHandler
08012b9c T EXTI3_IRQ_HANDLER
080154bc T EXTI4_IRQHandler
08012bcc T EXTI4_IRQ_HANDLER
08015934 T EXTI9_5_IRQHandler
08012c24 T EXTI9_5_IRQ_HANDLER
2000042c D EXTILines
08016880 T EXTI_ClearITPendingBit
08016824 T EXTI_GetITStatus
080166d8 T EXTI_Init
080001f8 T EntryPoint
000000ff a FDPROT
000000ff a FEPROT
080152ec T FLASH_IRQHandler
0800b874 T FLASH_PrefetchBufferCmd
0800b830 T FLASH_SetLatency
0800b8b8 T FLASH_Unlock
000000ff a FOPT
000000ff a FPROT0
000000ff a FPROT1
000000ff a FPROT2
000000ff a FPROT3
000000fe a FSEC
08016174 T FSMC_IRQHandler
08016a14 T FSMC_NORSRAMCmd
080168a0 T FSMC_NORSRAMInit
08008ac0 T Fault_Handler_Display
20001930 B FriendlyNameString
0800bcc4 T GPIO_EXTILineConfig
0800b90c T GPIO_Init
20001d88 B GPIO_Instances
20000410 D GPIO_PORT_ARRAY
0800bba0 T GPIO_PinRemapConfig
0800baf8 T GPIO_ReadInputDataBit
0800bb34 T GPIO_ReadOutputDataBit
20001f48 B GPIO_Reserve
0800bacc T GPIO_StructInit
0800bb70 T GPIO_WriteBit
20002140 B HALTimerHandlerFPN
0800ab60 T HAL_Time_CurrentTicks
08008b30 T HARD_Breakpoint
08008b40 T HARD_Breakpoint_Handler
08060d30 T HalName
20000304 D HalSystemConfig
20001880 B Hal_Usart_State
080150d0 T HardFault_Handler
08015bf4 T I2C1_ER_IRQHandler
08015b9c T I2C1_EV_IRQHandler
08015ca4 T I2C2_ER_IRQHandler
08015c4c T I2C2_EV_IRQHandler
080530f4 T I2C_CheckEvent
08052fc8 T I2C_Cmd
08053010 T I2C_GenerateSTART
08053058 T I2C_GenerateSTOP
08052e04 T I2C_Init
080530bc T I2C_Send7bitAddress
080530a0 T I2C_SendData
0007b6d8 A Image$$ER_FLASH$$Length
20000000 N Image$$ER_RAM_RO$$Base
00000000 A Image$$ER_RAM_RO$$Length
20000000 D Image$$ER_RAM_RW$$Base
0000a564 A Image$$ER_RAM_RW$$Length
20000d50 B Image$$ER_RAM_RW$$ZI$$Base
00009814 A Image$$ER_RAM_RW$$ZI$$Length
2000c000 a InitStackTop
2000c000 a Initial_spTop
0800c994 T LED_ORANGE_OFF
20001020 B LOAD_IMAGE_CalcCRC
2000101c B LOAD_IMAGE_Length
20001018 B LOAD_IMAGE_Start
08000000 T Load$$ER_FLASH$$Base
0807b8c0 A Load$$ER_RAM_RO$$Base
0807b8c0 A Load$$ER_RAM_RW$$Base
200002d0 D MF_NODE_ID
20006acc B ManagedTimerDueTimeMicroSeconds
20006ac8 B ManagedTimerPeriodMicroSeconds
20006ad0 B ManagedTimerTicks
08014c8c T NOR_Init
0804c728 t NVIC_EnableIRQ
080184e0 T NVIC_PriorityGroupConfig
0804c760 t NVIC_SetPriority
0804c6d0 t NVIC_SetPriorityGrouping
08018508 T NVIC_SetVectorTable
0800a930 t NVIC_SystemReset
2000100c B OEM_Model_SKU
08069898 t PIo2
00000001 a PLATFORM_ARM_EmoteDotNow
00000001 a PLATFORM_ARM_EmoteDotNow
00000001 a PLATFORM_ARM_EmoteDotNow
00000001 a PLATFORM_ARM_EmoteDotNow
00000001 a PLATFORM_ARM_EmoteDotNow
00000001 a PLATFORM_ARM_STM32F10x
00000001 a PLATFORM_ARM_STM32F10x
00000001 a PLATFORM_ARM_STM32F10x
00000001 a PLATFORM_ARM_STM32F10x
00000001 a PLATFORM_ARM_STM32F10x
080151d8 T PVD_IRQHandler
08000328 T PrepareImageRegions
0807b6d8 T Prot_Bytes
0800c058 T RCC_ADCCLKConfig
0800c264 T RCC_AHBPeriphClockCmd
0800c314 T RCC_APB1PeriphClockCmd
0800c3c4 T RCC_APB1PeriphResetCmd
0800c2bc T RCC_APB2PeriphClockCmd
0800c36c T RCC_APB2PeriphResetCmd
0800bd7c T RCC_DeInit
0800c09c T RCC_GetClocksFreq
0800c41c T RCC_GetFlagStatus
0800bf6c T RCC_GetSYSCLKSource
0800bf88 T RCC_HCLKConfig
0800be18 T RCC_HSEConfig
0800be9c T RCC_HSICmd
08015350 T RCC_IRQHandler
0800bfcc T RCC_PCLK1Config
0800c010 T RCC_PCLK2Config
0800bf08 T RCC_PLLCmd
0800bebc T RCC_PLLConfig
0800bf28 T RCC_SYSCLKConfig
08015f0c T RTCAlarm_IRQHandler
08015294 T RTC_IRQHandler
08050c18 T Radio_Handler
20006ad8 B RealTimeCount
20006ac2 B RealTimeTimerTicks
200019b4 B RequestPacket
20006ae2 B RollOver
20006ae0 B RollOverCount
20006ac4 B RollOverTicks
20001480 B RxBuffer_Com
080161cc T SDIO_IRQHandler
08015cfc T SPI1_IRQHandler
08015d54 T SPI2_IRQHandler
0801627c T SPI3_IRQHandler
08016b98 T SPI_Cmd
08016a6c T SPI_I2S_DeInit
08016c60 T SPI_I2S_GetFlagStatus
08016bfc T SPI_I2S_ReceiveData
08016be0 T SPI_I2S_SendData
08016af4 T SPI_Init
20001f58 B SPI_InitStructure
20001f70 B SPI_Initialized
08016c18 T SPI_SSOutputCmd
20001f6c B SPI_mod
20000370 D STM32F10x_BlockDeviceInfo_ExternalFlash_NOR
20000344 D STM32F10x_BlockDeviceInfo_InternalFlash
200019e4 B STM32F10x_BlockStorageDevice_ExternalFlash_NOR
200019d4 B STM32F10x_BlockStorageDevice_InternalFlash
200003d8 D STM32F10x_IBlockStorageDevice_ExternalFlash_NOR
2000039c D STM32F10x_IBlockStorageDevice_InternalFlash
2000038c D STM32F10x_blConfig_ExternalFlash_NOR
20000360 D STM32F10x_blConfig_InternalFlash
20006ac0 B SingleShot
0809e90c R StackTop
20000fd0 B SystemEvents
0800df38 T SystemState_ClearNoLock
0800df84 T SystemState_QueryNoLock
0800deec T SystemState_SetNoLock
2000106c B SystemStates
0801523c T TAMPER_IRQHandler
00000001 a TARGETLOCATION_FLASH
00000001 a TARGETLOCATION_FLASH
00000001 a TARGETLOCATION_FLASH
00000001 a TARGETLOCATION_FLASH
00000001 a TARGETLOCATION_FLASH
0801598c T TIM1_BRK_IRQHandler
08015a94 T TIM1_CC_IRQHandler
08015a3c T TIM1_TRG_COM_IRQHandler
080159e4 T TIM1_UP_IRQHandler
080165ec T TIM2_IRQHandler
08015aec T TIM3_IRQHandler
08015b44 T TIM4_IRQHandler
08016224 T TIM5_IRQHandler
08016384 T TIM6_IRQHandler
080163dc T TIM7_IRQHandler
08015fbc T TIM8_BRK_IRQHandler
080160c4 T TIM8_CC_IRQHandler
0801606c T TIM8_TRG_COM_IRQHandler
08016014 T TIM8_UP_IRQHandler
08017374 T TIM_ClearFlag
080173fc T TIM_ClearITPendingBit
080171b0 T TIM_Cmd
08016ca0 T TIM_DeInit
08017244 T TIM_GenerateEvent
08017318 T TIM_GetCounter
08017334 T TIM_GetFlagStatus
08017398 T TIM_GetITStatus
080171f8 T TIM_ITConfig
08017070 T TIM_OC1Init
08017260 T TIM_OC1PreloadConfig
0801729c T TIM_SelectOnePulseMode
080172fc T TIM_SetCompare1
080172e0 T TIM_SetCounter
08016f50 T TIM_TimeBaseInit
08069630 t TWO52
0807b6d4 T TinyClr_Dat_End
08069c20 T TinyClr_Dat_Start
20001080 B TxBuffer_Com
080162d4 T UART4_IRQHandler
0801632c T UART5_IRQHandler
0800b1c8 T USART1_Handler
08015dac T USART1_IRQHandler
0800b368 T USART2_Handler
08015e04 T USART2_IRQHandler
08015e5c T USART3_IRQHandler
0800c74c T USART_Cmd
0800c4ac T USART_DeInit
0800c888 T USART_GetFlagStatus
0800c8c8 T USART_GetITStatus
0800c798 T USART_ITConfig
0800c584 T USART_Init
0800c864 T USART_ReceiveData
0800c840 T USART_SendData
08015f64 T USBWakeUp_IRQHandler
080157d4 T USB_HP_CAN1_TX_IRQHandler
0801582c T USB_LP_CAN1_RX0_IRQHandler
08060f38 T UsbDefaultConfiguration
08000430 T VectorRelocate
080696c0 t Zero
0805c2c0 T _Balloc
0805bf88 T _Bfree
0805eb88 T _Unwind_Backtrace
0805e080 T _Unwind_Complete
0805e084 T _Unwind_DeleteException
0805eb64 T _Unwind_ForcedUnwind
0805e07c T _Unwind_GetCFA
0805ebe4 T _Unwind_GetDataRelBase
0805dfa8 t _Unwind_GetGR
0805ebec t _Unwind_GetGR
0805ec10 T _Unwind_GetLanguageSpecificData
0805ec24 T _Unwind_GetRegionStart
0805ebdc T _Unwind_GetTextRelBase
0805eaf8 T _Unwind_RaiseException
0805eb1c T _Unwind_Resume
0805eb40 T _Unwind_Resume_or_Rethrow
0805dff0 t _Unwind_SetGR
0805df78 T _Unwind_VRS_Get
0805e774 T _Unwind_VRS_Pop
0805dfc0 T _Unwind_VRS_Set
0805df6c t _Unwind_decode_target2
08000b60 T _Z10ClrStartup12CLR_SETTINGS
0800a40c T _Z10Events_Getj
0800a3a4 T _Z10Events_Setj
08011854 T _Z10I2C_CancelP15I2C_HAL_XACTIONb
08014958 T _Z10Piezo_Tonejj
08013924 T _Z10RCC_Configv
0804cdd4 T _Z10RT_Disposev
0800e040 T _Z10USART_ReadiPcj
0800cc84 T _Z10hal_printfPKcz
080138b8 T _Z11GPIO_ConfigRK17SPI_CONFIGURATION
080122f0 T _Z11GPIO_GetPinj
08011838 T _Z11I2C_EnqueueP15I2C_HAL_XACTION
0804ee1c T _Z11ISR_adcProcP38CLR_RT_HeapBlock_NativeEventDispatcher
0801394c T _Z11NVIC_Configv
0800e064 T _Z11USART_Flushi
0800e01c T _Z11USART_WriteiPKcj
0800ccdc T _Z11hal_fprintfiPKcz
0800d818 T _Z11hal_stricmpPKcS0_
0800ccb0 T _Z11hal_vprintfPKcSt9__va_list
0800a46c T _Z12Events_Clearj
08012314 T _Z12GPIO_GetPortj
0800a908 T _Z12HAL_AssertExv
0801167c T _Z12HeapLocationRPhRj
0800a6f0 T _Z12LCD_GetWidthv
0800b6e8 T _Z12LowLevelInitv
0800b604 T _Z12SOCKETS_ReadiPcj
0800d6c0 T _Z12hal_snprintfPcjPKcz
0800d71c T _Z12hal_strcpy_sPcjPKc
0800d7d8 T _Z12hal_strlen_sPKc
0800cd0c T _Z12hal_vfprintfiPKcSt9__va_list
0804cb08 T _Z13AD_ADChannelsv
0804c7bc T _Z13AD_Initialize14ANALOG_CHANNELi
08011518 T _Z13BackLight_Setj
0804fbfc T _Z13DA_DAChannelsv
0804fbb4 T _Z13DA_Initialize10DA_CHANNELi
08011618 T _Z13FS_AddVolumesv
08011624 T _Z13FS_Initializev
0800a700 T _Z13LCD_GetHeightv
080436b8 T _Z13LinkArraySizev
0800a794 T _Z13MFUpdate_Openi
0800b620 T _Z13SOCKETS_Flushi
0800b5e8 T _Z13SOCKETS_WriteiPKcj
0800f3a4 T _Z13USB_ConfigureiPK25USB_DYNAMIC_CONFIGURATION
0800f4c0 T _Z13USB_GetStatusi
0800d774 T _Z13hal_strncpy_sPcjPKcj
0800d6f4 T _Z13hal_vsnprintfPcjPKcSt9__va_list
08018608 W _Z14CLR_DataFromTkj
0801bf44 T _Z14CLR_SoftRebootv
08018640 W _Z14CLR_TkFromType14CLR_TABLESENUMj
08018624 W _Z14CLR_TypeFromTkj
0800a960 T _Z14CPU_Initializev
0804fe6c T _Z14CPU_Radio_SendhPvt
08012e9c T _Z14CPU_SPI_Enablev
0801154c T _Z14Charger_StatusRj
0800db60 T _Z14HAL_Initializev
08011818 T _Z14I2C_Initializev
08011ca0 T _Z14Ink_Initializev
0800a6bc T _Z14LCD_Initializev
0804fd54 T _Z14MAC_InitializeP15MacEventHandlerPhhPv
0804fc50 T _Z14PWM_Initialize11PWM_CHANNEL
08013758 T _Z14SPI_StructInitRK17SPI_CONFIGURATION
080279e8 T _Z14SetResult_INT8R17CLR_RT_StackFramea
0800f4a0 T _Z14USB_ClearEventij
08010364 T _Z14USB_FindRecordP20USB_CONTROLLER_STATEhP16USB_SETUP_PACKET
0800f388 T _Z14USB_Initializei
0800f3fc T _Z14USB_OpenStreamiii
0804ca48 T _Z15AD_Uninitialize14ANALOG_CHANNEL
080115a0 T _Z15Battery_VoltageRi
0800732c T _Z15CLR_SafeSprintfRPcRjPKcz
08012f94 T _Z15CPU_SPI_GetPinsjRjS_S_
0800a9ec T _Z15CPU_SystemClockv
0800aa14 T _Z15CPU_TicksToTimey
08035ec8 T _Z15CompareResourcePKvS0_
0804fbd0 T _Z15DA_Uninitialize10DA_CHANNEL
08012358 T _Z15GPIO_GetPortPtrj
0804cd3c T _Z15InitializeTimerv
0800a7ac T _Z15MFUpdate_Createi
0804fd10 T _Z15PWM_PWMChannelsv
08027a0c T _Z15SetResult_INT32R17CLR_RT_StackFramei
08027a2c T _Z15SetResult_UINT8R17CLR_RT_StackFrameh
0800ca9c T _Z15Time_GetUtcTimev
0800ca6c T _Z15Time_Initializev
0800cab8 T _Z15Time_SetUtcTimexb
0800f420 T _Z15USB_CloseStreami
0800f4dc T _Z15USB_DiscardDataij
0800c9ac T _Z15Watchdog_EnablejPFvPvES_
080072b8 T _Z16CLR_SafeSprintfVRPcRjPKcSt9__va_list
08018818 W _Z16CLR_TkFromStreamRPKh
08013058 T _Z16CPU_SPI_ReadByteRK17SPI_CONFIGURATION
0800c9ec T _Z16CPU_USB_GetStatei
0800ca50 T _Z16CPU_USB_RxEnableP20USB_CONTROLLER_STATEi
0800a678 T _Z16FreeManagedEventhhtj
08012420 T _Z16GPIO_GetCallBackj
08012330 T _Z16GPIO_GetExtiLinej
0800a2ac T _Z16GetHalSystemInfoR13HalSystemInfo
08052120 T _Z16HALTimerCallbackPv
0800dc18 T _Z16HAL_Uninitializev
08011828 T _Z16I2C_Uninitializev
08011cb0 T _Z16Ink_Uninitializev
080436f8 T _Z16InterruptRecordsv
0800a6cc T _Z16LCD_Uninitializev
080436c8 T _Z16LinkMRUArraySizev
0800a81c T _Z16MFUpdate_InstalliPhi
0804fc6c T _Z16PWM_Uninitialize11PWM_CHANNEL
080436d8 T _Z16PayloadArraySizev
08014940 T _Z16Piezo_Initializev
08045ff8 T _Z16PostManagedEventhhtj
08027a50 T _Z16SetResult_UINT16R17CLR_RT_StackFramet
08027a74 T _Z16SetResult_doubleR17CLR_RT_StackFramed
0800cb90 T _Z16Time_DaysInMonthiiPi
0800dfd0 T _Z16USART_Initializeiiiiii
0800f3e0 T _Z16USB_Uninitializei
0800c9c8 T _Z16Watchdog_Disablev
08051074 T _Z16csmaMacSchedulerPv
0801bf68 T _Z17CLR_DebuggerBreakv
08012ffc T _Z17CPU_SPI_WriteByteRK17SPI_CONFIGURATIONh
0800b13c T _Z17CPU_USART_GetPinsiRjS_S_S_
08009e28 T _Z17DebuggerPort_ReadiPcj
0800a364 T _Z17Events_Initializev
0800a4b4 T _Z17Events_MaskedReadj
08012380 T _Z17GPIO_GetIRQNumberj
0804d240 T _Z17GenerateInterruptRi
080436e8 T _Z17InlineBufferCountv
0800a800 T _Z17MFUpdate_ValidateiPhi
0804fdc4 T _Z17Mac_GetBufferSizeh
0800caec T _Z17Time_GetLocalTimev
0800cb3c T _Z17Time_ToSystemTimexP10SYSTEMTIME
0800ca84 T _Z17Time_Uninitializev
0804cda8 T _Z17UnInitializeTimerv
0800c9d4 T _Z17Watchdog_ResetCpuv
08011580 T _Z18Battery_Initializev
08009b88 T _Z18Buttons_Initializev
0801873c W _Z18CLR_UncompressDataRPKh
08012e20 T _Z18CPU_SPI_Initializev
08012fec T _Z18CPU_SPI_PortsCountv
0800aa00 T _Z18CPU_TicksPerSecondv
0800ca04 T _Z18CPU_USB_Initializei
0801152c T _Z18Charger_Initializev
08014c64 T _Z18CustomHeapLocationRPhRj
08009eac T _Z18DebuggerPort_Flushi
08009d08 T _Z18DebuggerPort_WriteiPKcj
0801165c T _Z18Gesture_Initializev
0804d278 T _Z18ISR_PendSV_HandlerPv
0804d294 T _Z18ISR_REALTIME_TIMERPv
0800a720 T _Z18LCD_GetOrientationv
0800a7e0 T _Z18MFUpdate_AddPacketiiPhiS_i
0800b598 T _Z18Network_Initializev
0801494c T _Z18Piezo_Uninitializev
0800b5b8 T _Z18SOCKETS_Initializei
0800b664 T _Z18SOCKETS_IsUsingSsli
08007cdc T _Z18SUPPORT_ComputeCRCPKvij
0804d668 T _Z18SetResult_UNST_RawR17CLR_RT_StackFrameP16CLR_RT_HeapBlockhh
080149d0 T _Z18SimpleHeap_ReleasePv
0800e000 T _Z18USART_Uninitializei
0804fd3c T _Z18VirtualKey_GetPinsj
08050ff0 T _Z18csmaRecieveHandlerPvt
0805101c T _Z18csmaSendAckHandlerPvt11NetOpStatus
0800ce18 T _Z18hal_snprintf_floatPcjPKcf
0804cb18 T _Z19AD_GetPinForChannel14ANALOG_CHANNEL
080115c0 T _Z19Battery_TemperatureRi
08012630 T _Z19CPU_GPIO_Attributesj
08012a00 T _Z19CPU_GPIO_GetPinsMapPhj
080124dc T _Z19CPU_GPIO_Initializev
08012920 T _Z19CPU_GPIO_ReservePinjj
0800b67c T _Z19CPU_INTC_Initializev
0800ca34 T _Z19CPU_USB_StartOutputP20USB_CONTROLLER_STATEi
0804fc0c T _Z19DA_GetPinForChannel10DA_CHANNEL
0800a624 T _Z19Events_SetBoolTimerPjj
0800a38c T _Z19Events_Uninitializev
0800d914 T _Z19HAL_EnterBooterModev
0800ab50 T _Z19HAL_Time_Initializev
0800abac T _Z19HAL_Time_SetComparey
0800a710 T _Z19LCD_GetBitsPerPixelv
0800a73c T _Z19MFUpdate_InitUpdatePKcR14MFUpdateHeader
0800a730 T _Z19MFUpdate_Initializev
0804db04 T _Z19ManagedCSMACallbackPvt
08014920 T _Z19PalEvent_Initializev
08014b44 T _Z19SimpleHeap_Allocatej
0800cbbc T _Z19Time_AccDaysInMonthiiPi
0800cb68 T _Z19Time_FromSystemTimePK10SYSTEMTIME
0800cb20 T _Z19Time_GetMachineTimev
0800e0d0 T _Z19USART_BytesInBufferij
0800e0c4 T _Z19USART_CloseAllPortsv
0800e0f0 T _Z19USART_DiscardBufferij
0800cc18 T _Z19Utility_SafeSprintfRPcRjPKcz
0800d220 T _Z19hal_snprintf_doublePcjPKcd
080114fc T _Z20BackLight_Initializev
08011590 T _Z20Battery_Uninitializev
08009b98 T _Z20Buttons_Uninitializev
0800a96c T _Z20CPU_ChangePowerLevel11POWER_LEVEL
080129c4 T _Z20CPU_GPIO_GetDebouncev
080129f0 T _Z20CPU_GPIO_GetPinCountv
08012854 T _Z20CPU_GPIO_GetPinStatej
080129d4 T _Z20CPU_GPIO_SetDebouncex
080128cc T _Z20CPU_GPIO_SetPinStatejj
0804fe34 T _Z20CPU_Radio_InitializeP17RadioEventHandlerPhhh
08012e4c T _Z20CPU_SPI_Uninitializev
08013440 T _Z20CPU_SPI_Xaction_StopRK17SPI_CONFIGURATION
08013f18 T _Z20CPU_TIMER_InitializejjjjPFvPvES_
08013f90 T _Z20CPU_TIMER_SetComparejj
0800adc0 T _Z20CPU_USART_Initializeiiiiii
0800b12c T _Z20CPU_USART_PortsCountv
0800ca1c T _Z20CPU_USB_Uninitializei
0801153c T _Z20Charger_Uninitializev
08000d4c W _Z20Events_WaitForEventsjj
0800a4d8 T _Z20Events_WaitForEventsjjj
0801166c T _Z20Gesture_Uninitializev
0800d8d4 W _Z20HAL_Init_Custom_Heapv
0800ab98 T _Z20HAL_Time_CurrentTimev
0800ab74 T _Z20HAL_Time_TicksToTimey
08017494 T _Z20I2C_Internal_GetPinsRjS_
080118c0 T _Z20I2C_XAction_SetStateP15I2C_HAL_XACTIONh
080278fc T _Z20Interop_Marshal_INT8RK17CLR_RT_StackFramejRa
0800a758 T _Z20MFUpdate_AuthCommandijPhiS_Ri
0800b5a8 T _Z20Network_Uninitializev
0804fd20 T _Z20PWM_GetPinForChannel11PWM_CHANNEL
0800b5d0 T _Z20SOCKETS_Uninitializei
0800b644 T _Z20SOCKETS_UpgradeToSsliPKhjS0_jPKc
0804ccbc T _Z20SSL_ParseCertificatePKcjS0_P13_X509CertData
0800f3c4 T _Z20USB_GetConfigurationi
0800cbe8 T _Z20Utility_SafeSprintfVRPcRjPKcSt9__va_list
0804cb5c T _Z21ADC_RCC_Configurationv
080003a4 T _Z21ApplicationEntryPointv
08011608 T _Z21Battery_Configurationv
080115e8 T _Z21Battery_StateOfChargeRh
08012564 T _Z21CPU_GPIO_Uninitializev
08013174 T _Z21CPU_SPI_ReadWriteByteRK17SPI_CONFIGURATIONh
080130d8 T _Z21CPU_SPI_WriteReadByteRK17SPI_CONFIGURATIONh
0801336c T _Z21CPU_SPI_Xaction_StartRK17SPI_CONFIGURATION
08027cbc T _Z21GetAssemblyNativeDataPKc
0800dbd8 T _Z21HAL_UnReserveAllGpiosv
08027930 T _Z21Interop_Marshal_INT32RK17CLR_RT_StackFramejRi
08027860 T _Z21Interop_Marshal_UINT8RK17CLR_RT_StackFramejRh
0800a778 T _Z21MFUpdate_AuthenticateiPhi
08014930 T _Z21PalEvent_Uninitializev
08014974 T _Z21SimpleHeap_InitializePvj
080104c0 T _Z21UsbConfigurationCheckPK25USB_DYNAMIC_CONFIGURATION
0800c9e0 T _Z21Watchdog_ResetCounterv
0804cbd0 T _Z22ADC_GPIO_Configurationv
0804cb84 T _Z22ADC_NVIC_Configurationv
0801150c T _Z22BackLight_Uninitializev
080132bc T _Z22CPU_SPI_nWrite8_nRead8RK17SPI_CONFIGURATIONPhiS2_ii
0800aea0 T _Z22CPU_USART_Uninitializei
0801156c T _Z22Charger_SetTemperatures
08011940 T _Z22I2C_XActionUnit_IsReadP20I2C_HAL_XACTION_UNIT
080118e0 T _Z22I2C_XAction_CheckStateP15I2C_HAL_XACTIONh
08027894 T _Z22Interop_Marshal_UINT16RK17CLR_RT_StackFramejRt
080278c8 T _Z22Interop_Marshal_UINT32RK17CLR_RT_StackFramejRj
0800a6dc T _Z22LCD_WriteFormattedCharh
0804fc88 T _Z22PWM_ApplyConfiguration11PWM_CHANNELjRjS0_R16PWM_SCALE_FACTORj
0801819c T _Z22TimeService_Initializev
0800cb08 T _Z22Time_GetTimeZoneOffsetv
0800e10c T _Z22USART_ConnectEventSinkiiPvPFvS_jEPS_
0800f378 T _Z22USB_GetControllerCountv
08010b30 T _Z22Watchdog_GetSetEnabledjj
08010b50 T _Z22Watchdog_GetSetTimeoutij
08010b94 T _Z22Watchdog_LastOccurenceRxS_RjS0_j
080114b4 T _Z23BlockStorage_AddDevicesv
08018688 W _Z23CLR_UncompressTypeTokenj
080126b0 T _Z23CPU_GPIO_EnableInputPinjjPFvjjPvE13GPIO_INT_EDGE13GPIO_RESISTOR
0800ab2c T _Z23CPU_MicrosecondsToTicksj
0800aaf0 T _Z23CPU_MicrosecondsToTicksy
0800aa6c T _Z23CPU_MillisecondsToTicksj
0800aee0 T _Z23CPU_USART_TxBufferEmptyi
0804d7c8 T _Z23Cleanup_CSMA_MAC_DriverP38CLR_RT_HeapBlock_NativeEventDispatcher
08009ba8 T _Z23DebuggerPort_Initializei
0800a028 T _Z23DebuggerPort_IsUsingSsli
0804d21c T _Z23GeneratePendSVInterruptv
08013fd4 T _Z23HALTimerHardwareHandlerPv
08017438 T _Z23I2C_Internal_Initializev
0804d6bc T _Z23SetResult_UNST_NeighborR17CLR_RT_StackFrameP16CLR_RT_HeapBlock
080003e8 T _Z23Solution_GetReleaseInfoR13MfReleaseInfo
0800cc58 T _Z23Time_TimeSpanToStringExRKxRPcRj
0800e080 T _Z23USART_AddCharToRxBufferic
08010b70 T _Z23Watchdog_GetSetBehavior17Watchdog_Behaviorj
080186c4 W _Z24CLR_UncompressFieldTokenj
080126e0 T _Z24CPU_GPIO_EnableInputPin2jjPFvjjPvES_13GPIO_INT_EDGE13GPIO_RESISTOR
08012648 T _Z24CPU_GPIO_EnableOutputPinjj
08017420 T _Z24CPU_GetUncachableAddressj
0801320c T _Z24CPU_SPI_nWrite16_nRead16RK17SPI_CONFIGURATIONPtiS2_ii
08017470 T _Z24I2C_Internal_XActionStopv
0800b638 T _Z24SOCKETS_CloseConnectionsv
080181ac T _Z24TimeService_UnInitializev
0801bf20 T _Z25CLR_RetrieveCurrentMethodRjS_
080187f4 W _Z25CLR_UncompressElementTypeRPKh
08018700 W _Z25CLR_UncompressMethodTokenj
08018668 W _Z25CLR_UncompressStringTokenj
0800a9dc T _Z25CPU_IsSoftRebootSupportedv
08009c8c T _Z25DebuggerPort_Uninitializei
08009f50 T _Z25DebuggerPort_UpgradeToSslij
08011874 T _Z25I2C_InitializeTransactionP15I2C_HAL_XACTIONR22I2C_USER_CONFIGURATIONPP20I2C_HAL_XACTION_UNITj
0801747c T _Z25I2C_Internal_GetClockRatejRhS_
08017448 T _Z25I2C_Internal_Uninitializev
08017458 T _Z25I2C_Internal_XActionStartP15I2C_HAL_XACTIONb
0804218c T _Z25SaveNativeEventToHALQueueP38CLR_RT_HeapBlock_NativeEventDispatcherjj
08051048 T _Z25csmaRadioInterruptHandler14RadioInterruptPv
0800b688 T _Z26CPU_INTC_ActivateInterruptjPFvPvES_
08011920 T _Z26I2C_XActionUnit_CopyBufferP20I2C_HAL_XACTION_UNITPhj
0804d774 T _Z26Initialize_CSMA_MAC_DriverP38CLR_RT_HeapBlock_NativeEventDispatchery
0800a7c4 T _Z26MFUpdate_GetMissingPacketsiPjPi
0804dad4 T _Z26ManagedCSMASendAckCallbackPvt11NetOpStatus
0800a060 T _Z27CPU_InitializeCommunicationv
08009f18 T _Z27DebuggerPort_IsSslSupportedi
0800abc8 T _Z27HAL_Time_GetDriftParametersPiS_Px
0800abfc T _Z27HAL_Time_Sleep_MicroSecondsj
08011904 T _Z27I2C_XAction_TransactedBytesP15I2C_HAL_XACTION
08027988 T _Z27Interop_Marshal_UINT8_ARRAYRK17CLR_RT_StackFramejR17CLR_RT_TypedArrayIhE
0804cca4 T _Z27LargeBuffer_ManagedToNativetPKhj
0804cc8c T _Z27LargeBuffer_NativeToManagedtPhj
0800b6b0 T _Z28CPU_INTC_DeactivateInterruptj
080279b8 T _Z28Interop_Marshal_UINT16_ARRAYRK17CLR_RT_StackFramejR17CLR_RT_TypedArrayItE
0804d698 T _Z28SetResult_UNST_NeighborTableR17CLR_RT_StackFrameP16CLR_RT_HeapBlock
08037714 W _Z28TINYCLR_READ_UNALIGNED_INT16IiEvRT_RPKh
080371bc W _Z28TINYCLR_READ_UNALIGNED_INT32IiEvRT_RPKh
08037264 W _Z28TINYCLR_READ_UNALIGNED_INT64IxEvRT_RPKh
0800e0a4 T _Z28USART_RemoveCharFromTxBufferiRc
0800b6cc T _Z29CPU_INTC_InterruptEnableStatej
0800b16c T _Z29CPU_USART_GetBaudrateBoundaryiRjS_
0800b194 T _Z29CPU_USART_IsBaudrateSupportediRj
0800af90 T _Z29CPU_USART_WriteCharToTxBufferih
0800a180 T _Z29CPU_UninitializeCommunicationv
0804d7ac T _Z29EnableDisable_CSMA_MAC_DriverP38CLR_RT_HeapBlock_NativeEventDispatcherb
08011898 T _Z29I2C_InitializeTransactionUnitP20I2C_HAL_XACTION_UNITPhS1_jj
08037030 t _Z29Interop_Marshal_NUMERIC_ARRAYIhEiRK17CLR_RT_StackFramejRPT_Rjj
080370cc t _Z29Interop_Marshal_NUMERIC_ARRAYItEiRK17CLR_RT_StackFramejRPT_Rjj
0804e448 T _Z29ManagedRadioCallback_802_15_4Pvt
0803716c W _Z29TINYCLR_READ_UNALIGNED_UINT16IjEvRT_RPKh
08037480 W _Z29TINYCLR_READ_UNALIGNED_UINT32IjEvRT_RPKh
08037514 W _Z29TINYCLR_READ_UNALIGNED_UINT64IyEvRT_RPKh
08013610 T _Z30CPU_SPI_Xaction_nWrite8_nRead8R13SPI_XACTION_8
0800af38 T _Z30CPU_USART_TxShiftRegisterEmptyi
080421ac T _Z31CleanupNativeEventsFromHALQueueP38CLR_RT_HeapBlock_NativeEventDispatcher
0804cc70 T _Z31LargeBuffer_GetNativeBufferSizet
0804feac T _Z32CPU_Radio_ClearChannelAssesment2hj
080134ac T _Z32CPU_SPI_Xaction_nWrite16_nRead16R14SPI_XACTION_16
08027964 T _Z32Interop_Marshal_UNSUPPORTED_TYPERK17CLR_RT_StackFramejRP16CLR_RT_HeapBlock
0800b114 T _Z33CPU_USART_TxHandshakeEnabledStatei
08012a4c T _Z34CPU_GPIO_GetSupportedResistorModesj
0804cb34 T _Z35AD_GetAvailablePrecisionsForChannel14ANALOG_CHANNELPiRj
08012a8c T _Z35CPU_GPIO_GetSupportedInterruptModesj
0804fc28 T _Z35DA_GetAvailablePrecisionsForChannel10DA_CHANNELPiRj
0800b154 T _Z36CPU_USART_SupportNonStandardBaudRatei
0800b08c T _Z37CPU_USART_RxBufferFullInterruptEnableij
0800b034 T _Z37CPU_USART_TxBufferEmptyInterruptStatei
08027a94 T _Z37Interop_Marshal_RetrieveManagedObjectR17CLR_RT_StackFrame
0800afe0 T _Z38CPU_USART_TxBufferEmptyInterruptEnableij
0800ac14 T _Z44HAL_Time_Sleep_MicroSeconds_InterruptEnabledj
0804caa0 T _Z7AD_Read14ANALOG_CHANNEL
0800ac2c T _Z7COMInitiP17USART_InitTypeDef
0800a9c0 T _Z8CPU_Haltv
0804fbe4 T _Z8DA_Write10DA_CHANNELi
0804fd88 T _Z8Mac_SendhthPvt
0804fcc4 T _Z8PWM_Stop11PWM_CHANNELj
0804fcf8 T _Z8PWM_StopP11PWM_CHANNELPjj
0800f460 T _Z8USB_ReadiPcj
0800a9cc T _Z9CPU_Resetv
0800a9a4 T _Z9CPU_Sleep11SLEEP_LEVELy
0804fca8 T _Z9PWM_Start11PWM_CHANNELj
0804fcdc T _Z9PWM_StartP11PWM_CHANNELPjj
0804cdf4 T _Z9RT_Changejj
0800f484 T _Z9USB_Flushi
0800f43c T _Z9USB_WriteiPKcj
08060d24 t _ZL10COM_RX_PIN
08060d20 t _ZL10COM_TX_PIN
0800360c t _ZL10FillValuesP16CLR_RT_HeapBlockRPN16CLR_DBG_Commands15Debugging_ValueEjS0_P23CLR_RT_TypeDef_Instance
080608a8 t _ZL10c_CRCTable
20006ab8 b _ZL10g_UserData
08060d2c t _ZL11COM_CTS_PIN
08060d28 t _ZL11COM_RTS_PIN
0800d908 t _ZL12InitCRuntimev
08000210 t _ZL12Prepare_CopyPjS_j
080002ac t _ZL12Prepare_ZeroPjj
08005460 t _ZL13Assign_HelperP16CLR_RT_HeapBlockS0_
08060d08 t _ZL13COM_USART_CLK
08044830 t _ZL13ComputeSinCosR17CLR_RT_StackFrameb
08068424 t _ZL13c_WhiteSpaces
20006cd0 b _ZL13g_adcUserData
080688c4 t _ZL13method_lookup
08068de4 t _ZL13method_lookup
080685ec t _ZL13method_lookup
0806913c t _ZL13method_lookup
08069318 t _ZL13method_lookup
08068f74 t _ZL13method_lookup
0806758c t _ZL13method_lookup
08069520 t _ZL13method_lookup
080693f0 t _ZL13method_lookup
20000d50 b _ZL13s_ClrSettings
20000d5c b _ZL13s_missingPkts
0805fa68 t _ZL14CLR_EmptyIndex
08068d40 t _ZL14CLR_EmptyIndex
08068548 t _ZL14CLR_EmptyIndex
0805ff68 t _ZL14CLR_EmptyIndex
08062600 t _ZL14CLR_EmptyIndex
080607f8 t _ZL14CLR_EmptyIndex
08069268 t _ZL14CLR_EmptyIndex
0805fc18 t _ZL14CLR_EmptyIndex
08069098 t _ZL14CLR_EmptyIndex
08068468 t _ZL14CLR_EmptyIndex
0805feb0 t _ZL14CLR_EmptyIndex
08068ed0 t _ZL14CLR_EmptyIndex
08068820 t _ZL14CLR_EmptyIndex
08069390 t _ZL14CLR_EmptyIndex
080674e8 t _ZL14CLR_EmptyIndex
0805ff6c t _ZL14CLR_EmptyToken
0806909c t _ZL14CLR_EmptyToken
0805feb4 t _ZL14CLR_EmptyToken
0805fc1c t _ZL14CLR_EmptyToken
080607fc t _ZL14CLR_EmptyToken
0806854c t _ZL14CLR_EmptyToken
0805fa6c t _ZL14CLR_EmptyToken
0806846c t _ZL14CLR_EmptyToken
08068d44 t _ZL14CLR_EmptyToken
08068ed4 t _ZL14CLR_EmptyToken
08062604 t _ZL14CLR_EmptyToken
08068824 t _ZL14CLR_EmptyToken
08069394 t _ZL14CLR_EmptyToken
080674ec t _ZL14CLR_EmptyToken
0806926c t _ZL14CLR_EmptyToken
08062658 t _ZL14MAXHOSTNAMELEN
0805ffc0 t _ZL14MAXHOSTNAMELEN
08067540 t _ZL14MAXHOSTNAMELEN
080690f0 t _ZL14MAXHOSTNAMELEN
0805fac0 t _ZL14MAXHOSTNAMELEN
080693e8 t _ZL14MAXHOSTNAMELEN
08068878 t _ZL14MAXHOSTNAMELEN
0805fc70 t _ZL14MAXHOSTNAMELEN
080692c0 t _ZL14MAXHOSTNAMELEN
08068f28 t _ZL14MAXHOSTNAMELEN
0805ff08 t _ZL14MAXHOSTNAMELEN
080685a0 t _ZL14MAXHOSTNAMELEN
080684c0 t _ZL14MAXHOSTNAMELEN
08068d98 t _ZL14MAXHOSTNAMELEN
08060850 t _ZL14MAXHOSTNAMELEN
08060854 t _ZL14MAXTYPENAMELEN
080684c4 t _ZL14MAXTYPENAMELEN
0805ff0c t _ZL14MAXTYPENAMELEN
080685a4 t _ZL14MAXTYPENAMELEN
0805fc74 t _ZL14MAXTYPENAMELEN
08068d9c t _ZL14MAXTYPENAMELEN
080692c4 t _ZL14MAXTYPENAMELEN
08068f2c t _ZL14MAXTYPENAMELEN
08067544 t _ZL14MAXTYPENAMELEN
080690f4 t _ZL14MAXTYPENAMELEN
080693ec t _ZL14MAXTYPENAMELEN
0805ffc4 t _ZL14MAXTYPENAMELEN
0806265c t _ZL14MAXTYPENAMELEN
0806887c t _ZL14MAXTYPENAMELEN
0805fac4 t _ZL14MAXTYPENAMELEN
0804a228 t _ZL14PostUsartEventPvj
080046a4 t _ZL14SetBlockHelperP16CLR_RT_HeapBlock12CLR_DataTypePh
08060f18 t _ZL14XOFF_FLAG_FULL
08060d18 t _ZL15COM_RX_PORT_CLK
08060d10 t _ZL15COM_TX_PORT_CLK
20001014 b _ZL15LoggingCallback
08060f19 t _ZL15XOFF_CLOCK_HALT
08060044 t _ZL15c_Messaging_app
0806003c t _ZL15c_Messaging_phy
20001008 b _ZL15stm_power_state
0804eddc t _ZL16CleanupADCDriverP38CLR_RT_HeapBlock_NativeEventDispatcher
080460ac t _ZL16CleanupEventSinkP38CLR_RT_HeapBlock_NativeEventDispatcher
0800463c t _ZL16IsBlockEnumMaybeP16CLR_RT_HeapBlock
08060f10 t _ZL16MAX_SD_CARD_SIZE
08061150 t _ZL16MAX_SD_CARD_SIZE
08061148 t _ZL16MAX_SD_CARD_SIZE
08069598 t _ZL16MAX_SD_CARD_SIZE
080608a0 t _ZL16MAX_SD_CARD_SIZE
08060cb8 t _ZL16MAX_SD_CARD_SIZE
0805fea8 t _ZL16MAX_SD_CARD_SIZE
08069090 t _ZL16MAX_SD_CARD_SIZE
08068818 t _ZL16MAX_SD_CARD_SIZE
08068ec8 t _ZL16MAX_SD_CARD_SIZE
08068d38 t _ZL16MAX_SD_CARD_SIZE
080674e0 t _ZL16MAX_SD_CARD_SIZE
08060d40 t _ZL16MAX_SD_CARD_SIZE
08060d00 t _ZL16MAX_SD_CARD_SIZE
08060d80 t _ZL16MAX_SD_CARD_SIZE
080611c0 t _ZL16MAX_SD_CARD_SIZE
08060ee8 t _ZL16MAX_SD_CARD_SIZE
08060cf8 t _ZL16MAX_SD_CARD_SIZE
0805fa60 t _ZL16MAX_SD_CARD_SIZE
0805ff60 t _ZL16MAX_SD_CARD_SIZE
080625f8 t _ZL16MAX_SD_CARD_SIZE
08068460 t _ZL16MAX_SD_CARD_SIZE
08069518 t _ZL16MAX_SD_CARD_SIZE
08060f30 t _ZL16MAX_SD_CARD_SIZE
080607f0 t _ZL16MAX_SD_CARD_SIZE
0805f810 t _ZL16MAX_SD_CARD_SIZE
08061200 t _ZL16MAX_SD_CARD_SIZE
08068540 t _ZL16MAX_SD_CARD_SIZE
08061418 t _ZL16MAX_SD_CARD_SIZE
080613c8 t _ZL16MAX_SD_CARD_SIZE
08061378 t _ZL16MAX_SD_CARD_SIZE
08069260 t _ZL16MAX_SD_CARD_SIZE
08061320 t _ZL16MAX_SD_CARD_SIZE
08069388 t _ZL16MAX_SD_CARD_SIZE
0805fc10 t _ZL16MAX_SD_CARD_SIZE
20002144 b _ZL16g_s_FirstCluster
20001028 b _ZL16s_rebootHandlers
0805fcc0 t _ZL17AccessMemory_Read
08002c64 t _ZL17GetClrReleaseInfoRN16CLR_DBG_Commands40Debugging_Execution_QueryCLRCapabilities7ClrInfoE
0800b784 t _ZL17RCC_Configurationv
0806836c t _ZL17c_ExceptionLookup
08066f90 t _ZL17c_TypeIndexLookup
0805fcbc t _ZL18AccessMemory_Check
0805fcc8 t _ZL18AccessMemory_Erase
0805fcc4 t _ZL18AccessMemory_Write
08062660 t _ZL18c_CLR_HW_Button_Up
08067548 t _ZL18c_CLR_HW_Button_Up
0805fc78 t _ZL18c_CLR_HW_Button_Up
080685a8 t _ZL18c_CLR_HW_Button_Up
080684c8 t _ZL18c_CLR_HW_Button_Up
0805fac8 t _ZL18c_CLR_HW_Button_Up
08068da0 t _ZL18c_CLR_HW_Button_Up
080690f8 t _ZL18c_CLR_HW_Button_Up
080692c8 t _ZL18c_CLR_HW_Button_Up
0805ff10 t _ZL18c_CLR_HW_Button_Up
08068f30 t _ZL18c_CLR_HW_Button_Up
08060858 t _ZL18c_CLR_HW_Button_Up
0805ffc8 t _ZL18c_CLR_HW_Button_Up
08068880 t _ZL18c_CLR_HW_Button_Up
08034f8c t _ZL18local_FindFieldDefP15CLR_RT_AssemblyjjPKcS0_tR21CLR_RT_FieldDef_Index
20002b3c b _ZL18s_PreHeapInitIndex
0804ed7c t _ZL19InitializeADCDriverP38CLR_RT_HeapBlock_NativeEventDispatchery
08046068 t _ZL19InitializeEventSinkP38CLR_RT_HeapBlock_NativeEventDispatchery
08069138 t _ZL19c_CLR_HW_Button_MAX
080688c0 t _ZL19c_CLR_HW_Button_MAX
080685e8 t _ZL19c_CLR_HW_Button_MAX
08067588 t _ZL19c_CLR_HW_Button_MAX
0805fb08 t _ZL19c_CLR_HW_Button_MAX
0805ff50 t _ZL19c_CLR_HW_Button_MAX
08068508 t _ZL19c_CLR_HW_Button_MAX
08069308 t _ZL19c_CLR_HW_Button_MAX
08060008 t _ZL19c_CLR_HW_Button_MAX
0805fcb8 t _ZL19c_CLR_HW_Button_MAX
08060898 t _ZL19c_CLR_HW_Button_MAX
08068de0 t _ZL19c_CLR_HW_Button_MAX
080626a0 t _ZL19c_CLR_HW_Button_MAX
08068f70 t _ZL19c_CLR_HW_Button_MAX
080684b0 t _ZL19c_CLR_RT_Trace_Info
08068590 t _ZL19c_CLR_RT_Trace_Info
08067530 t _ZL19c_CLR_RT_Trace_Info
0805ffb0 t _ZL19c_CLR_RT_Trace_Info
080690e0 t _ZL19c_CLR_RT_Trace_Info
080692b0 t _ZL19c_CLR_RT_Trace_Info
08060840 t _ZL19c_CLR_RT_Trace_Info
0805fab0 t _ZL19c_CLR_RT_Trace_Info
08068d88 t _ZL19c_CLR_RT_Trace_Info
08068868 t _ZL19c_CLR_RT_Trace_Info
08062648 t _ZL19c_CLR_RT_Trace_Info
08068f18 t _ZL19c_CLR_RT_Trace_Info
0805fc60 t _ZL19c_CLR_RT_Trace_Info
0805fef8 t _ZL19c_CLR_RT_Trace_Info
080693d8 t _ZL19c_CLR_RT_Trace_Info
080684ac t _ZL19c_CLR_RT_Trace_None
0806858c t _ZL19c_CLR_RT_Trace_None
08068864 t _ZL19c_CLR_RT_Trace_None
08062644 t _ZL19c_CLR_RT_Trace_None
080690dc t _ZL19c_CLR_RT_Trace_None
0805fef4 t _ZL19c_CLR_RT_Trace_None
0805faac t _ZL19c_CLR_RT_Trace_None
0806083c t _ZL19c_CLR_RT_Trace_None
08068f14 t _ZL19c_CLR_RT_Trace_None
0805ffac t _ZL19c_CLR_RT_Trace_None
0806752c t _ZL19c_CLR_RT_Trace_None
080692ac t _ZL19c_CLR_RT_Trace_None
080693d4 t _ZL19c_CLR_RT_Trace_None
0805fc5c t _ZL19c_CLR_RT_Trace_None
08068d84 t _ZL19c_CLR_RT_Trace_None
08067414 t _ZL19c_MethodIndexLookup
08005308 t _ZL20AnalyzeObject_HelperP16CLR_RT_HeapBlockR13AnalyzeObject
08022ac0 t _ZL20FixReflectionForTypeRK16CLR_RT_HeapBlockRS_
080047f0 t _ZL20GetScratchPad_Helperi
0806754c t _ZL20c_CLR_HW_Button_Down
0805fc7c t _ZL20c_CLR_HW_Button_Down
0805facc t _ZL20c_CLR_HW_Button_Down
08068884 t _ZL20c_CLR_HW_Button_Down
08068da4 t _ZL20c_CLR_HW_Button_Down
080692cc t _ZL20c_CLR_HW_Button_Down
0805ff14 t _ZL20c_CLR_HW_Button_Down
0805ffcc t _ZL20c_CLR_HW_Button_Down
080690fc t _ZL20c_CLR_HW_Button_Down
080684cc t _ZL20c_CLR_HW_Button_Down
08068f34 t _ZL20c_CLR_HW_Button_Down
08062664 t _ZL20c_CLR_HW_Button_Down
0806085c t _ZL20c_CLR_HW_Button_Down
080685ac t _ZL20c_CLR_HW_Button_Down
08066838 t _ZL20c_MARKER_ASSEMBLY_V1
0804a450 t _ZL21CleanupUsartErrorSinkP38CLR_RT_HeapBlock_NativeEventDispatcher
08022c48 t _ZL21CompareValues_NumericRK16CLR_RT_HeapBlockS1_bi
08022b40 t _ZL21CompareValues_Numericii
08022b78 t _ZL21CompareValues_Numericjj
08022bb0 t _ZL21CompareValues_Numericxx
08022bfc t _ZL21CompareValues_Numericyy
0804d0e8 t _ZL21ISR_RealTimeTimerProcP38CLR_RT_HeapBlock_NativeEventDispatcher
0805fc80 t _ZL21c_CLR_HW_Button_Spare
08068888 t _ZL21c_CLR_HW_Button_Spare
08060860 t _ZL21c_CLR_HW_Button_Spare
08062668 t _ZL21c_CLR_HW_Button_Spare
08068da8 t _ZL21c_CLR_HW_Button_Spare
0805fad0 t _ZL21c_CLR_HW_Button_Spare
08069100 t _ZL21c_CLR_HW_Button_Spare
08068f38 t _ZL21c_CLR_HW_Button_Spare
080684d0 t _ZL21c_CLR_HW_Button_Spare
080685b0 t _ZL21c_CLR_HW_Button_Spare
080692d0 t _ZL21c_CLR_HW_Button_Spare
0805ff18 t _ZL21c_CLR_HW_Button_Spare
0805ffd0 t _ZL21c_CLR_HW_Button_Spare
08067550 t _ZL21c_CLR_HW_Button_Spare
080626a8 t _ZL21c_MaximumTimeToActive
20006cd8 b _ZL21g_adcInterruptEnabled
08022de0 t _ZL22CompareValues_PointersPK16CLR_RT_HeapBlockS1_
0804edb4 t _ZL22EnableDisableADCDriverP38CLR_RT_HeapBlock_NativeEventDispatcherb
08046090 t _ZL22EnableDisableEventSinkP38CLR_RT_HeapBlock_NativeEventDispatcherb
0804be98 t _ZL22MarhalConfigDescriptorP16CLR_RT_HeapBlockRPh
08068f48 t _ZL22c_CLR_HW_Button_Raw_B0
080684e0 t _ZL22c_CLR_HW_Button_Raw_B0
0805ffe0 t _ZL22c_CLR_HW_Button_Raw_B0
080692e0 t _ZL22c_CLR_HW_Button_Raw_B0
08060870 t _ZL22c_CLR_HW_Button_Raw_B0
0805fae0 t _ZL22c_CLR_HW_Button_Raw_B0
080685c0 t _ZL22c_CLR_HW_Button_Raw_B0
0805ff28 t _ZL22c_CLR_HW_Button_Raw_B0
08068db8 t _ZL22c_CLR_HW_Button_Raw_B0
0805fc90 t _ZL22c_CLR_HW_Button_Raw_B0
08069110 t _ZL22c_CLR_HW_Button_Raw_B0
08068898 t _ZL22c_CLR_HW_Button_Raw_B0
08067560 t _ZL22c_CLR_HW_Button_Raw_B0
08062678 t _ZL22c_CLR_HW_Button_Raw_B0
08067564 t _ZL22c_CLR_HW_Button_Raw_B1
0806889c t _ZL22c_CLR_HW_Button_Raw_B1
080685c4 t _ZL22c_CLR_HW_Button_Raw_B1
0805ff2c t _ZL22c_CLR_HW_Button_Raw_B1
0805fae4 t _ZL22c_CLR_HW_Button_Raw_B1
0805fc94 t _ZL22c_CLR_HW_Button_Raw_B1
08068dbc t _ZL22c_CLR_HW_Button_Raw_B1
0806267c t _ZL22c_CLR_HW_Button_Raw_B1
08069114 t _ZL22c_CLR_HW_Button_Raw_B1
0805ffe4 t _ZL22c_CLR_HW_Button_Raw_B1
080692e4 t _ZL22c_CLR_HW_Button_Raw_B1
080684e4 t _ZL22c_CLR_HW_Button_Raw_B1
08068f4c t _ZL22c_CLR_HW_Button_Raw_B1
08060874 t _ZL22c_CLR_HW_Button_Raw_B1
08068f50 t _ZL22c_CLR_HW_Button_Raw_B2
0805ffe8 t _ZL22c_CLR_HW_Button_Raw_B2
080692e8 t _ZL22c_CLR_HW_Button_Raw_B2
080688a0 t _ZL22c_CLR_HW_Button_Raw_B2
08069118 t _ZL22c_CLR_HW_Button_Raw_B2
08068dc0 t _ZL22c_CLR_HW_Button_Raw_B2
0805fae8 t _ZL22c_CLR_HW_Button_Raw_B2
0805fc98 t _ZL22c_CLR_HW_Button_Raw_B2
08062680 t _ZL22c_CLR_HW_Button_Raw_B2
08067568 t _ZL22c_CLR_HW_Button_Raw_B2
080685c8 t _ZL22c_CLR_HW_Button_Raw_B2
08060878 t _ZL22c_CLR_HW_Button_Raw_B2
080684e8 t _ZL22c_CLR_HW_Button_Raw_B2
0805ff30 t _ZL22c_CLR_HW_Button_Raw_B2
08062684 t _ZL22c_CLR_HW_Button_Raw_B3
0806756c t _ZL22c_CLR_HW_Button_Raw_B3
0805faec t _ZL22c_CLR_HW_Button_Raw_B3
080684ec t _ZL22c_CLR_HW_Button_Raw_B3
0805ffec t _ZL22c_CLR_HW_Button_Raw_B3
0806911c t _ZL22c_CLR_HW_Button_Raw_B3
0805ff34 t _ZL22c_CLR_HW_Button_Raw_B3
0805fc9c t _ZL22c_CLR_HW_Button_Raw_B3
080685cc t _ZL22c_CLR_HW_Button_Raw_B3
0806087c t _ZL22c_CLR_HW_Button_Raw_B3
080688a4 t _ZL22c_CLR_HW_Button_Raw_B3
08068dc4 t _ZL22c_CLR_HW_Button_Raw_B3
080692ec t _ZL22c_CLR_HW_Button_Raw_B3
08068f54 t _ZL22c_CLR_HW_Button_Raw_B3
08060880 t _ZL22c_CLR_HW_Button_Raw_B4
08062688 t _ZL22c_CLR_HW_Button_Raw_B4
0805ff38 t _ZL22c_CLR_HW_Button_Raw_B4
0805faf0 t _ZL22c_CLR_HW_Button_Raw_B4
0805fca0 t _ZL22c_CLR_HW_Button_Raw_B4
08069120 t _ZL22c_CLR_HW_Button_Raw_B4
080684f0 t _ZL22c_CLR_HW_Button_Raw_B4
080685d0 t _ZL22c_CLR_HW_Button_Raw_B4
08068dc8 t _ZL22c_CLR_HW_Button_Raw_B4
08067570 t _ZL22c_CLR_HW_Button_Raw_B4
0805fff0 t _ZL22c_CLR_HW_Button_Raw_B4
080688a8 t _ZL22c_CLR_HW_Button_Raw_B4
080692f0 t _ZL22c_CLR_HW_Button_Raw_B4
08068f58 t _ZL22c_CLR_HW_Button_Raw_B4
080688ac t _ZL22c_CLR_HW_Button_Raw_B5
08068dcc t _ZL22c_CLR_HW_Button_Raw_B5
080684f4 t _ZL22c_CLR_HW_Button_Raw_B5
08068f5c t _ZL22c_CLR_HW_Button_Raw_B5
0805faf4 t _ZL22c_CLR_HW_Button_Raw_B5
0805fca4 t _ZL22c_CLR_HW_Button_Raw_B5
08060884 t _ZL22c_CLR_HW_Button_Raw_B5
0805ff3c t _ZL22c_CLR_HW_Button_Raw_B5
0806268c t _ZL22c_CLR_HW_Button_Raw_B5
080685d4 t _ZL22c_CLR_HW_Button_Raw_B5
08067574 t _ZL22c_CLR_HW_Button_Raw_B5
08069124 t _ZL22c_CLR_HW_Button_Raw_B5
080692f4 t _ZL22c_CLR_HW_Button_Raw_B5
0805fff4 t _ZL22c_CLR_HW_Button_Raw_B5
08060888 t _ZL22c_CLR_HW_Button_Raw_B6
0805faf8 t _ZL22c_CLR_HW_Button_Raw_B6
0805fca8 t _ZL22c_CLR_HW_Button_Raw_B6
080685d8 t _ZL22c_CLR_HW_Button_Raw_B6
08067578 t _ZL22c_CLR_HW_Button_Raw_B6
0805fff8 t _ZL22c_CLR_HW_Button_Raw_B6
080684f8 t _ZL22c_CLR_HW_Button_Raw_B6
080688b0 t _ZL22c_CLR_HW_Button_Raw_B6
08068dd0 t _ZL22c_CLR_HW_Button_Raw_B6
0805ff40 t _ZL22c_CLR_HW_Button_Raw_B6
08069128 t _ZL22c_CLR_HW_Button_Raw_B6
080692f8 t _ZL22c_CLR_HW_Button_Raw_B6
08068f60 t _ZL22c_CLR_HW_Button_Raw_B6
08062690 t _ZL22c_CLR_HW_Button_Raw_B6
08068f64 t _ZL22c_CLR_HW_Button_Raw_B7
080692fc t _ZL22c_CLR_HW_Button_Raw_B7
0806912c t _ZL22c_CLR_HW_Button_Raw_B7
0805ff44 t _ZL22c_CLR_HW_Button_Raw_B7
0806757c t _ZL22c_CLR_HW_Button_Raw_B7
0805fafc t _ZL22c_CLR_HW_Button_Raw_B7
080684fc t _ZL22c_CLR_HW_Button_Raw_B7
0805fffc t _ZL22c_CLR_HW_Button_Raw_B7
080685dc t _ZL22c_CLR_HW_Button_Raw_B7
0805fcac t _ZL22c_CLR_HW_Button_Raw_B7
08068dd4 t _ZL22c_CLR_HW_Button_Raw_B7
08062694 t _ZL22c_CLR_HW_Button_Raw_B7
080688b4 t _ZL22c_CLR_HW_Button_Raw_B7
0806088c t _ZL22c_CLR_HW_Button_Raw_B7
08068f68 t _ZL22c_CLR_HW_Button_Raw_B8
08068500 t _ZL22c_CLR_HW_Button_Raw_B8
080688b8 t _ZL22c_CLR_HW_Button_Raw_B8
08069300 t _ZL22c_CLR_HW_Button_Raw_B8
08062698 t _ZL22c_CLR_HW_Button_Raw_B8
08067580 t _ZL22c_CLR_HW_Button_Raw_B8
08069130 t _ZL22c_CLR_HW_Button_Raw_B8
08060890 t _ZL22c_CLR_HW_Button_Raw_B8
0805fcb0 t _ZL22c_CLR_HW_Button_Raw_B8
08068dd8 t _ZL22c_CLR_HW_Button_Raw_B8
08060000 t _ZL22c_CLR_HW_Button_Raw_B8
080685e0 t _ZL22c_CLR_HW_Button_Raw_B8
0805fb00 t _ZL22c_CLR_HW_Button_Raw_B8
0805ff48 t _ZL22c_CLR_HW_Button_Raw_B8
0805fcb4 t _ZL22c_CLR_HW_Button_Raw_B9
0805ff4c t _ZL22c_CLR_HW_Button_Raw_B9
08060004 t _ZL22c_CLR_HW_Button_Raw_B9
080688bc t _ZL22c_CLR_HW_Button_Raw_B9
0806269c t _ZL22c_CLR_HW_Button_Raw_B9
080685e4 t _ZL22c_CLR_HW_Button_Raw_B9
08068f6c t _ZL22c_CLR_HW_Button_Raw_B9
08069134 t _ZL22c_CLR_HW_Button_Raw_B9
08069304 t _ZL22c_CLR_HW_Button_Raw_B9
0805fb04 t _ZL22c_CLR_HW_Button_Raw_B9
08067584 t _ZL22c_CLR_HW_Button_Raw_B9
08060894 t _ZL22c_CLR_HW_Button_Raw_B9
08068ddc t _ZL22c_CLR_HW_Button_Raw_B9
08068504 t _ZL22c_CLR_HW_Button_Raw_B9
08060864 t _ZL22c_CLR_HW_Button_Select
08068f3c t _ZL22c_CLR_HW_Button_Select
0805fad4 t _ZL22c_CLR_HW_Button_Select
08068dac t _ZL22c_CLR_HW_Button_Select
0805fc84 t _ZL22c_CLR_HW_Button_Select
0806266c t _ZL22c_CLR_HW_Button_Select
080692d4 t _ZL22c_CLR_HW_Button_Select
0805ff1c t _ZL22c_CLR_HW_Button_Select
08069104 t _ZL22c_CLR_HW_Button_Select
080685b4 t _ZL22c_CLR_HW_Button_Select
0805ffd4 t _ZL22c_CLR_HW_Button_Select
080684d4 t _ZL22c_CLR_HW_Button_Select
0806888c t _ZL22c_CLR_HW_Button_Select
08067554 t _ZL22c_CLR_HW_Button_Select
08068f1c t _ZL22c_CLR_RT_Trace_Verbose
0805fab4 t _ZL22c_CLR_RT_Trace_Verbose
08060844 t _ZL22c_CLR_RT_Trace_Verbose
080684b4 t _ZL22c_CLR_RT_Trace_Verbose
0805fc64 t _ZL22c_CLR_RT_Trace_Verbose
080692b4 t _ZL22c_CLR_RT_Trace_Verbose
08068d8c t _ZL22c_CLR_RT_Trace_Verbose
0806886c t _ZL22c_CLR_RT_Trace_Verbose
08067534 t _ZL22c_CLR_RT_Trace_Verbose
0806264c t _ZL22c_CLR_RT_Trace_Verbose
080693dc t _ZL22c_CLR_RT_Trace_Verbose
0805ffb4 t _ZL22c_CLR_RT_Trace_Verbose
0805fefc t _ZL22c_CLR_RT_Trace_Verbose
080690e4 t _ZL22c_CLR_RT_Trace_Verbose
08068594 t _ZL22c_CLR_RT_Trace_Verbose
08062f1c t _ZL22c_CLR_StringTable_Data
080626b0 t _ZL22c_CLR_StringTable_Size
20006a88 b _ZL22g_RealTimeTimerEnalbed
080613d0 t _ZL23CummulativeDaysForMonth
08047b1c t _ZL23HWPORT_GPIO_CheckPortIdbj
0805fc88 t _ZL23c_CLR_HW_Button_Channel
08067558 t _ZL23c_CLR_HW_Button_Channel
08068890 t _ZL23c_CLR_HW_Button_Channel
08069108 t _ZL23c_CLR_HW_Button_Channel
0805ff20 t _ZL23c_CLR_HW_Button_Channel
08060868 t _ZL23c_CLR_HW_Button_Channel
08062670 t _ZL23c_CLR_HW_Button_Channel
08068f40 t _ZL23c_CLR_HW_Button_Channel
080685b8 t _ZL23c_CLR_HW_Button_Channel
08068db0 t _ZL23c_CLR_HW_Button_Channel
080692d8 t _ZL23c_CLR_HW_Button_Channel
080684d8 t _ZL23c_CLR_HW_Button_Channel
0805ffd8 t _ZL23c_CLR_HW_Button_Channel
0805fad8 t _ZL23c_CLR_HW_Button_Channel
08062650 t _ZL23c_CLR_RT_Trace_Annoying
080690e8 t _ZL23c_CLR_RT_Trace_Annoying
08067538 t _ZL23c_CLR_RT_Trace_Annoying
0805ffb8 t _ZL23c_CLR_RT_Trace_Annoying
0805ff00 t _ZL23c_CLR_RT_Trace_Annoying
08060848 t _ZL23c_CLR_RT_Trace_Annoying
08068870 t _ZL23c_CLR_RT_Trace_Annoying
080693e0 t _ZL23c_CLR_RT_Trace_Annoying
080692b8 t _ZL23c_CLR_RT_Trace_Annoying
08068d90 t _ZL23c_CLR_RT_Trace_Annoying
08068598 t _ZL23c_CLR_RT_Trace_Annoying
08068f20 t _ZL23c_CLR_RT_Trace_Annoying
0805fab8 t _ZL23c_CLR_RT_Trace_Annoying
080684b8 t _ZL23c_CLR_RT_Trace_Annoying
0805fc68 t _ZL23c_CLR_RT_Trace_Annoying
20001024 b _ZL23g_Boot_RAMConstants_CRC
0804a388 t _ZL24InitializeUsartErrorSinkP38CLR_RT_HeapBlock_NativeEventDispatchery
0806753c t _ZL24c_CLR_RT_Trace_Obnoxious
08068f24 t _ZL24c_CLR_RT_Trace_Obnoxious
0805ffbc t _ZL24c_CLR_RT_Trace_Obnoxious
0805fabc t _ZL24c_CLR_RT_Trace_Obnoxious
080684bc t _ZL24c_CLR_RT_Trace_Obnoxious
0805fc6c t _ZL24c_CLR_RT_Trace_Obnoxious
0806859c t _ZL24c_CLR_RT_Trace_Obnoxious
080692bc t _ZL24c_CLR_RT_Trace_Obnoxious
08062654 t _ZL24c_CLR_RT_Trace_Obnoxious
0806084c t _ZL24c_CLR_RT_Trace_Obnoxious
080693e4 t _ZL24c_CLR_RT_Trace_Obnoxious
080690ec t _ZL24c_CLR_RT_Trace_Obnoxious
08068874 t _ZL24c_CLR_RT_Trace_Obnoxious
0805ff04 t _ZL24c_CLR_RT_Trace_Obnoxious
08068d94 t _ZL24c_CLR_RT_Trace_Obnoxious
080626b4 t _ZL24c_CLR_StringTable_Lookup
08060024 t _ZL24c_Messaging_Lookup_Reply
0806929c t _ZL25CLR_MaxStreamSize_Strings
0805ff9c t _ZL25CLR_MaxStreamSize_Strings
0805fa9c t _ZL25CLR_MaxStreamSize_Strings
08068854 t _ZL25CLR_MaxStreamSize_Strings
0806082c t _ZL25CLR_MaxStreamSize_Strings
08062634 t _ZL25CLR_MaxStreamSize_Strings
0806751c t _ZL25CLR_MaxStreamSize_Strings
0805fc4c t _ZL25CLR_MaxStreamSize_Strings
0806849c t _ZL25CLR_MaxStreamSize_Strings
0806857c t _ZL25CLR_MaxStreamSize_Strings
080693c4 t _ZL25CLR_MaxStreamSize_Strings
08068d74 t _ZL25CLR_MaxStreamSize_Strings
0805fee4 t _ZL25CLR_MaxStreamSize_Strings
08068f04 t _ZL25CLR_MaxStreamSize_Strings
080690cc t _ZL25CLR_MaxStreamSize_Strings
08068480 t _ZL25CLR_MaxStreamSize_TypeDef
0805fec8 t _ZL25CLR_MaxStreamSize_TypeDef
08068838 t _ZL25CLR_MaxStreamSize_TypeDef
08067500 t _ZL25CLR_MaxStreamSize_TypeDef
08068d58 t _ZL25CLR_MaxStreamSize_TypeDef
080693a8 t _ZL25CLR_MaxStreamSize_TypeDef
08062618 t _ZL25CLR_MaxStreamSize_TypeDef
0805fa80 t _ZL25CLR_MaxStreamSize_TypeDef
0805ff80 t _ZL25CLR_MaxStreamSize_TypeDef
08068ee8 t _ZL25CLR_MaxStreamSize_TypeDef
08069280 t _ZL25CLR_MaxStreamSize_TypeDef
08060810 t _ZL25CLR_MaxStreamSize_TypeDef
080690b0 t _ZL25CLR_MaxStreamSize_TypeDef
0805fc30 t _ZL25CLR_MaxStreamSize_TypeDef
08068560 t _ZL25CLR_MaxStreamSize_TypeDef
0805ff74 t _ZL25CLR_MaxStreamSize_TypeRef
08068554 t _ZL25CLR_MaxStreamSize_TypeRef
08068474 t _ZL25CLR_MaxStreamSize_TypeRef
0805febc t _ZL25CLR_MaxStreamSize_TypeRef
080690a4 t _ZL25CLR_MaxStreamSize_TypeRef
080674f4 t _ZL25CLR_MaxStreamSize_TypeRef
08068d4c t _ZL25CLR_MaxStreamSize_TypeRef
08069274 t _ZL25CLR_MaxStreamSize_TypeRef
0806939c t _ZL25CLR_MaxStreamSize_TypeRef
08060804 t _ZL25CLR_MaxStreamSize_TypeRef
0805fa74 t _ZL25CLR_MaxStreamSize_TypeRef
08068edc t _ZL25CLR_MaxStreamSize_TypeRef
0806260c t _ZL25CLR_MaxStreamSize_TypeRef
0805fc24 t _ZL25CLR_MaxStreamSize_TypeRef
0806882c t _ZL25CLR_MaxStreamSize_TypeRef
0804a330 t _ZL25CleanupUsartDataEventSinkP38CLR_RT_HeapBlock_NativeEventDispatcher
0804b5dc t _ZL25UnmarshalConfigDescriptorP16CLR_RT_HeapBlockPK28USB_CONFIGURATION_DESCRIPTOR
080692dc t _ZL25c_CLR_HW_Button_Backlight
0805fc8c t _ZL25c_CLR_HW_Button_Backlight
0805ffdc t _ZL25c_CLR_HW_Button_Backlight
0805fadc t _ZL25c_CLR_HW_Button_Backlight
0805ff24 t _ZL25c_CLR_HW_Button_Backlight
080685bc t _ZL25c_CLR_HW_Button_Backlight
08068f44 t _ZL25c_CLR_HW_Button_Backlight
08068894 t _ZL25c_CLR_HW_Button_Backlight
08062674 t _ZL25c_CLR_HW_Button_Backlight
08068db4 t _ZL25c_CLR_HW_Button_Backlight
0806910c t _ZL25c_CLR_HW_Button_Backlight
0806086c t _ZL25c_CLR_HW_Button_Backlight
0806755c t _ZL25c_CLR_HW_Button_Backlight
080684dc t _ZL25c_CLR_HW_Button_Backlight
080695a0 t _ZL25g_AdcInteropDriverMethods
0804bae4 t _ZL26AllocateConfigurationBytesP22CLR_RT_HeapBlock_ArrayP16CLR_RT_HeapBlock
080693cc t _ZL26CLR_MaxStreamSize_ByteCode
0806263c t _ZL26CLR_MaxStreamSize_ByteCode
0805ffa4 t _ZL26CLR_MaxStreamSize_ByteCode
0805feec t _ZL26CLR_MaxStreamSize_ByteCode
080690d4 t _ZL26CLR_MaxStreamSize_ByteCode
0805faa4 t _ZL26CLR_MaxStreamSize_ByteCode
08068f0c t _ZL26CLR_MaxStreamSize_ByteCode
08067524 t _ZL26CLR_MaxStreamSize_ByteCode
08068d7c t _ZL26CLR_MaxStreamSize_ByteCode
0806885c t _ZL26CLR_MaxStreamSize_ByteCode
080692a4 t _ZL26CLR_MaxStreamSize_ByteCode
0805fc54 t _ZL26CLR_MaxStreamSize_ByteCode
08068584 t _ZL26CLR_MaxStreamSize_ByteCode
080684a4 t _ZL26CLR_MaxStreamSize_ByteCode
08060834 t _ZL26CLR_MaxStreamSize_ByteCode
0805ff84 t _ZL26CLR_MaxStreamSize_FieldDef
0806883c t _ZL26CLR_MaxStreamSize_FieldDef
08067504 t _ZL26CLR_MaxStreamSize_FieldDef
0805fa84 t _ZL26CLR_MaxStreamSize_FieldDef
08060814 t _ZL26CLR_MaxStreamSize_FieldDef
08068564 t _ZL26CLR_MaxStreamSize_FieldDef
0805fecc t _ZL26CLR_MaxStreamSize_FieldDef
0806261c t _ZL26CLR_MaxStreamSize_FieldDef
0805fc34 t _ZL26CLR_MaxStreamSize_FieldDef
08068eec t _ZL26CLR_MaxStreamSize_FieldDef
08068484 t _ZL26CLR_MaxStreamSize_FieldDef
08068d5c t _ZL26CLR_MaxStreamSize_FieldDef
08069284 t _ZL26CLR_MaxStreamSize_FieldDef
080693ac t _ZL26CLR_MaxStreamSize_FieldDef
080690b4 t _ZL26CLR_MaxStreamSize_FieldDef
08068558 t _ZL26CLR_MaxStreamSize_FieldRef
080690a8 t _ZL26CLR_MaxStreamSize_FieldRef
08068478 t _ZL26CLR_MaxStreamSize_FieldRef
08068ee0 t _ZL26CLR_MaxStreamSize_FieldRef
08068d50 t _ZL26CLR_MaxStreamSize_FieldRef
0805fa78 t _ZL26CLR_MaxStreamSize_FieldRef
0805ff78 t _ZL26CLR_MaxStreamSize_FieldRef
0805fc28 t _ZL26CLR_MaxStreamSize_FieldRef
08060808 t _ZL26CLR_MaxStreamSize_FieldRef
08069278 t _ZL26CLR_MaxStreamSize_FieldRef
080693a0 t _ZL26CLR_MaxStreamSize_FieldRef
08062610 t _ZL26CLR_MaxStreamSize_FieldRef
08068830 t _ZL26CLR_MaxStreamSize_FieldRef
0805fec0 t _ZL26CLR_MaxStreamSize_FieldRef
080674f8 t _ZL26CLR_MaxStreamSize_FieldRef
08069290 t _ZL26CLR_MaxStreamSize_TypeSpec
0805fa90 t _ZL26CLR_MaxStreamSize_TypeSpec
08068ef8 t _ZL26CLR_MaxStreamSize_TypeSpec
080690c0 t _ZL26CLR_MaxStreamSize_TypeSpec
0805fc40 t _ZL26CLR_MaxStreamSize_TypeSpec
08068848 t _ZL26CLR_MaxStreamSize_TypeSpec
08068490 t _ZL26CLR_MaxStreamSize_TypeSpec
08062628 t _ZL26CLR_MaxStreamSize_TypeSpec
0805fed8 t _ZL26CLR_MaxStreamSize_TypeSpec
080693b8 t _ZL26CLR_MaxStreamSize_TypeSpec
08060820 t _ZL26CLR_MaxStreamSize_TypeSpec
08068d68 t _ZL26CLR_MaxStreamSize_TypeSpec
08067510 t _ZL26CLR_MaxStreamSize_TypeSpec
08068570 t _ZL26CLR_MaxStreamSize_TypeSpec
0805ff90 t _ZL26CLR_MaxStreamSize_TypeSpec
0804d0a8 t _ZL26CleanupRealTimeTimerDriverP38CLR_RT_HeapBlock_NativeEventDispatcher
0800a2c4 t _ZL26DebuggerPort_SSL_GetCACertPPhPj
0806000c t _ZL26c_Messaging_Lookup_Request
08068568 t _ZL27CLR_MaxStreamSize_MethodDef
08062620 t _ZL27CLR_MaxStreamSize_MethodDef
08067508 t _ZL27CLR_MaxStreamSize_MethodDef
080690b8 t _ZL27CLR_MaxStreamSize_MethodDef
0805ff88 t _ZL27CLR_MaxStreamSize_MethodDef
0805fed0 t _ZL27CLR_MaxStreamSize_MethodDef
08060818 t _ZL27CLR_MaxStreamSize_MethodDef
0805fa88 t _ZL27CLR_MaxStreamSize_MethodDef
08068ef0 t _ZL27CLR_MaxStreamSize_MethodDef
08068d60 t _ZL27CLR_MaxStreamSize_MethodDef
0805fc38 t _ZL27CLR_MaxStreamSize_MethodDef
08068488 t _ZL27CLR_MaxStreamSize_MethodDef
08069288 t _ZL27CLR_MaxStreamSize_MethodDef
080693b0 t _ZL27CLR_MaxStreamSize_MethodDef
08068840 t _ZL27CLR_MaxStreamSize_MethodDef
0805fc2c t _ZL27CLR_MaxStreamSize_MethodRef
0806927c t _ZL27CLR_MaxStreamSize_MethodRef
08068834 t _ZL27CLR_MaxStreamSize_MethodRef
0805fec4 t _ZL27CLR_MaxStreamSize_MethodRef
08068ee4 t _ZL27CLR_MaxStreamSize_MethodRef
0806080c t _ZL27CLR_MaxStreamSize_MethodRef
080674fc t _ZL27CLR_MaxStreamSize_MethodRef
0805ff7c t _ZL27CLR_MaxStreamSize_MethodRef
0805fa7c t _ZL27CLR_MaxStreamSize_MethodRef
0806855c t _ZL27CLR_MaxStreamSize_MethodRef
08062614 t _ZL27CLR_MaxStreamSize_MethodRef
0806847c t _ZL27CLR_MaxStreamSize_MethodRef
080690ac t _ZL27CLR_MaxStreamSize_MethodRef
080693a4 t _ZL27CLR_MaxStreamSize_MethodRef
08068d54 t _ZL27CLR_MaxStreamSize_MethodRef
0806262c t _ZL27CLR_MaxStreamSize_Resources
0805fc44 t _ZL27CLR_MaxStreamSize_Resources
08068494 t _ZL27CLR_MaxStreamSize_Resources
08060824 t _ZL27CLR_MaxStreamSize_Resources
080693bc t _ZL27CLR_MaxStreamSize_Resources
08068d6c t _ZL27CLR_MaxStreamSize_Resources
0805ff94 t _ZL27CLR_MaxStreamSize_Resources
0806884c t _ZL27CLR_MaxStreamSize_Resources
08069294 t _ZL27CLR_MaxStreamSize_Resources
08068efc t _ZL27CLR_MaxStreamSize_Resources
08067514 t _ZL27CLR_MaxStreamSize_Resources
080690c4 t _ZL27CLR_MaxStreamSize_Resources
0805fedc t _ZL27CLR_MaxStreamSize_Resources
0805fa94 t _ZL27CLR_MaxStreamSize_Resources
08068574 t _ZL27CLR_MaxStreamSize_Resources
0804a3ec t _ZL27EnableDisableUsartErrorSinkP38CLR_RT_HeapBlock_NativeEventDispatcherb
0806750c t _ZL28CLR_MaxStreamSize_Attributes
0805ff8c t _ZL28CLR_MaxStreamSize_Attributes
080693b4 t _ZL28CLR_MaxStreamSize_Attributes
08062624 t _ZL28CLR_MaxStreamSize_Attributes
08068844 t _ZL28CLR_MaxStreamSize_Attributes
0806081c t _ZL28CLR_MaxStreamSize_Attributes
0805fc3c t _ZL28CLR_MaxStreamSize_Attributes
08068ef4 t _ZL28CLR_MaxStreamSize_Attributes
080690bc t _ZL28CLR_MaxStreamSize_Attributes
0806928c t _ZL28CLR_MaxStreamSize_Attributes
0805fed4 t _ZL28CLR_MaxStreamSize_Attributes
08068d64 t _ZL28CLR_MaxStreamSize_Attributes
0805fa8c t _ZL28CLR_MaxStreamSize_Attributes
0806856c t _ZL28CLR_MaxStreamSize_Attributes
0806848c t _ZL28CLR_MaxStreamSize_Attributes
08068f08 t _ZL28CLR_MaxStreamSize_Signatures
080692a0 t _ZL28CLR_MaxStreamSize_Signatures
0805ffa0 t _ZL28CLR_MaxStreamSize_Signatures
080684a0 t _ZL28CLR_MaxStreamSize_Signatures
0805faa0 t _ZL28CLR_MaxStreamSize_Signatures
08068d78 t _ZL28CLR_MaxStreamSize_Signatures
0805fc50 t _ZL28CLR_MaxStreamSize_Signatures
08062638 t _ZL28CLR_MaxStreamSize_Signatures
08068858 t _ZL28CLR_MaxStreamSize_Signatures
08060830 t _ZL28CLR_MaxStreamSize_Signatures
080693c8 t _ZL28CLR_MaxStreamSize_Signatures
080690d0 t _ZL28CLR_MaxStreamSize_Signatures
08068580 t _ZL28CLR_MaxStreamSize_Signatures
0805fee8 t _ZL28CLR_MaxStreamSize_Signatures
08067520 t _ZL28CLR_MaxStreamSize_Signatures
0804a268 t _ZL28InitializeUsartDataEventSinkP38CLR_RT_HeapBlock_NativeEventDispatchery
080694e4 t _ZL28g_CLR_CSMA_MAC_DriverMethods
08068550 t _ZL29CLR_MaxStreamSize_AssemblyRef
08068d48 t _ZL29CLR_MaxStreamSize_AssemblyRef
08068828 t _ZL29CLR_MaxStreamSize_AssemblyRef
0805fa70 t _ZL29CLR_MaxStreamSize_AssemblyRef
08062608 t _ZL29CLR_MaxStreamSize_AssemblyRef
08060800 t _ZL29CLR_MaxStreamSize_AssemblyRef
080690a0 t _ZL29CLR_MaxStreamSize_AssemblyRef
080674f0 t _ZL29CLR_MaxStreamSize_AssemblyRef
08068470 t _ZL29CLR_MaxStreamSize_AssemblyRef
0805feb8 t _ZL29CLR_MaxStreamSize_AssemblyRef
0805fc20 t _ZL29CLR_MaxStreamSize_AssemblyRef
08069270 t _ZL29CLR_MaxStreamSize_AssemblyRef
08068ed8 t _ZL29CLR_MaxStreamSize_AssemblyRef
0805ff70 t _ZL29CLR_MaxStreamSize_AssemblyRef
08069398 t _ZL29CLR_MaxStreamSize_AssemblyRef
0804d734 t _ZL29Cleanup_Radio_802_15_4_DriverP38CLR_RT_HeapBlock_NativeEventDispatcher
0804cf4c t _ZL29InitializeRealTimeTimerDriverP38CLR_RT_HeapBlock_NativeEventDispatchery
0800a310 t _ZL30DebuggerPort_SSL_GetDeviceCertPPhPj
0800a2f0 t _ZL30DebuggerPort_SSL_GetTargetHostPPKc
08003c80 t _ZL30Debugging_Thread_Create_HelperR22CLR_RT_MethodDef_IndexRP13CLR_RT_Threadj
08027c34 t _ZL30LookUpAssemblyNativeDataByNamePPK25CLR_RT_NativeAssemblyDataPKc
08068f00 t _ZL31CLR_MaxStreamSize_ResourcesData
0805fee0 t _ZL31CLR_MaxStreamSize_ResourcesData
08062630 t _ZL31CLR_MaxStreamSize_ResourcesData
0805fa98 t _ZL31CLR_MaxStreamSize_ResourcesData
080693c0 t _ZL31CLR_MaxStreamSize_ResourcesData
0805ff98 t _ZL31CLR_MaxStreamSize_ResourcesData
08068850 t _ZL31CLR_MaxStreamSize_ResourcesData
08069298 t _ZL31CLR_MaxStreamSize_ResourcesData
080690c8 t _ZL31CLR_MaxStreamSize_ResourcesData
08060828 t _ZL31CLR_MaxStreamSize_ResourcesData
08068d70 t _ZL31CLR_MaxStreamSize_ResourcesData
08068498 t _ZL31CLR_MaxStreamSize_ResourcesData
08068578 t _ZL31CLR_MaxStreamSize_ResourcesData
0805fc48 t _ZL31CLR_MaxStreamSize_ResourcesData
08067518 t _ZL31CLR_MaxStreamSize_ResourcesData
0804a2cc t _ZL31EnableDisableUsartDataEventSinkP38CLR_RT_HeapBlock_NativeEventDispatcherb
0805fef0 t _ZL32CLR_MaxStreamSize_ResourcesFiles
08068d80 t _ZL32CLR_MaxStreamSize_ResourcesFiles
080692a8 t _ZL32CLR_MaxStreamSize_ResourcesFiles
080690d8 t _ZL32CLR_MaxStreamSize_ResourcesFiles
08060838 t _ZL32CLR_MaxStreamSize_ResourcesFiles
08068588 t _ZL32CLR_MaxStreamSize_ResourcesFiles
080684a8 t _ZL32CLR_MaxStreamSize_ResourcesFiles
08068f10 t _ZL32CLR_MaxStreamSize_ResourcesFiles
080693d0 t _ZL32CLR_MaxStreamSize_ResourcesFiles
08067528 t _ZL32CLR_MaxStreamSize_ResourcesFiles
08062640 t _ZL32CLR_MaxStreamSize_ResourcesFiles
08068860 t _ZL32CLR_MaxStreamSize_ResourcesFiles
0805ffa8 t _ZL32CLR_MaxStreamSize_ResourcesFiles
0805fc58 t _ZL32CLR_MaxStreamSize_ResourcesFiles
0805faa8 t _ZL32CLR_MaxStreamSize_ResourcesFiles
0804d074 t _ZL32EnableDisableRealTimeTimerDriverP38CLR_RT_HeapBlock_NativeEventDispatcherb
0804d6e0 t _ZL32Initialize_Radio_802_15_4_DriverP38CLR_RT_HeapBlock_NativeEventDispatchery
08061158 t _ZL34STM32F10x_BlockRange_InternalFlash
080694d8 t _ZL34g_CLR_Radio_802_15_4_DriverMethods
0800a604 t _ZL34local_Events_SetBoolTimer_CallbackPv
0804d718 t _ZL35EnableDisable_Radio_802_15_4_DriverP38CLR_RT_HeapBlock_NativeEventDispatcherb
0806930c t _ZL35g_InteropRealTimeTimerDriverMethods
08047b78 t _ZL38Microsoft_SPOT_Hardware_Port_ConstructP16CLR_RT_HeapBlockjb13GPIO_RESISTOR13GPIO_INT_EDGEbb
080611c8 t _ZL38STM32F10x_BlockRange_ExternalFlash_NOR
080611ac t _ZL39STM32F10x_BlockRegionInfo_InternalFlash
080611d4 t _ZL43STM32F10x_BlockRegionInfo_ExternalFlash_NOR
08068d04 t _ZL45g_CLR_AssemblyNative_Microsoft_SPOT_EventSink
08047298 t _ZL53Microsoft_SPOT_Hardware_InterruptPort_EnableInterruptP16CLR_RT_HeapBlockP38CLR_RT_HeapBlock_NativeEventDispatcher
0804736c t _ZL54Microsoft_SPOT_Hardware_InterruptPort_DisableInterruptP16CLR_RT_HeapBlockP38CLR_RT_HeapBlock_NativeEventDispatcher
08069058 t _ZL59g_CLR_AssemblyNative_Microsoft_SPOT_Hardware_UsartErrorSink
0806904c t _ZL59g_CLR_AssemblyNative_Microsoft_SPOT_Hardware_UsartEventSink
0806132c t _ZL6c_Busy
08061328 t _ZL6c_Free
080695b0 t _ZL7LCD_NUM
08061330 t _ZL7c_Guard
20006a8c b _ZL9g_Context
20006a80 b _ZL9g_Context
0801a3e4 W _ZN10CLR_Checks13VerifyStackOKER17CLR_RT_StackFrameP16CLR_RT_HeapBlocki
0801accc T _ZN10CLR_Checks20VerifyArrayReferenceER16CLR_RT_HeapBlock
0801ad3c T _ZN10CLR_Checks24VerifyUnknownInstructionE10CLR_OPCODE
0801ad5c T _ZN10CLR_Checks28VerifyUnsupportedInstructionE10CLR_OPCODE
08011a20 T _ZN10I2C_Driver10InitializeEv
08011a8c T _ZN10I2C_Driver12UninitializeEv
08011c18 T _ZN10I2C_Driver17CompletedCallbackEPv
08011b6c T _ZN10I2C_Driver6CancelEP15I2C_HAL_XACTIONb
08011af8 T _ZN10I2C_Driver7EnqueueEP15I2C_HAL_XACTION
08011c64 T _ZN10I2C_Driver9StartNextEv
         U _ZN10RF231Radio10GetRadioIDEv
080502e4 T _ZN10RF231Radio10InitializeEP17RadioEventHandlerPhh
08050090 W _ZN10RF231Radio10SlptrClearEv
080507f8 T _ZN10RF231Radio12ReadRegisterEh
080506ec T _ZN10RF231Radio13SpiInitializeEv
08050638 T _ZN10RF231Radio13WriteRegisterEhh
08050b48 T _ZN10RF231Radio15DownloadMessageEv
08050920 T _ZN10RF231Radio15HandleInterruptEv
080506ac T _ZN10RF231Radio17GpioPinInitializeEv
08050870 T _ZN10RF231Radio21ClearChannelAssesmentEj
080500c8 T _ZN10RF231Radio4SendEPvt
08050750 T _ZN10RF231Radio6TurnOnEv
08050074 W _ZN10RF231Radio7RstnSetEv
0805003c W _ZN10RF231Radio7SelnSetEv
080500ac W _ZN10RF231Radio8SlptrSetEv
08050058 W _ZN10RF231Radio9RstnClearEv
08050020 W _ZN10RF231Radio9SelnClearEv
08014ebc W _ZN10STM32_AITC11SetPriorityEjj
08014e50 W _ZN10STM32_AITC15EnableInterruptEj
08014e14 W _ZN10STM32_AITC16DisableInterruptEj
08014e88 W _ZN10STM32_AITC18IsInterruptEnabledEj
08014f00 W _ZN10STM32_AITC21RemoveForcedInterruptEj
080175f4 T _ZN10TimeDriver10GetUtcTimeEv
080174b8 T _ZN10TimeDriver10InitializeEv
0801761c T _ZN10TimeDriver10SetUtcTimeExb
08017df0 T _ZN10TimeDriver11DaysInMonthEiiPi
08018164 T _ZN10TimeDriver11SafeSprintfERPcRjPKcz
08017658 T _ZN10TimeDriver12GetLocalTimeEv
080180f4 T _ZN10TimeDriver12SafeSprintfVERPcRjPKcSt9__va_list
08017728 T _ZN10TimeDriver12ToSystemTimeExP10SYSTEMTIME
080175c0 T _ZN10TimeDriver12UninitializeEv
20002170 B _ZN10TimeDriver13m_initializedE
08017d48 T _ZN10TimeDriver14AccDaysInMonthEiiPi
08017b24 T _ZN10TimeDriver14FromSystemTimeEPK10SYSTEMTIME
080176b8 T _ZN10TimeDriver14GetMachineTimeEv
08017f1c T _ZN10TimeDriver16TimeSpanToStringERKxRPcRj
08017680 T _ZN10TimeDriver17GetTimeZoneOffsetEv
080101f4 T _ZN10USB_Driver10ClearEventEij
0800f508 T _ZN10USB_Driver10InitializeEi
0800fa10 T _ZN10USB_Driver10OpenStreamEiii
0800fbf4 T _ZN10USB_Driver11CloseStreamEi
080102a8 T _ZN10USB_Driver11DiscardDataEij
0800f958 T _ZN10USB_Driver12UninitializeEi
0800f854 T _ZN10USB_Driver16GetConfigurationEi
0800f4f8 T _ZN10USB_Driver18GetControllerCountEv
0800ff1c T _ZN10USB_Driver4ReadEiPcj
080100cc T _ZN10USB_Driver5FlushEi
0800fcf4 T _ZN10USB_Driver5WriteEiPKcj
0800f728 T _ZN10USB_Driver9ConfigureEiPK25USB_DYNAMIC_CONFIGURATION
08010264 T _ZN10USB_Driver9GetStatusEi
08008388 T _ZN10WP_Message10InitializeEP13WP_Controller
080084b0 T _ZN10WP_Message12PrepareReplyERK9WP_PacketjjPh
0800859c T _ZN10WP_Message12VerifyHeaderEv
080085e8 T _ZN10WP_Message13VerifyPayloadEv
08008400 T _ZN10WP_Message14PrepareRequestEjjjPh
08008634 T _ZN10WP_Message14ReplyBadPacketEj
080083e4 T _ZN10WP_Message16PrepareReceptionEv
08008690 T _ZN10WP_Message7ProcessEv
08008568 T _ZN10WP_Message7ReleaseEv
0805187c W _ZN11Buffer_15_4ILh8EE10DropOldestEh
08051704 W _ZN11Buffer_15_4ILh8EE10InitializeEv
080517cc W _ZN11Buffer_15_4ILh8EE12GetOldestPtrEv
08051720 W _ZN11Buffer_15_4ILh8EE5StoreEPvh
08051a50 W _ZN11Buffer_15_4ILh8EE9GetOldestEv
08007838 T _ZN11CLR_RT_DUMP15GETERRORMESSAGEEi
0800779c T _ZN11CLR_RT_DUMP22POST_PROCESS_EXCEPTIONER16CLR_RT_HeapBlock
080075fc T _ZN11CLR_RT_DUMP4TYPEERK20CLR_RT_TypeDef_Index
0800765c T _ZN11CLR_RT_DUMP6METHODERK22CLR_RT_MethodDef_Index
080076b0 T _ZN11CLR_RT_DUMP9EXCEPTIONER17CLR_RT_StackFrameR16CLR_RT_HeapBlock
08013b20 T _ZN11Time_Driver10InitializeEv
08013df4 T _ZN11Time_Driver10Sleep_uSecEj
08013dd4 T _ZN11Time_Driver11CurrentTimeEv
08013db0 T _ZN11Time_Driver11TicksToTimeEy
08013b94 T _ZN11Time_Driver12CounterValueEv
08013c58 T _ZN11Time_Driver15SetCompareValueEy
08013e3c T _ZN11Time_Driver15Sleep_uSec_LoopEj
08013d3c T _ZN11Time_Driver3ISREPv
0804188c T _ZN12CLR_GFX_Font14CreateInstanceER16CLR_RT_HeapBlockPKhP15CLR_RT_Assembly
08010c2c W _ZN12HAL_CALLBACK10InitializeEPFvPvES0_
0800b460 T _ZN12SmartPtr_IRQ11WasDisabledEv
0800b54c T _ZN12SmartPtr_IRQ12ForceEnabledEPv
0800b530 T _ZN12SmartPtr_IRQ13ForceDisabledEPv
0800b4e4 T _ZN12SmartPtr_IRQ5ProbeEv
0800b484 T _ZN12SmartPtr_IRQ7AcquireEv
0800b568 T _ZN12SmartPtr_IRQ7DisableEv
0800b4ac T _ZN12SmartPtr_IRQ7ReleaseEv
0800b584 T _ZN12SmartPtr_IRQ7RestoreEv
0800b50c T _ZN12SmartPtr_IRQ8GetStateEPv
0800b420 T _ZN12SmartPtr_IRQC1EPv
0800b444 T _ZN12SmartPtr_IRQD1Ev
08013a0c W _ZN12Timer_Driver10GetCounterEj
0801406c T _ZN12Timer_Driver10InitializeEjjjjPFvPvES0_
0801480c T _ZN12Timer_Driver10RCC_DeInitEj
080139b0 W _ZN12Timer_Driver10SetCompareEjt
0804ccdc W _ZN12Timer_Driver10SetCounterEjj
08014758 T _ZN12Timer_Driver12UninitializeEj
08013958 W _ZN12Timer_Driver14ForceInterruptEj
08013a64 W _ZN12Timer_Driver15DidTimeOverFlowEj
08013ac8 W _ZN12Timer_Driver17ClearTimeOverFlowEj
08013e50 W _ZN12Timer_Driver22EnableCompareInterruptEj
08013eb4 W _ZN12Timer_Driver23DisableCompareInterruptEj
08014858 T _ZN12Timer_Driver8RCC_InitEjj
0800e138 T _ZN12USART_Driver10InitializeEiiiiii
0800e28c T _ZN12USART_Driver12UninitializeEi
0800ed84 T _ZN12USART_Driver13BytesInBufferEij
0800ed24 T _ZN12USART_Driver13CloseAllPortsEv
0800ede0 T _ZN12USART_Driver13DiscardBufferEij
0800eee0 T _ZN12USART_Driver16ConnectEventSinkEiiPvPFvS0_jEPS0_
0800e978 T _ZN12USART_Driver17AddCharToRxBufferEic
0800eb04 T _ZN12USART_Driver22RemoveCharFromTxBufferEiRc
0800e544 T _ZN12USART_Driver4ReadEiPcj
0800e704 T _ZN12USART_Driver5FlushEi
0800e320 T _ZN12USART_Driver5WriteEiPKcj
0800ec80 T _ZN12USART_Driver7SendXONEij
0800ebe0 T _ZN12USART_Driver8SendXOFFEij
0800ef74 T _ZN12USART_Driver8SetEventEij
08006a40 T _ZN13CLR_Messaging10InitializeEiPK34CLR_Messaging_CommandHandlerLookupjS2_jPv
08006ec0 T _ZN13CLR_Messaging10PurgeCacheER20CLR_RT_DblLinkedListx
08006e70 T _ZN13CLR_Messaging10PurgeCacheEv
08006960 T _ZN13CLR_Messaging11App_ReleaseEPvP10WP_Message
08006c2c T _ZN13CLR_Messaging13ProcessHeaderEP10WP_Message
08006994 T _ZN13CLR_Messaging14CreateInstanceEv
08006b5c T _ZN13CLR_Messaging14DeleteInstanceEv
080066c4 T _ZN13CLR_Messaging14Messaging_SendEP10WP_MessagePv
08006c48 T _ZN13CLR_Messaging14ProcessPayloadEP10WP_Message
080071c8 T _ZN13CLR_Messaging14ReplyToCommandEP10WP_Messagebb
080070f8 T _ZN13CLR_Messaging14ReplyToCommandEP10WP_MessagebbPvi
08006650 T _ZN13CLR_Messaging15Messaging_QueryEP10WP_MessagePv
08006778 T _ZN13CLR_Messaging15Messaging_ReplyEP10WP_MessagePv
08006c04 T _ZN13CLR_Messaging15ProcessCommandsEv
08006f44 T _ZN13CLR_Messaging15TransmitMessageEPK10WP_Messageb
0800682c T _ZN13CLR_Messaging16Phy_ReceiveBytesEPvRPhRj
080068bc T _ZN13CLR_Messaging17App_ProcessHeaderEPvP10WP_Message
08006924 T _ZN13CLR_Messaging18App_ProcessPayloadEPvP10WP_Message
080418c4 W _ZN13CLR_Messaging18InitializeDebuggerEv
08006894 T _ZN13CLR_Messaging19Phy_TransmitMessageEPvPK10WP_Message
080418a8 W _ZN13CLR_Messaging21IsDebuggerInitializedEv
08006558 T _ZN13CLR_Messaging23AllocateAndQueueMessageEjjPhN25CLR_RT_HeapBlock_EndPoint4PortENS1_7AddressEj
08006b88 T _ZN13CLR_Messaging7CleanupEv
080070c8 T _ZN13CLR_Messaging9SendEventEjjPhj
08032a34 T _ZN13CLR_RECORD_EH21ExtractEhFromByteCodeEPKhRPKS_Rj
08027c04 T _ZN13CLR_RT_Memory18Allocate_And_EraseEjj
08027ae8 T _ZN13CLR_RT_Memory5ResetEv
08027b00 T _ZN13CLR_RT_Memory7ReleaseEPv
08027b58 T _ZN13CLR_RT_Memory8AllocateEjj
080004bc W _ZN13CLR_RT_Memory8ZeroFillEPvj
0802f668 T _ZN13CLR_RT_Random10InitializeEi
0802f630 T _ZN13CLR_RT_Random10InitializeEv
0802f728 T _ZN13CLR_RT_Random10NextDoubleEv
0802f684 T _ZN13CLR_RT_Random4NextEv
0802f768 T _ZN13CLR_RT_Random9NextBytesEPhj
0802b24c T _ZN13CLR_RT_Thread10Execute_ILEP17CLR_RT_StackFrame
0802a728 T _ZN13CLR_RT_Thread11FindEhBlockEP17CLR_RT_StackFramePKhS3_R23CLR_RT_ExceptionHandlerb
0802a670 T _ZN13CLR_RT_Thread11PopEH_InnerEP17CLR_RT_StackFramePKh
0801a210 W _ZN13CLR_RT_Thread11UnwindStack8GetPhaseEv
080016cc W _ZN13CLR_RT_Thread11UnwindStack8SetPhaseEh
0802ae3c T _ZN13CLR_RT_Thread13Execute_InnerEv
08030278 T _ZN13CLR_RT_Thread13RecoverFromGCEv
0802fe2c T _ZN13CLR_RT_Thread14CreateInstanceEiP25CLR_RT_HeapBlock_DelegateiRPS_j
0802fc58 T _ZN13CLR_RT_Thread14CreateInstanceEiiRPS_j
0802fe8c T _ZN13CLR_RT_Thread15DestroyInstanceEv
08030f64 T _ZN13CLR_RT_Thread16ProcessExceptionEv
0802faf0 T _ZN13CLR_RT_Thread17CanThreadBeReusedEv
0802fac4 T _ZN13CLR_RT_Thread17IsFinalizerThreadEv
0802fed0 T _ZN13CLR_RT_Thread17ReleaseWhenDeadExEv
08037818 W _ZN13CLR_RT_Thread17SetThreadPriorityEi
0803014c T _ZN13CLR_RT_Thread18OnThreadTerminatedEv
0802ac88 T _ZN13CLR_RT_Thread19RTOS_Thread_ExecuteEv
0802ffa0 T _ZN13CLR_RT_Thread21ProtectFromGCCallbackEPv
0802fa94 T _ZN13CLR_RT_Thread22BringExecCounterToDateEii
0802b0b4 T _ZN13CLR_RT_Thread22Execute_DelegateInvokeEP17CLR_RT_StackFrame
0802fb2c T _ZN13CLR_RT_Thread22PushThreadProcDelegateEP25CLR_RT_HeapBlock_Delegate
08030660 T _ZN13CLR_RT_Thread23ProcessException_Phase1Ev
08030b20 T _ZN13CLR_RT_Thread23ProcessException_Phase2Ev
080303c0 T _ZN13CLR_RT_Thread26ProcessException_EndFilterEv
0803052c T _ZN13CLR_RT_Thread27ProcessException_EndFinallyEv
08030354 T _ZN13CLR_RT_Thread42ProcessException_FilterPseudoFrameCopyVarsEP17CLR_RT_StackFrameS1_
080300a8 T _ZN13CLR_RT_Thread5AbortEv
0801a2d0 W _ZN13CLR_RT_Thread5PopEHEP17CLR_RT_StackFramePKh
0802a5c4 T _ZN13CLR_RT_Thread6PushEHEv
0803000c T _ZN13CLR_RT_Thread6ResumeEv
0802aaac T _ZN13CLR_RT_Thread7ExecuteEv
08030100 T _ZN13CLR_RT_Thread7RestartEb
0802ffc4 T _ZN13CLR_RT_Thread7SuspendEv
08030290 T _ZN13CLR_RT_Thread8RelocateEv
08030190 T _ZN13CLR_RT_Thread9PassivateEv
08030058 T _ZN13CLR_RT_Thread9TerminateEv
08002d20 T _ZN13MfReleaseInfo4InitERS_ttttPKcj
0804d578 T _ZN13NeighborTable14InsertNeighborEt14NeighborStatusy
0804d5fc T _ZN13NeighborTable14UpdateNeighborEt14NeighborStatusy
0804d514 T _ZN13NeighborTable9FindIndexEt
080089c8 T _ZN13WP_Controller10InitializeEPKcPK16WP_PhysicalLayerPK19WP_ApplicationLayerPv
08008a30 T _ZN13WP_Controller12AdvanceStateEv
08008a50 T _ZN13WP_Controller19SendProtocolMessageERK10WP_Message
08008a78 T _ZN13WP_Controller19SendProtocolMessageEjjjPh
0804186c T _ZN14CLR_GFX_Bitmap14CreateInstanceER16CLR_RT_HeapBlockPKhjP15CLR_RT_Assembly
080518d0 W _ZN14CircularBufferI7MessageI19IEEE802_15_4_HeaderLt113E19IEEE802_15_4_Footer21IEEE802_15_4_MetadataELh8EE10InitializeEv
08051980 W _ZN14CircularBufferI7MessageI19IEEE802_15_4_HeaderLt113E19IEEE802_15_4_Footer21IEEE802_15_4_MetadataELh8EE17GetNextFreeBufferEv
08051a8c W _ZN14CircularBufferI7MessageI19IEEE802_15_4_HeaderLt113E19IEEE802_15_4_Footer21IEEE802_15_4_MetadataELh8EE18GetFirstFullBufferEv
08051808 W _ZN14CircularBufferI7MessageI19IEEE802_15_4_HeaderLt113E19IEEE802_15_4_Footer21IEEE802_15_4_MetadataELh8EE20GetNextFreeBufferPtrEv
080519f4 W _ZN14CircularBufferI7MessageI19IEEE802_15_4_HeaderLt113E19IEEE802_15_4_Footer21IEEE802_15_4_MetadataELh8EE21GetFirstFullBufferPtrEv
080518b8 W _ZN14CircularBufferI7MessageI19IEEE802_15_4_HeaderLt113E19IEEE802_15_4_Footer21IEEE802_15_4_MetadataELh8EE4SizeEv
08051940 W _ZN14CircularBufferI7MessageI19IEEE802_15_4_HeaderLt113E19IEEE802_15_4_Footer21IEEE802_15_4_MetadataELh8EE6IsFullEv
080517a4 W _ZN14CircularBufferI7MessageI19IEEE802_15_4_HeaderLt113E19IEEE802_15_4_Footer21IEEE802_15_4_MetadataELh8EE7IsEmptyEv
08010f04 T _ZN14HAL_COMPLETION12EnqueueDeltaEj
08010dec T _ZN14HAL_COMPLETION12EnqueueTicksEy
080110ac T _ZN14HAL_COMPLETION12UninitializeEv
08010d38 T _ZN14HAL_COMPLETION14DequeueAndExecEv
08010ec0 T _ZN14HAL_COMPLETION14EnqueueDelta64Ey
08010d24 T _ZN14HAL_COMPLETION14InitializeListEv
0800a33c W _ZN14HAL_COMPLETION16InitializeForISREPFvPvES0_
08010fbc T _ZN14HAL_COMPLETION17WaitForInterruptsEyjy
08010f24 T _ZN14HAL_COMPLETION5AbortEv
08010ccc T _ZN14HAL_COMPLETION7ExecuteEv
08018538 T _ZN14PalEventDriver10InitializeEv
0801856c T _ZN14PalEventDriver12UninitializeEv
200022bc B _ZN14PalEventDriver13s_initializedE
08041bc0 T _ZN15CLR_HW_Hardware12PrepareForGCEv
080418f4 T _ZN15CLR_HW_Hardware14CreateInstanceEv
08041b74 T _ZN15CLR_HW_Hardware14DeleteInstanceEv
08041bd4 T _ZN15CLR_HW_Hardware15ProcessActivityEv
08042dd4 T _ZN15CLR_HW_Hardware15SpawnDispatcherEv
08041b98 T _ZN15CLR_HW_Hardware16Hardware_CleanupEv
08042fcc T _ZN15CLR_HW_Hardware17ProcessInterruptsEv
08041e20 W _ZN15CLR_HW_Hardware18HalInterruptRecord10AssignFromERKS0_
0804192c T _ZN15CLR_HW_Hardware19Hardware_InitializeEv
08042d54 T _ZN15CLR_HW_Hardware19SpawnRTOSDispatcherEP27CLR_RT_ApplicationInterrupt
08042e98 T _ZN15CLR_HW_Hardware39TransferAllInterruptsToApplicationQueueEv
08019e48 W _ZN15CLR_RT_Assembly10DumpOpcodeEP17CLR_RT_StackFramePKh
08019c98 W _ZN15CLR_RT_Assembly10GetTypeDefEt
0802f850 T _ZN15CLR_RT_Assembly10InitStringEv
08034dac T _ZN15CLR_RT_Assembly11FindTypeDefEPKcS1_R20CLR_RT_TypeDef_Index
08034e6c T _ZN15CLR_RT_Assembly11FindTypeDefEPKctR20CLR_RT_TypeDef_Index
08034f0c T _ZN15CLR_RT_Assembly11FindTypeDefEjR20CLR_RT_TypeDef_Index
08019e1c W _ZN15CLR_RT_Assembly11GetByteCodeEt
08019cd0 W _ZN15CLR_RT_Assembly11GetFieldDefEt
08019d98 W _ZN15CLR_RT_Assembly11GetResourceEt
08019d30 W _ZN15CLR_RT_Assembly11GetTypeSpecEt
08035070 T _ZN15CLR_RT_Assembly12FindFieldDefEPK18CLR_RECORD_TYPEDEFPKcPS_tR21CLR_RT_FieldDef_Index
08019d00 W _ZN15CLR_RT_Assembly12GetMethodDefEt
08019df0 W _ZN15CLR_RT_Assembly12GetSignatureEt
08033958 T _ZN15CLR_RT_Assembly12Resolve_LinkEv
080355d8 T _ZN15CLR_RT_Assembly12VerifyEndianEP19CLR_RECORD_ASSEMBLY
080350f0 T _ZN15CLR_RT_Assembly13FindMethodDefEPK18CLR_RECORD_TYPEDEFPKcPS_tR22CLR_RT_MethodDef_Index
08032dd4 T _ZN15CLR_RT_Assembly14CreateInstanceEPK19CLR_RECORD_ASSEMBLYRPS_
08043730 W _ZN15CLR_RT_Assembly14GetAssemblyRefEt
0803354c T _ZN15CLR_RT_Assembly15DestroyInstanceEv
08019dc8 W _ZN15CLR_RT_Assembly15GetResourceDataEj
08019d60 W _ZN15CLR_RT_Assembly15GetResourceFileEt
080349c0 T _ZN15CLR_RT_Assembly15Resolve_TypeDefEv
0803358c T _ZN15CLR_RT_Assembly15Resolve_TypeRefEv
08033700 T _ZN15CLR_RT_Assembly16Resolve_FieldRefEv
08034a68 T _ZN15CLR_RT_Assembly17Resolve_MethodDefEv
080337f0 T _ZN15CLR_RT_Assembly17Resolve_MethodRefEv
080354e4 T _ZN15CLR_RT_Assembly18ComputeHashForNameERK20CLR_RT_TypeDef_Indexj
0803555c T _ZN15CLR_RT_Assembly18ComputeHashForTypeE12CLR_DataTypej
08032c04 T _ZN15CLR_RT_Assembly19Assembly_InitializeERNS_7OffsetsE
08034d78 T _ZN15CLR_RT_Assembly19ComputeAssemblyHashEPK22CLR_RECORD_ASSEMBLYREF
08034d50 T _ZN15CLR_RT_Assembly19ComputeAssemblyHashEv
08034c30 T _ZN15CLR_RT_Assembly19PrepareForExecutionEv
08033400 T _ZN15CLR_RT_Assembly19Resolve_AssemblyRefEb
080351f8 T _ZN15CLR_RT_Assembly20FindMethodBoundariesEtRtS0_
08035318 T _ZN15CLR_RT_Assembly21Resolve_ComputeHashesEv
08035280 T _ZN15CLR_RT_Assembly25FindNextStaticConstructorER22CLR_RT_MethodDef_Index
08034b84 T _ZN15CLR_RT_Assembly28Resolve_AllocateStaticFieldsEP16CLR_RT_HeapBlock
08019c68 W _ZN15CLR_RT_Assembly8GetTableE14CLR_TABLESENUM
08035598 T _ZN15CLR_RT_Assembly8RelocateEv
0802f85c T _ZN15CLR_RT_Assembly9GetStringEt
08051d44 T _ZN15HALTimerManager10InitializeEv
08051e14 T _ZN15HALTimerManager11CreateTimerEhjjjjPFvPvE
08051d0c W _ZN15HALTimerManager11get_m_timerEv
08051c5c W _ZN15HALTimerManager14DoesTimerExistEh
08051cd4 W _ZN15HALTimerManager18GetActiveTimerListEv
20007681 B _ZN15HALTimerManager19m_current_timer_id_E
08051d24 W _ZN15HALTimerManager20get_timer_resolutionEv
08051cf0 W _ZN15HALTimerManager29get_m_number_of_active_timersEv
08011788 W _ZN15I2C_HAL_XACTION10CheckStateEh
080119c8 T _ZN15I2C_HAL_XACTION10InitializeER22I2C_USER_CONFIGURATIONPP20I2C_HAL_XACTION_UNITj
08011734 W _ZN15I2C_HAL_XACTION11SetCallbackEPFvPvE
080117bc W _ZN15I2C_HAL_XACTION15TransactedBytesEv
08011770 W _ZN15I2C_HAL_XACTION8GetStateEv
08011754 W _ZN15I2C_HAL_XACTION8SetStateEh
0804d808 W _ZN15MacEventHandler17SetRecieveHandlerEPFvPvtE
0804d824 W _ZN15MacEventHandler17SetSendAckHandlerEPFvPvt11NetOpStatusE
08018228 T _ZN15Watchdog_Driver13GetSetEnabledEjj
08018298 T _ZN15Watchdog_Driver13GetSetTimeoutEij
0801834c T _ZN15Watchdog_Driver13LastOccurenceERNS_13WatchdogEventEj
08018214 W _ZN15Watchdog_Driver13WatchdogEvent13GetDriverNameEv
080181bc W _ZN15Watchdog_Driver13WatchdogEvent4LoadEv
080181e8 W _ZN15Watchdog_Driver13WatchdogEvent6CommitEv
08018304 T _ZN15Watchdog_Driver14GetSetBehaviorE17Watchdog_Behaviorj
08018380 T _ZN15Watchdog_Driver16WatchdogCallbackEPv
08008c2c T _ZN16BlockStorageList10InitializeEv
20000fb8 B _ZN16BlockStorageList12s_deviceListE
08008fa4 T _ZN16BlockStorageList13GetNextDeviceER18BlockStorageDevice
20000fc8 B _ZN16BlockStorageList13s_InitializedE
08008f78 T _ZN16BlockStorageList14GetFirstDeviceEv
20000fc4 B _ZN16BlockStorageList15s_primaryDeviceE
08008c5c T _ZN16BlockStorageList17InitializeDevicesEv
08008d54 T _ZN16BlockStorageList19UnInitializeDevicesEv
08008e5c T _ZN16BlockStorageList28FindDeviceForPhysicalAddressEPP18BlockStorageDevicejRj
08008de8 T _ZN16BlockStorageList9AddDeviceEP18BlockStorageDeviceP19IBlockStorageDevicePvj
08001ae0 T _ZN16CLR_DBG_Debugger10PurgeCacheEv
08002478 T _ZN16CLR_DBG_Debugger12AccessMemoryEjjPhi
08003ab0 T _ZN16CLR_DBG_Debugger12CheckTypeDefERK20CLR_RT_TypeDef_IndexR23CLR_RT_TypeDef_Instance
08001ed8 T _ZN16CLR_DBG_Debugger12Monitor_PingEP10WP_MessagePv
08003b10 T _ZN16CLR_DBG_Debugger13CheckFieldDefERK21CLR_RT_FieldDef_IndexR24CLR_RT_FieldDef_Instance
08003b70 T _ZN16CLR_DBG_Debugger14CheckMethodDefERK22CLR_RT_MethodDef_IndexR25CLR_RT_MethodDef_Instance
080018e4 T _ZN16CLR_DBG_Debugger14CreateInstanceEv
08001a78 T _ZN16CLR_DBG_Debugger14DeleteInstanceEv
08003a40 T _ZN16CLR_DBG_Debugger14IsGoodAssemblyEt
08002a00 T _ZN16CLR_DBG_Debugger14Monitor_RebootEP10WP_MessagePv
08002264 T _ZN16CLR_DBG_Debugger15CheckPermissionEji
08003bd0 T _ZN16CLR_DBG_Debugger15CheckStackFrameEjjRb
080029c4 T _ZN16CLR_DBG_Debugger15Monitor_ExecuteEP10WP_MessagePv
08001ac0 T _ZN16CLR_DBG_Debugger15ProcessCommandsEv
08001aa4 T _ZN16CLR_DBG_Debugger16Debugger_CleanupEv
08001b54 T _ZN16CLR_DBG_Debugger16GetThreadFromPidEj
08001cec T _ZN16CLR_DBG_Debugger17CreateListOfCallsEjRPN16CLR_DBG_Commands22Debugging_Thread_Stack5ReplyERi
08002ae4 T _ZN16CLR_DBG_Debugger17Monitor_MemoryMapEP10WP_MessagePv
080017dc T _ZN16CLR_DBG_Debugger18Debugger_DiscoveryEv
08001afc T _ZN16CLR_DBG_Debugger18GetAppDomainFromIDEj
080027d8 T _ZN16CLR_DBG_Debugger18Monitor_ReadMemoryEP10WP_MessagePv
08001bec T _ZN16CLR_DBG_Debugger19CreateListOfThreadsERPN16CLR_DBG_Commands21Debugging_Thread_List5ReplyERi
08001a20 T _ZN16CLR_DBG_Debugger19Debugger_InitializeEi
08002900 T _ZN16CLR_DBG_Debugger19Monitor_CheckMemoryEP10WP_MessagePv
0800295c T _ZN16CLR_DBG_Debugger19Monitor_EraseMemoryEP10WP_MessagePv
08002898 T _ZN16CLR_DBG_Debugger19Monitor_WriteMemoryEP10WP_MessagePv
08004440 T _ZN16CLR_DBG_Debugger20Debugging_Stack_InfoEP10WP_MessagePv
08004174 T _ZN16CLR_DBG_Debugger20Debugging_Thread_GetEP10WP_MessagePv
08006230 T _ZN16CLR_DBG_Debugger21Debugging_Info_SetJMCEP10WP_MessagePv
08004568 T _ZN16CLR_DBG_Debugger21Debugging_Stack_SetIPEP10WP_MessagePv
08004050 T _ZN16CLR_DBG_Debugger21Debugging_Thread_KillEP10WP_MessagePv
08003f48 T _ZN16CLR_DBG_Debugger21Debugging_Thread_ListEP10WP_MessagePv
08002b5c T _ZN16CLR_DBG_Debugger21Monitor_DeploymentMapEP10WP_MessagePv
08005aa8 T _ZN16CLR_DBG_Debugger22Debugging_Resolve_TypeEP10WP_MessagePv
08003fc8 T _ZN16CLR_DBG_Debugger22Debugging_Thread_StackEP10WP_MessagePv
08002fd8 T _ZN16CLR_DBG_Debugger22Debugging_UpgradeToSslEP10WP_MessagePv
0800561c T _ZN16CLR_DBG_Debugger22Debugging_Value_AssignEP10WP_MessagePv
08002014 T _ZN16CLR_DBG_Debugger22Monitor_FlashSectorMapEP10WP_MessagePv
08005b74 T _ZN16CLR_DBG_Debugger23Debugging_Resolve_FieldEP10WP_MessagePv
08004118 T _ZN16CLR_DBG_Debugger23Debugging_Thread_ResumeEP10WP_MessagePv
08004368 T _ZN16CLR_DBG_Debugger23Debugging_Thread_UnwindEP10WP_MessagePv
08001778 T _ZN16CLR_DBG_Debugger24Debugger_WaitForCommandsEv
08003070 T _ZN16CLR_DBG_Debugger24Debugging_MFUpdate_StartEP10WP_MessagePv
08005c74 T _ZN16CLR_DBG_Debugger24Debugging_Resolve_MethodEP10WP_MessagePv
080040bc T _ZN16CLR_DBG_Debugger24Debugging_Thread_SuspendEP10WP_MessagePv
08004e90 T _ZN16CLR_DBG_Debugger24Debugging_Value_GetArrayEP10WP_MessagePv
08004fa0 T _ZN16CLR_DBG_Debugger24Debugging_Value_GetBlockEP10WP_MessagePv
08004c4c T _ZN16CLR_DBG_Debugger24Debugging_Value_GetFieldEP10WP_MessagePv
08004950 T _ZN16CLR_DBG_Debugger24Debugging_Value_GetStackEP10WP_MessagePv
08005074 T _ZN16CLR_DBG_Debugger24Debugging_Value_SetArrayEP10WP_MessagePv
08005020 T _ZN16CLR_DBG_Debugger24Debugging_Value_SetBlockEP10WP_MessagePv
08003ec8 T _ZN16CLR_DBG_Debugger25Debugging_Thread_CreateExEP10WP_MessagePv
20000d58 B _ZN16CLR_DBG_Debugger25m_deploymentStorageDeviceE
08006188 T _ZN16CLR_DBG_Debugger26Debugging_Info_SetJMC_TypeERK20CLR_RT_TypeDef_Indexb
08003578 T _ZN16CLR_DBG_Debugger26Debugging_MFUpdate_InstallEP10WP_MessagePv
080059c4 T _ZN16CLR_DBG_Debugger26Debugging_Resolve_AssemblyEP10WP_MessagePv
08005e04 T _ZN16CLR_DBG_Debugger27Debugging_Deployment_StatusEP10WP_MessagePv
08002b78 T _ZN16CLR_DBG_Debugger27Debugging_Execution_BasePtrEP10WP_MessagePv
08005830 T _ZN16CLR_DBG_Debugger27Debugging_Resolve_AppDomainEP10WP_MessagePv
08002f78 T _ZN16CLR_DBG_Debugger28Debugging_Execution_AllocateEP10WP_MessagePv
08006124 T _ZN16CLR_DBG_Debugger28Debugging_Info_SetJMC_MethodERK22CLR_RT_MethodDef_Indexb
08003440 T _ZN16CLR_DBG_Debugger28Debugging_MFUpdate_AddPacketEP10WP_MessagePv
08005760 T _ZN16CLR_DBG_Debugger28Debugging_TypeSys_AppDomainsEP10WP_MessagePv
08005684 T _ZN16CLR_DBG_Debugger28Debugging_TypeSys_AssembliesEP10WP_MessagePv
08004310 T _ZN16CLR_DBG_Debugger29Debugging_Thread_GetExceptionEP10WP_MessagePv
08005280 T _ZN16CLR_DBG_Debugger29Debugging_Value_AllocateArrayEP10WP_MessagePv
08004fdc T _ZN16CLR_DBG_Debugger29Debugging_Value_GetScratchPadEP10WP_MessagePv
0800310c T _ZN16CLR_DBG_Debugger30Debugging_MFUpdate_AuthCommandEP10WP_MessagePv
08005174 T _ZN16CLR_DBG_Debugger30Debugging_Value_AllocateObjectEP10WP_MessagePv
080051ec T _ZN16CLR_DBG_Debugger30Debugging_Value_AllocateStringEP10WP_MessagePv
08003970 T _ZN16CLR_DBG_Debugger31Debugging_Execution_BreakpointsEP10WP_MessagePv
08003230 T _ZN16CLR_DBG_Debugger31Debugging_MFUpdate_AuthenticateEP10WP_MessagePv
08005d78 T _ZN16CLR_DBG_Debugger31Debugging_Resolve_VirtualMethodEP10WP_MessagePv
08004854 T _ZN16CLR_DBG_Debugger32Debugging_Value_ResizeScratchPadEP10WP_MessagePv
08003340 T _ZN16CLR_DBG_Debugger33Debugging_MFUpdate_GetMissingPktsEP10WP_MessagePv
080039d4 T _ZN16CLR_DBG_Debugger36Debugging_Execution_BreakpointStatusEP10WP_MessagePv
08002bc0 T _ZN16CLR_DBG_Debugger36Debugging_Execution_ChangeConditionsEP10WP_MessagePv
0800390c T _ZN16CLR_DBG_Debugger39Debugging_Execution_SetCurrentAppDomainEP10WP_MessagePv
08002d7c T _ZN16CLR_DBG_Debugger40Debugging_Execution_QueryCLRCapabilitiesEP10WP_MessagePv
0800385c T _ZN16CLR_DBG_Debugger8GetValueEP10WP_MessageP16CLR_RT_HeapBlockS3_P23CLR_RT_TypeDef_Instance
08033d70 T _ZN16CLR_RT_AppDomain12LoadAssemblyEP15CLR_RT_Assembly
080346d4 T _ZN16CLR_RT_AppDomain13GetAssembliesER16CLR_RT_HeapBlock
08034168 T _ZN16CLR_RT_AppDomain13MarshalObjectER16CLR_RT_HeapBlockS1_PS_
08033c58 T _ZN16CLR_RT_AppDomain13RecoverFromGCEv
08033b2c T _ZN16CLR_RT_AppDomain14CreateInstanceEPKcRPS_
08033d40 T _ZN16CLR_RT_AppDomain15DestroyInstanceEv
08033ee0 T _ZN16CLR_RT_AppDomain16GetManagedObjectER16CLR_RT_HeapBlock
080344d4 T _ZN16CLR_RT_AppDomain17MarshalParametersEP16CLR_RT_HeapBlockS1_ibPS_
08034108 T _ZN16CLR_RT_AppDomain18VerifyTypeIsLoadedERK20CLR_RT_TypeDef_Index
08033c8c T _ZN16CLR_RT_AppDomain20AppDomain_InitializeEv
0803405c T _ZN16CLR_RT_AppDomain21FindAppDomainAssemblyEP15CLR_RT_Assembly
08033cf8 T _ZN16CLR_RT_AppDomain22AppDomain_UninitializeEv
080347fc T _ZN16CLR_RT_AppDomain8IsLoadedEv
080340d4 T _ZN16CLR_RT_AppDomain8RelocateEv
08019764 W _ZN16CLR_RT_HeapBlock10AssignDataERKS_
0802a1c4 T _ZN16CLR_RT_HeapBlock10InitObjectEv
0802334c T _ZN16CLR_RT_HeapBlock10NumericAddERKS_
080236cc T _ZN16CLR_RT_HeapBlock10NumericDivERKS_
080235bc T _ZN16CLR_RT_HeapBlock10NumericMulERKS_
08023ba4 T _ZN16CLR_RT_HeapBlock10NumericNegEv
08023854 T _ZN16CLR_RT_HeapBlock10NumericRemERKS_
08023a20 T _ZN16CLR_RT_HeapBlock10NumericShlERKS_
08023a94 T _ZN16CLR_RT_HeapBlock10NumericShrERKS_
08023480 T _ZN16CLR_RT_HeapBlock10NumericSubERKS_
080191f8 W _ZN16CLR_RT_HeapBlock10ResetFlagsEh
08019394 W _ZN16CLR_RT_HeapBlock10SetBooleanEb
08001318 W _ZN16CLR_RT_HeapBlock10SetIntegerERKx
08019444 W _ZN16CLR_RT_HeapBlock10SetIntegerERKy
0804a4a8 W _ZN16CLR_RT_HeapBlock10SetIntegerEa
0804a500 W _ZN16CLR_RT_HeapBlock10SetIntegerEh
080193f4 W _ZN16CLR_RT_HeapBlock10SetIntegerEi
080193c8 W _ZN16CLR_RT_HeapBlock10SetIntegerEih
0801941c W _ZN16CLR_RT_HeapBlock10SetIntegerEj
0804a4d4 W _ZN16CLR_RT_HeapBlock10SetIntegerEs
08043708 W _ZN16CLR_RT_HeapBlock10SetIntegerEt
08022574 T _ZN16CLR_RT_HeapBlock11GetHashCodeEPS_bj
080013e0 W _ZN16CLR_RT_HeapBlock12NumericByRefEv
080237b4 T _ZN16CLR_RT_HeapBlock12NumericDivUnERKS_
0802398c T _ZN16CLR_RT_HeapBlock12NumericRemUnERKS_
08023b30 T _ZN16CLR_RT_HeapBlock12NumericShrUnERKS_
08022790 T _ZN16CLR_RT_HeapBlock12ObjectsEqualERKS_S1_b
08023e20 T _ZN16CLR_RT_HeapBlock12Relocate_ClsEv
08023e04 T _ZN16CLR_RT_HeapBlock12Relocate_ObjEv
08023e58 T _ZN16CLR_RT_HeapBlock12Relocate_RefEv
08021550 T _ZN16CLR_RT_HeapBlock12SetObjectClsERK20CLR_RT_TypeDef_Index
08019560 W _ZN16CLR_RT_HeapBlock12SetReferenceERS_
0802209c T _ZN16CLR_RT_HeapBlock13PerformBoxingERK23CLR_RT_TypeDef_Instance
080196bc W _ZN16CLR_RT_HeapBlock13SetObjectLockEP21CLR_RT_HeapBlock_Lock
08021454 T _ZN16CLR_RT_HeapBlock13SetReflectionERK20CLR_RT_TypeDef_Index
080213b8 T _ZN16CLR_RT_HeapBlock13SetReflectionERK21CLR_RT_Assembly_Index
08021498 T _ZN16CLR_RT_HeapBlock13SetReflectionERK21CLR_RT_FieldDef_Index
080213fc T _ZN16CLR_RT_HeapBlock13SetReflectionERK21CLR_RT_TypeSpec_Index
080214dc T _ZN16CLR_RT_HeapBlock13SetReflectionERK22CLR_RT_MethodDef_Index
0802137c T _ZN16CLR_RT_HeapBlock13SetReflectionERK26CLR_RT_ReflectionDef_Index
08019668 W _ZN16CLR_RT_HeapBlock13SetStringTextEPKcP15CLR_RT_Assembly
08001298 W _ZN16CLR_RT_HeapBlock14ChangeDataTypeEj
08022e18 T _ZN16CLR_RT_HeapBlock14Compare_ValuesERKS_S1_b
0800723c W _ZN16CLR_RT_HeapBlock14ReflectionDataEv
080191dc W _ZN16CLR_RT_HeapBlock15ChangeDataFlagsEj
08019324 W _ZN16CLR_RT_HeapBlock15MarkForcedAliveEv
08022230 T _ZN16CLR_RT_HeapBlock15PerformUnboxingERK23CLR_RT_TypeDef_Instance
08023ddc T _ZN16CLR_RT_HeapBlock15Relocate_StringEv
0802a2cc T _ZN16CLR_RT_HeapBlock16Convert_InternalE12CLR_DataType
08019228 W _ZN16CLR_RT_HeapBlock16Debug_ClearBlockEi
08021244 T _ZN16CLR_RT_HeapBlock16InitializeToZeroEv
080194cc W _ZN16CLR_RT_HeapBlock16SetFloatFromBitsEj
080218dc T _ZN16CLR_RT_HeapBlock16StoreToReferenceERS_i
080216c4 T _ZN16CLR_RT_HeapBlock17LoadFromReferenceERS_
08023e74 T _ZN16CLR_RT_HeapBlock17Relocate_ArrayRefEv
080194ec W _ZN16CLR_RT_HeapBlock17SetDoubleFromBitsERKy
08019340 W _ZN16CLR_RT_HeapBlock17UnmarkForcedAliveEv
0801923c W _ZN16CLR_RT_HeapBlock18Debug_CheckPointerEPv
08022364 T _ZN16CLR_RT_HeapBlock18FixBoxingReferenceEv
08001348 W _ZN16CLR_RT_HeapBlock18SetObjectReferenceEPKS_
08023d44 T _ZN16CLR_RT_HeapBlock19Relocate__HeapBlockEv
080197a4 W _ZN16CLR_RT_HeapBlock21AssignAndPreserveTypeERKS_
0801989c W _ZN16CLR_RT_HeapBlock21Compare_Signed_ValuesERKS_S1_
0802127c T _ZN16CLR_RT_HeapBlock21EnsureObjectReferenceERPS_
08021fa0 T _ZN16CLR_RT_HeapBlock21PerformBoxingIfNeededEv
08019708 W _ZN16CLR_RT_HeapBlock21SetBinaryBlobHandlersEPFvP27CLR_RT_HeapBlock_BinaryBlobES3_
08019878 W _ZN16CLR_RT_HeapBlock23Compare_Unsigned_ValuesERKS_S1_
0802159c T _ZN16CLR_RT_HeapBlock24InitializeArrayReferenceERS_i
08023e90 T _ZN16CLR_RT_HeapBlock25Relocate_TransparentProxyEv
08019020 W _ZN16CLR_RT_HeapBlock27CLR_RT_HeapBlock_AtomicData7Numeric2R8aSEd
08019194 W _ZN16CLR_RT_HeapBlock27CLR_RT_HeapBlock_AtomicData7Numeric2R8dvERKS2_
08019104 W _ZN16CLR_RT_HeapBlock27CLR_RT_HeapBlock_AtomicData7Numeric2R8mIERKS2_
0801914c W _ZN16CLR_RT_HeapBlock27CLR_RT_HeapBlock_AtomicData7Numeric2R8mlERKS2_
080190bc W _ZN16CLR_RT_HeapBlock27CLR_RT_HeapBlock_AtomicData7Numeric2R8pLERKS2_
08001204 W _ZN16CLR_RT_HeapBlock27CLR_RT_HeapBlock_AtomicData7Numeric2S8aSEx
08018e90 W _ZN16CLR_RT_HeapBlock27CLR_RT_HeapBlock_AtomicData7Numeric2S8dvERKS2_
08018df0 W _ZN16CLR_RT_HeapBlock27CLR_RT_HeapBlock_AtomicData7Numeric2S8mIERKS2_
08018e38 W _ZN16CLR_RT_HeapBlock27CLR_RT_HeapBlock_AtomicData7Numeric2S8mlERKS2_
08018da8 W _ZN16CLR_RT_HeapBlock27CLR_RT_HeapBlock_AtomicData7Numeric2S8pLERKS2_
08018ed8 W _ZN16CLR_RT_HeapBlock27CLR_RT_HeapBlock_AtomicData7Numeric2S8rMERKS2_
08018f1c W _ZN16CLR_RT_HeapBlock27CLR_RT_HeapBlock_AtomicData7Numeric2S8rSEj
08018c30 W _ZN16CLR_RT_HeapBlock27CLR_RT_HeapBlock_AtomicData7Numeric2U8aNERKS2_
08018a60 W _ZN16CLR_RT_HeapBlock27CLR_RT_HeapBlock_AtomicData7Numeric2U8aSEy
08018bc0 W _ZN16CLR_RT_HeapBlock27CLR_RT_HeapBlock_AtomicData7Numeric2U8coEv
08018b78 W _ZN16CLR_RT_HeapBlock27CLR_RT_HeapBlock_AtomicData7Numeric2U8dvERKS2_
08018ca0 W _ZN16CLR_RT_HeapBlock27CLR_RT_HeapBlock_AtomicData7Numeric2U8eOERKS2_
08018d40 W _ZN16CLR_RT_HeapBlock27CLR_RT_HeapBlock_AtomicData7Numeric2U8lSEj
08018ad8 W _ZN16CLR_RT_HeapBlock27CLR_RT_HeapBlock_AtomicData7Numeric2U8mIERKS2_
08018b20 W _ZN16CLR_RT_HeapBlock27CLR_RT_HeapBlock_AtomicData7Numeric2U8mlERKS2_
08018c68 W _ZN16CLR_RT_HeapBlock27CLR_RT_HeapBlock_AtomicData7Numeric2U8oRERKS2_
08018a90 W _ZN16CLR_RT_HeapBlock27CLR_RT_HeapBlock_AtomicData7Numeric2U8pLERKS2_
08018bec W _ZN16CLR_RT_HeapBlock27CLR_RT_HeapBlock_AtomicData7Numeric2U8rMERKS2_
08018cd8 W _ZN16CLR_RT_HeapBlock27CLR_RT_HeapBlock_AtomicData7Numeric2U8rSEj
08021f00 T _ZN16CLR_RT_HeapBlock28AssignAndPinReferencedObjectERKS_
08023c60 T _ZN16CLR_RT_HeapBlock28SetTransparentProxyReferenceEP16CLR_RT_AppDomainPS_
08019804 W _ZN16CLR_RT_HeapBlock29AssignPreserveTypeCheckPinnedERKS_
08021664 T _ZN16CLR_RT_HeapBlock30FixArrayReferenceForValueTypesEv
08021634 T _ZN16CLR_RT_HeapBlock30InitializeArrayReferenceDirectER22CLR_RT_HeapBlock_Arrayi
0801935c W _ZN16CLR_RT_HeapBlock3BoxEv
080192d0 W _ZN16CLR_RT_HeapBlock3PinEv
08019378 W _ZN16CLR_RT_HeapBlock5UnboxEv
080192ec W _ZN16CLR_RT_HeapBlock5UnpinEv
080014e8 W _ZN16CLR_RT_HeapBlock6AssignERKS_
08019854 W _ZN16CLR_RT_HeapBlock7ConvertE12CLR_DataTypebb
080224e4 T _ZN16CLR_RT_HeapBlock7PromoteEv
08019308 W _ZN16CLR_RT_HeapBlock8MarkDeadEv
08021cdc T _ZN16CLR_RT_HeapBlock8ReassignERKS_
08007d48 W _ZN16CLR_RT_HeapBlock8SetFlagsEh
08019474 W _ZN16CLR_RT_HeapBlock8SetFloatEf
0800631c W _ZN16CLR_RT_HeapBlock9ClearDataEv
08007d70 W _ZN16CLR_RT_HeapBlock9MarkAliveEv
0800127c W _ZN16CLR_RT_HeapBlock9SetDataIdEj
0801949c W _ZN16CLR_RT_HeapBlock9SetDoubleEd
0802f8b4 T _ZN16CLR_RT_SubThread14CreateInstanceEP13CLR_RT_ThreadP17CLR_RT_StackFrameiRPS_
0802f944 T _ZN16CLR_RT_SubThread15DestroyInstanceEP13CLR_RT_ThreadPS_i
0802fa38 T _ZN16CLR_RT_SubThread22ChangeLockRequestCountEi
0800a270 T _ZN16HAL_CONFIG_BLOCK11ApplyConfigEPKcPvj
0800a28c T _ZN16HAL_CONFIG_BLOCK11ApplyConfigEPKcPvjPS2_
0800a250 T _ZN16HAL_CONFIG_BLOCK19UpdateBlockWithNameEPKcPvjj
08011224 T _ZN16HAL_CONTINUATION12UninitializeEv
080110ec T _ZN16HAL_CONTINUATION14InitializeListEv
080111f8 T _ZN16HAL_CONTINUATION18InitializeCallbackEPFvPvES0_
0801117c T _ZN16HAL_CONTINUATION19Dequeue_And_ExecuteEv
0801114c T _ZN16HAL_CONTINUATION5AbortEv
08011100 T _ZN16HAL_CONTINUATION7EnqueueEv
0801a920 T _ZN17CLR_RT_EventCache11Append_NodeEP16CLR_RT_HeapBlock
0801abe4 T _ZN17CLR_RT_EventCache12Extract_NodeEjjj
0801aca0 T _ZN17CLR_RT_EventCache16FreeInlineBufferEP19CLR_RT_InlineBuffer
0801ab04 T _ZN17CLR_RT_EventCache17Extract_Node_FastEjjj
0801a994 T _ZN17CLR_RT_EventCache17Extract_Node_SlowEjjj
0801ac28 T _ZN17CLR_RT_EventCache17FindVirtualMethodERK20CLR_RT_TypeDef_IndexRK22CLR_RT_MethodDef_IndexRS3_
0801a868 T _ZN17CLR_RT_EventCache18EventCache_CleanupEv
0801aba8 T _ZN17CLR_RT_EventCache18Extract_Node_BytesEjjj
0801a400 T _ZN17CLR_RT_EventCache18VirtualMethodTable10InitializeEv
0801a2f8 W _ZN17CLR_RT_EventCache18VirtualMethodTable11GetNewEntryEv
0801a6e0 T _ZN17CLR_RT_EventCache18VirtualMethodTable14MoveEntryToTopEPNS_4LinkEjj
0801a510 T _ZN17CLR_RT_EventCache18VirtualMethodTable17FindVirtualMethodERK20CLR_RT_TypeDef_IndexRK22CLR_RT_MethodDef_IndexRS4_
0801ac54 T _ZN17CLR_RT_EventCache20GetInlineFrameBufferEPP19CLR_RT_InlineBuffer
0801a774 T _ZN17CLR_RT_EventCache21EventCache_InitializeEv
080377fc W _ZN17CLR_RT_StackFrame10MethodCallEv
08028324 T _ZN17CLR_RT_StackFrame10PushInlineERPKhRP15CLR_RT_AssemblyRP16CLR_RT_HeapBlockR25CLR_RT_MethodDef_InstanceS7_
08019fc0 W _ZN17CLR_RT_StackFrame10ResetStackEv
08049900 W _ZN17CLR_RT_StackFrame11PushValueI4Ei
08029638 T _ZN17CLR_RT_StackFrame12NegateResultEv
080286ec T _ZN17CLR_RT_StackFrame12RestoreStackER18CLR_RT_InlineFrame
0802951c T _ZN17CLR_RT_StackFrame12SetResult_I4Ei
08029540 T _ZN17CLR_RT_StackFrame12SetResult_I8ERx
080294f4 T _ZN17CLR_RT_StackFrame12SetResult_R8Ed
08029564 T _ZN17CLR_RT_StackFrame12SetResult_U4Ej
08029670 T _ZN17CLR_RT_StackFrame12SetupTimeoutER16CLR_RT_HeapBlockRPx
080295b0 T _ZN17CLR_RT_StackFrame16SetResult_ObjectEP16CLR_RT_HeapBlock
080295d4 T _ZN17CLR_RT_StackFrame16SetResult_StringEPKc
08001648 W _ZN17CLR_RT_StackFrame16TopValuePositionEv
08019fdc W _ZN17CLR_RT_StackFrame17PushValueAndClearEv
08029588 T _ZN17CLR_RT_StackFrame17SetResult_BooleanEb
08028fd0 T _ZN17CLR_RT_StackFrame18HandleSynchronizedEbb
08029878 T _ZN17CLR_RT_StackFrame18NotImplementedStubEv
0801a004 W _ZN17CLR_RT_StackFrame18PushValueAndAssignERK16CLR_RT_HeapBlock
08029600 T _ZN17CLR_RT_StackFrame22ConvertResultToBooleanEv
080287c0 T _ZN17CLR_RT_StackFrame22PopAppDomainTransitionEv
08028668 T _ZN17CLR_RT_StackFrame22RestoreFromInlineStackEv
08028a1c T _ZN17CLR_RT_StackFrame23PushAppDomainTransitionEP13CLR_RT_ThreadRK25CLR_RT_MethodDef_InstanceP16CLR_RT_HeapBlockS6_
08029108 T _ZN17CLR_RT_StackFrame3PopEv
08027f8c T _ZN17CLR_RT_StackFrame4PushEP13CLR_RT_ThreadRK25CLR_RT_MethodDef_Instancei
0801a02c W _ZN17CLR_RT_StackFrame6CallerEv
08028dd4 T _ZN17CLR_RT_StackFrame7FixCallEv
08028b38 T _ZN17CLR_RT_StackFrame8MakeCallE25CLR_RT_MethodDef_InstanceP16CLR_RT_HeapBlockS2_i
08019f8c W _ZN17CLR_RT_StackFrame8PopValueEv
080296f4 T _ZN17CLR_RT_StackFrame8RelocateEv
08019f3c W _ZN17CLR_RT_StackFrame8TopValueEv
080285b4 T _ZN17CLR_RT_StackFrame9PopInlineEv
08019f58 W _ZN17CLR_RT_StackFrame9PushValueEv
08028768 T _ZN17CLR_RT_StackFrame9SaveStackER18CLR_RT_InlineFrame
080294c8 T _ZN17CLR_RT_StackFrame9SetResultEi12CLR_DataType
080360a8 T _ZN17CLR_RT_TypeSystem10ResolveAllEv
08035a20 T _ZN17CLR_RT_TypeSystem11FindTypeDefEPKcP15CLR_RT_AssemblyR20CLR_RT_TypeDef_Index
08035c44 T _ZN17CLR_RT_TypeSystem11FindTypeDefEPKcP15CLR_RT_AssemblyR26CLR_RT_ReflectionDef_Index
08035874 T _ZN17CLR_RT_TypeSystem11FindTypeDefEPKcS1_P15CLR_RT_AssemblyR20CLR_RT_TypeDef_Index
08035924 T _ZN17CLR_RT_TypeSystem11FindTypeDefEPKcS1_R20CLR_RT_TypeDef_Index
080359a4 T _ZN17CLR_RT_TypeSystem11FindTypeDefEjR20CLR_RT_TypeDef_Index
080357bc T _ZN17CLR_RT_TypeSystem12FindAssemblyEPKcPK18CLR_RECORD_VERSIONb
08036a28 T _ZN17CLR_RT_TypeSystem13BuildTypeNameERK20CLR_RT_TypeDef_IndexRPcRj
08036a5c T _ZN17CLR_RT_TypeSystem13BuildTypeNameERK20CLR_RT_TypeDef_IndexRPcRjjj
08036cb8 T _ZN17CLR_RT_TypeSystem14BuildFieldNameERK21CLR_RT_FieldDef_IndexRPcRj
08035f94 T _ZN17CLR_RT_TypeSystem14LocateResourceE24CLR_RT_Assembly_InstanceisRPK19CLR_RECORD_RESOURCERj
080367d8 T _ZN17CLR_RT_TypeSystem14MatchSignatureER22CLR_RT_SignatureParserS1_
08036c14 T _ZN17CLR_RT_TypeSystem15BuildMethodNameERK22CLR_RT_MethodDef_IndexRPcRj
08035ef8 T _ZN17CLR_RT_TypeSystem18LocateResourceFileE24CLR_RT_Assembly_InstancePKcRi
08035680 T _ZN17CLR_RT_TypeSystem18TypeSystem_CleanupEv
08036714 T _ZN17CLR_RT_TypeSystem19PrepareForExecutionEv
080369cc T _ZN17CLR_RT_TypeSystem19QueueStringToBufferERPcRjPKc
08036ea8 T _ZN17CLR_RT_TypeSystem20FindVirtualMethodDefERK20CLR_RT_TypeDef_IndexRK22CLR_RT_MethodDef_IndexPKcRS3_
08036d5c T _ZN17CLR_RT_TypeSystem20FindVirtualMethodDefERK20CLR_RT_TypeDef_IndexRK22CLR_RT_MethodDef_IndexRS3_
08036820 T _ZN17CLR_RT_TypeSystem20MatchSignatureDirectER22CLR_RT_SignatureParserS1_b
080368cc T _ZN17CLR_RT_TypeSystem21MatchSignatureElementERN22CLR_RT_SignatureParser7ElementES2_b
08035768 T _ZN17CLR_RT_TypeSystem21PostLinkageProcessingEP15CLR_RT_Assembly
08035650 T _ZN17CLR_RT_TypeSystem21TypeSystem_InitializeEv
08037000 T _ZN17CLR_RT_TypeSystem24MapDataTypeToElementTypeE12CLR_DataType
08036694 T _ZN17CLR_RT_TypeSystem25PrepareForExecutionHelperEPKc
080356e4 T _ZN17CLR_RT_TypeSystem4LinkEP15CLR_RT_Assembly
0804dbb0 W _ZN17CLR_RT_TypedArrayIhE9GetBufferEv
0804db88 W _ZN17CLR_RT_TypedArrayIhEC1Ev
0804efd8 W _ZN17CLR_RT_TypedArrayItE8SetValueEjRt
0804efb0 W _ZN17CLR_RT_TypedArrayItEC1Ev
08011264 W _ZN17HAL_DblLinkedListI16HAL_CONTINUATIONE10InitializeEv
080113a8 W _ZN17HAL_DblLinkedListI16HAL_CONTINUATIONE10LinkAtBackEPS0_
0801137c W _ZN17HAL_DblLinkedListI16HAL_CONTINUATIONE16ExtractFirstNodeEv
0801130c W _ZN17HAL_DblLinkedListI16HAL_CONTINUATIONE16InsertBeforeNodeEPS0_S2_
0801143c W _ZN17HAL_DblLinkedListI16HAL_CONTINUATIONE6InsertEPS0_S2_S2_
080185a0 W _ZN17HAL_DblLinkedListI16PalEventListenerE10InitializeEv
08009968 W _ZN17HAL_DblLinkedListI18BlockStorageDeviceE10InitializeEv
08009a34 W _ZN17HAL_DblLinkedListI18BlockStorageDeviceE10LinkAtBackEPS0_
08009ad8 W _ZN17HAL_DblLinkedListI18BlockStorageDeviceE16InsertBeforeNodeEPS0_S2_
08009b58 W _ZN17HAL_DblLinkedListI18BlockStorageDeviceE6InsertEPS0_S2_S2_
0800a698 W _ZN17HAL_DblLinkedNodeI16HAL_CONTINUATIONE10InitializeEv
08011404 W _ZN17HAL_DblLinkedNodeI16HAL_CONTINUATIONE14RemoveFromListEv
080112c4 W _ZN17HAL_DblLinkedNodeI16HAL_CONTINUATIONE6UnlinkEv
08009a10 W _ZN17HAL_DblLinkedNodeI18BlockStorageDeviceE10InitializeEv
08009b20 W _ZN17HAL_DblLinkedNodeI18BlockStorageDeviceE14RemoveFromListEv
080099c8 W _ZN17HAL_DblLinkedNodeI18BlockStorageDeviceE6UnlinkEv
0804ff88 W _ZN17RadioEventHandler17GetRecieveHandlerEv
0804ffa0 W _ZN17RadioEventHandler17GetSendAckHandlerEv
0804e144 W _ZN17RadioEventHandler17SetRecieveHandlerEPFPvS0_tE
0804ff50 W _ZN17RadioEventHandler17SetSendAckHandlerEPFvPvt11NetOpStatusE
0804ff6c W _ZN17RadioEventHandler24SetRadioInterruptHandlerEPFj14RadioInterruptPvE
08014f28 T _ZN17STM32_AITC_Driver10InitializeEv
20000000 D _ZN17STM32_AITC_Driver10s_IsrTableE
08016668 T _ZN17STM32_AITC_Driver14IRQToIRQVectorEj
080166a8 T _ZN17STM32_AITC_Driver14STUB_ISRVectorEPv
08014fec T _ZN17STM32_AITC_Driver17ActivateInterruptEjjPFvPvES0_
08015060 T _ZN17STM32_AITC_Driver19DeactivateInterruptEj
08016644 T _ZN17STM32_AITC_Driver20InterruptEnableStateEj
08000450 W _ZN18BlockStorageDevice13GetDeviceInfoEv
08000ea0 W _ZN18BlockStorageDevice13IsBlockErasedEjj
08008b7c W _ZN18BlockStorageDevice16InitializeDeviceEv
08008bc4 W _ZN18BlockStorageDevice17FindForBlockUsageEjRjS0_S0_
08008bf8 W _ZN18BlockStorageDevice18FindNextUsageBlockEjRjS0_S0_
08000f48 W _ZN18BlockStorageDevice18MaxBlockErase_uSecEv
08008ba0 W _ZN18BlockStorageDevice18UninitializeDeviceEv
08000f24 W _ZN18BlockStorageDevice19MaxSectorWrite_uSecEv
08000ef4 W _ZN18BlockStorageDevice21FindRegionFromAddressEjRjS0_
08000474 W _ZN18BlockStorageDevice4ReadEjjPh
08000e6c W _ZN18BlockStorageDevice5WriteEjjPhj
08009000 T _ZN18BlockStorageStream10InitializeEj
08009024 T _ZN18BlockStorageStream10InitializeEjP18BlockStorageDevice
080092dc T _ZN18BlockStorageStream10NextStreamEv
080090f0 T _ZN18BlockStorageStream10PrevStreamEv
080090d0 T _ZN18BlockStorageStream14CurrentAddressEv
08009610 T _ZN18BlockStorageStream4ReadEPPhj
080094e8 T _ZN18BlockStorageStream4SeekEiNS_10SeekOriginE
0802739c T _ZN18CLR_RT_HeapCluster13ExtractBlocksEjjj
08027718 T _ZN18CLR_RT_HeapCluster13InsertInOrderEP21CLR_RT_HeapBlock_Nodej
0802758c T _ZN18CLR_RT_HeapCluster13RecoverFromGCEv
08019e8c W _ZN18CLR_RT_HeapCluster13ValidateBlockEP16CLR_RT_HeapBlock
08027270 T _ZN18CLR_RT_HeapCluster22HeapCluster_InitializeEjj
08011f90 T _ZN18STM32F10x_blDriver10EraseBlockEPvj
08011cf0 T _ZN18STM32F10x_blDriver13GetDeviceInfoEPv
08011f60 T _ZN18STM32F10x_blDriver13IsBlockErasedEPvjj
080120a4 T _ZN18STM32F10x_blDriver13SetPowerStateEPvj
08011cc0 T _ZN18STM32F10x_blDriver16InitializeDeviceEPv
08011f28 T _ZN18STM32F10x_blDriver17GetSectorMetadataEPvjP14SectorMetadata
08011f44 T _ZN18STM32F10x_blDriver17SetSectorMetadataEPvjP14SectorMetadata
080120d8 T _ZN18STM32F10x_blDriver18MaxBlockErase_uSecEPv
08011cd8 T _ZN18STM32F10x_blDriver18UninitializeDeviceEPv
080120b8 T _ZN18STM32F10x_blDriver19MaxSectorWrite_uSecEPv
08011d0c T _ZN18STM32F10x_blDriver4ReadEPvjjPh
08011d30 T _ZN18STM32F10x_blDriver5WriteEPvjjPhj
08011e5c T _ZN18STM32F10x_blDriver6MemsetEPvjhj
080329f4 T _ZN19CLR_RECORD_ASSEMBLY19ComputeAssemblyHashEPKcRK18CLR_RECORD_VERSION
08010958 W _ZN19Hal_Queue_KnownSizeI12USB_PACKET64Lj2EE10InitializeEv
08010ab0 W _ZN19Hal_Queue_KnownSizeI12USB_PACKET64Lj2EE16NumberOfElementsEv
08010a40 W _ZN19Hal_Queue_KnownSizeI12USB_PACKET64Lj2EE3PopEv
080109f4 W _ZN19Hal_Queue_KnownSizeI12USB_PACKET64Lj2EE4PeekEv
08010984 W _ZN19Hal_Queue_KnownSizeI12USB_PACKET64Lj2EE4PushEv
08010afc W _ZN19Hal_Queue_KnownSizeI12USB_PACKET64Lj2EE7IsEmptyEv
0804e160 W _ZN19IEEE802_15_4_Header9GetLengthEv
0804ffb8 W _ZN19IEEE802_15_4_Header9SetLengthEh
08052364 T _ZN19LCD_PCF85162_Driver10InitializeEv
08052488 T _ZN19LCD_PCF85162_Driver12UninitializeEv
08052a98 T _ZN19LCD_PCF85162_Driver13WriteRawBytesEiiii
08052ca0 T _ZN19LCD_PCF85162_Driver5BlinkEi
08052770 T _ZN19LCD_PCF85162_Driver5SetDPEbbbb
080524d0 T _ZN19LCD_PCF85162_Driver5WriteEiiii
080527bc T _ZN19LCD_PCF85162_Driver6WriteNEii
08006534 W _ZN20CLR_RT_DblLinkedList10LinkAtBackEP21CLR_RT_HeapBlock_Node
080211cc T _ZN20CLR_RT_DblLinkedList10NumOfNodesEv
08006510 W _ZN20CLR_RT_DblLinkedList11LinkAtFrontEP21CLR_RT_HeapBlock_Node
0800643c W _ZN20CLR_RT_DblLinkedList12ValidateListEv
080064c8 W _ZN20CLR_RT_DblLinkedList15InsertAfterNodeEP21CLR_RT_HeapBlock_NodeS1_
08019958 W _ZN20CLR_RT_DblLinkedList16ExtractFirstNodeEv
08006480 W _ZN20CLR_RT_DblLinkedList16InsertBeforeNodeEP21CLR_RT_HeapBlock_NodeS1_
0802119c T _ZN20CLR_RT_DblLinkedList21DblLinkedList_ReleaseEv
08021130 T _ZN20CLR_RT_DblLinkedList24DblLinkedList_InitializeEv
08021160 T _ZN20CLR_RT_DblLinkedList25DblLinkedList_PushToCacheEv
08006450 W _ZN20CLR_RT_DblLinkedList6InsertEP21CLR_RT_HeapBlock_NodeS1_S1_
08021220 T _ZN20CLR_RT_DblLinkedList8RelocateEv
08019988 W _ZN20CLR_RT_DblLinkedListC1Ev
0800176c W _ZN20CLR_RT_EmulatorHooks28Notify_ExecutionStateChangedEv
0801f2e4 T _ZN20CLR_RT_ProtectFromGC10InitializeEPPvPFvS0_E
0801f284 T _ZN20CLR_RT_ProtectFromGC10InitializeER16CLR_RT_HeapBlock
0801f360 T _ZN20CLR_RT_ProtectFromGC6InvokeEv
0801f328 T _ZN20CLR_RT_ProtectFromGC7CleanupEv
20002b30 B _ZN20CLR_RT_ProtectFromGC7s_firstE
0801f3a8 T _ZN20CLR_RT_ProtectFromGC9InvokeAllEv
0801a048 W _ZN20CLR_RT_ProtectFromGCC1EPPvPFvS0_E
08001690 W _ZN20CLR_RT_ProtectFromGCC1ER16CLR_RT_HeapBlock
080016b0 W _ZN20CLR_RT_ProtectFromGCD1Ev
08000fd4 W _ZN20CLR_RT_TypeDef_Index3SetEjj
08018944 W _ZN20CLR_RT_TypeDef_Index5ClearEv
08019c30 W _ZN20CLR_RT_UnicodeHelper12SetInputUTF8EPKc
08029f0c T _ZN20CLR_RT_UnicodeHelper13ConvertToUTF8Eib
08019c4c W _ZN20CLR_RT_UnicodeHelper13SetInputUTF16EPKt
08029b3c T _ZN20CLR_RT_UnicodeHelper15ConvertFromUTF8Eibi
08029a54 T _ZN20CLR_RT_UnicodeHelper18CountNumberOfBytesEi
080298a8 T _ZN20CLR_RT_UnicodeHelper23CountNumberOfCharactersEi
08011630 T _ZN20FileSystemVolumeList10InitializeEv
0801163c T _ZN20FileSystemVolumeList17InitializeVolumesEv
0801164c T _ZN20FileSystemVolumeList19UninitializeVolumesEv
080116a4 W _ZN20I2C_HAL_XACTION_UNIT10CopyBufferEPhj
0801195c T _ZN20I2C_HAL_XACTION_UNIT10InitializeEPhS0_jj
08011704 W _ZN20I2C_HAL_XACTION_UNIT16TransferredBytesEv
0801171c W _ZN20I2C_HAL_XACTION_UNIT17IsReadXActionUnitEv
08000f94 W _ZN21CLR_RT_Assembly_Index3SetEj
08001038 W _ZN21CLR_RT_FieldDef_Index3SetEjj
08018960 W _ZN21CLR_RT_FieldDef_Index5ClearEv
080257e8 T _ZN21CLR_RT_HeapBlock_Lock11ChangeOwnerEv
08025770 T _ZN21CLR_RT_HeapBlock_Lock12DestroyOwnerEP16CLR_RT_SubThread
08025684 T _ZN21CLR_RT_HeapBlock_Lock14CreateInstanceERPS_P13CLR_RT_ThreadR16CLR_RT_HeapBlock
08025ae4 T _ZN21CLR_RT_HeapBlock_Lock14Relocate_OwnerEv
08025a0c T _ZN21CLR_RT_HeapBlock_Lock18DecrementOwnershipEPS_P16CLR_RT_SubThread
0802592c T _ZN21CLR_RT_HeapBlock_Lock18IncrementOwnershipEPS_P16CLR_RT_SubThreadRKxb
08025ac8 T _ZN21CLR_RT_HeapBlock_Lock8RelocateEv
08006370 W _ZN21CLR_RT_HeapBlock_Node14RemoveFromListEv
08006358 W _ZN21CLR_RT_HeapBlock_Node22ConsistencyCheck_NodesEPS_S0_
080198c0 W _ZN21CLR_RT_HeapBlock_Node22GenericNode_InitializeEv
080063b0 W _ZN21CLR_RT_HeapBlock_Node6UnlinkEv
08007d8c W _ZN21CLR_RT_HeapBlock_Node7SetNextEPS_
08007da8 W _ZN21CLR_RT_HeapBlock_Node7SetPrevEPS_
08025b78 T _ZN21CLR_RT_HeapBlock_Node8RelocateEv
08032720 T _ZN21CLR_RT_TypeDescriptor14ConvertToArrayEv
0803275c T _ZN21CLR_RT_TypeDescriptor14GetElementTypeERS_
080322c8 T _ZN21CLR_RT_TypeDescriptor18InitializeFromTypeERK20CLR_RT_TypeDef_Index
080324c0 T _ZN21CLR_RT_TypeDescriptor20InitializeFromObjectERK16CLR_RT_HeapBlock
08032158 T _ZN21CLR_RT_TypeDescriptor22InitializeFromDataTypeE12CLR_DataType
08032270 T _ZN21CLR_RT_TypeDescriptor22InitializeFromTypeSpecERK21CLR_RT_TypeSpec_Index
080327bc T _ZN21CLR_RT_TypeDescriptor24ExtractObjectAndDataTypeERP16CLR_RT_HeapBlockR12CLR_DataType
080321fc T _ZN21CLR_RT_TypeDescriptor24InitializeFromReflectionERK26CLR_RT_ReflectionDef_Index
08032820 T _ZN21CLR_RT_TypeDescriptor26ExtractTypeIndexFromObjectERK16CLR_RT_HeapBlockR20CLR_RT_TypeDef_Index
080323f8 T _ZN21CLR_RT_TypeDescriptor29InitializeFromFieldDefinitionERK24CLR_RT_FieldDef_Instance
08032434 T _ZN21CLR_RT_TypeDescriptor29InitializeFromSignatureParserER22CLR_RT_SignatureParser
080188e0 W _ZN21CLR_RT_TypeSpec_Index3SetEjj
080188c4 W _ZN21CLR_RT_TypeSpec_Index5ClearEv
08041de4 W _ZN21Hal_Queue_UnknownSizeIN15CLR_HW_Hardware18HalInterruptRecordEE10InitializeEPS1_j
08042428 W _ZN21Hal_Queue_UnknownSizeIN15CLR_HW_Hardware18HalInterruptRecordEE16NumberOfElementsEv
08042478 W _ZN21Hal_Queue_UnknownSizeIN15CLR_HW_Hardware18HalInterruptRecordEE3PopEv
08043004 W _ZN21Hal_Queue_UnknownSizeIN15CLR_HW_Hardware18HalInterruptRecordEE4PeekEv
080424e8 W _ZN21Hal_Queue_UnknownSizeIN15CLR_HW_Hardware18HalInterruptRecordEE4PushEv
08043048 W _ZN21Hal_Queue_UnknownSizeIN15CLR_HW_Hardware18HalInterruptRecordEE7IsEmptyEv
0800f07c W _ZN21Hal_Queue_UnknownSizeIhE10InitializeEPhj
0800f24c W _ZN21Hal_Queue_UnknownSizeIhE16NumberOfElementsEv
0800f178 W _ZN21Hal_Queue_UnknownSizeIhE3PopERj
0800f018 W _ZN21Hal_Queue_UnknownSizeIhE3PopEv
0800f0b8 W _ZN21Hal_Queue_UnknownSizeIhE4PushERj
0800f2d0 W _ZN21Hal_Queue_UnknownSizeIhE4PushEv
0800f29c W _ZN21Hal_Queue_UnknownSizeIhE7IsEmptyEv
0804ffd4 W _ZN21IEEE802_15_4_Metadata7SetRssiEs
0800a8a4 T _ZN21STM32F1x_Power_Driver10High_PowerEv
0800a900 T _ZN21STM32F1x_Power_Driver4HaltEv
0800a850 T _ZN21STM32F1x_Power_Driver9Low_PowerEv
0800f334 W _ZN21USB_DESCRIPTOR_HEADER4nextEPKS_
0804309c T _ZN22CLR_RT_BinaryFormatter11DeserializeER16CLR_RT_HeapBlockS1_PS0_Pjj
0804307c T _ZN22CLR_RT_BinaryFormatter9SerializeER16CLR_RT_HeapBlockS1_PS0_j
0801e00c T _ZN22CLR_RT_ExecutionEngine10CastToTypeER16CLR_RT_HeapBlockjP15CLR_RT_Assemblyb
0801da90 T _ZN22CLR_RT_ExecutionEngine10LockObjectER16CLR_RT_HeapBlockP16CLR_RT_SubThreadRKxb
0801b960 T _ZN22CLR_RT_ExecutionEngine10SpawnTimerEv
0801f134 T _ZN22CLR_RT_ExecutionEngine10UpdateTimeEv
0801db60 T _ZN22CLR_RT_ExecutionEngine10WaitEventsEP13CLR_RT_ThreadRKxjRb
0801d760 T _ZN22CLR_RT_ExecutionEngine11CheckTimersERx
0801d124 T _ZN22CLR_RT_ExecutionEngine11CloneObjectER16CLR_RT_HeapBlockRKS0_
0801e080 T _ZN22CLR_RT_ExecutionEngine11InitTimeoutERxRKx
0801e0fc T _ZN22CLR_RT_ExecutionEngine11InitTimeoutERxi
0801d818 T _ZN22CLR_RT_ExecutionEngine12CheckThreadsERxR20CLR_RT_DblLinkedList
0801e194 T _ZN22CLR_RT_ExecutionEngine12DebuggerLoopEv
0801df40 T _ZN22CLR_RT_ExecutionEngine12IsInstanceOfER16CLR_RT_HeapBlockP15CLR_RT_Assemblyj
0801dedc T _ZN22CLR_RT_ExecutionEngine12IsInstanceOfER16CLR_RT_HeapBlockRK20CLR_RT_TypeDef_Index
0801dcbc T _ZN22CLR_RT_ExecutionEngine12IsInstanceOfER21CLR_RT_TypeDescriptorS1_
0801de78 T _ZN22CLR_RT_ExecutionEngine12IsInstanceOfERK20CLR_RT_TypeDef_IndexS2_
0801d5a4 T _ZN22CLR_RT_ExecutionEngine12ProcessTimerEv
0801dc00 T _ZN22CLR_RT_ExecutionEngine12SignalEventsER20CLR_RT_DblLinkedListj
0801dc88 T _ZN22CLR_RT_ExecutionEngine12SignalEventsEj
0801daf4 T _ZN22CLR_RT_ExecutionEngine12UnlockObjectER16CLR_RT_HeapBlockP16CLR_RT_SubThread
0801afa0 T _ZN22CLR_RT_ExecutionEngine13AllocateHeapsEv
0801d244 T _ZN22CLR_RT_ExecutionEngine13CopyValueTypeEP16CLR_RT_HeapBlockPKS0_
0801d6e0 T _ZN22CLR_RT_ExecutionEngine13IsTimeExpiredERKxRxb
0801b19c T _ZN22CLR_RT_ExecutionEngine13StartHardwareEv
0801ad7c T _ZN22CLR_RT_ExecutionEngine14CreateInstanceEv
0801b080 T _ZN22CLR_RT_ExecutionEngine14DeleteInstanceEv
0801d3c4 T _ZN22CLR_RT_ExecutionEngine14FindLockObjectER16CLR_RT_HeapBlock
0801d310 T _ZN22CLR_RT_ExecutionEngine14FindLockObjectER20CLR_RT_DblLinkedListR16CLR_RT_HeapBlock
0801bd20 T _ZN22CLR_RT_ExecutionEngine14SpawnFinalizerEv
20002b18 B _ZN22CLR_RT_ExecutionEngine14s_compensationE
0801c41c T _ZN22CLR_RT_ExecutionEngine15AbortAllThreadsER20CLR_RT_DblLinkedList
0801c60c T _ZN22CLR_RT_ExecutionEngine15GetNextThreadIdEv
0801d584 T _ZN22CLR_RT_ExecutionEngine15ProcessHardwareEv
0801c388 T _ZN22CLR_RT_ExecutionEngine15PutInProperListEP13CLR_RT_Thread
0801bfdc T _ZN22CLR_RT_ExecutionEngine15ScheduleThreadsEi
0801f06c T _ZN22CLR_RT_ExecutionEngine15UnloadAppDomainEP16CLR_RT_AppDomainP13CLR_RT_Thread
0801c350 T _ZN22CLR_RT_ExecutionEngine15WaitForActivityEjjx
0801c258 T _ZN22CLR_RT_ExecutionEngine15WaitForActivityEv
0801b5ec T _ZN22CLR_RT_ExecutionEngine15WaitForDebuggerEv
0801cba8 T _ZN22CLR_RT_ExecutionEngine16InitializeLocalsEP16CLR_RT_HeapBlockP15CLR_RT_AssemblyPK20CLR_RECORD_METHODDEF
0801e30c T _ZN22CLR_RT_ExecutionEngine16StopOnBreakpointERN16CLR_DBG_Commands33Debugging_Execution_BreakpointDefEP13CLR_RT_Thread
0801e410 T _ZN22CLR_RT_ExecutionEngine16StopOnBreakpointERN16CLR_DBG_Commands33Debugging_Execution_BreakpointDefEP17CLR_RT_StackFramePKh
0801f1e8 T _ZN22CLR_RT_ExecutionEngine16WaitSystemEventsEjjx
0801ca04 T _ZN22CLR_RT_ExecutionEngine17AccessStaticFieldERK21CLR_RT_FieldDef_Index
0801c870 T _ZN22CLR_RT_ExecutionEngine17ExtractHeapBlocksER20CLR_RT_DblLinkedListjjj
0801c478 T _ZN22CLR_RT_ExecutionEngine17ReleaseAllThreadsER20CLR_RT_DblLinkedList
0801d44c T _ZN22CLR_RT_ExecutionEngine18DeleteLockRequestsEP13CLR_RT_ThreadP16CLR_RT_SubThread
0801d4a0 T _ZN22CLR_RT_ExecutionEngine18DeleteLockRequestsEP13CLR_RT_ThreadP16CLR_RT_SubThreadR20CLR_RT_DblLinkedList
0801b90c T _ZN22CLR_RT_ExecutionEngine18EnsureSystemThreadERP13CLR_RT_Threadi
0801e260 T _ZN22CLR_RT_ExecutionEngine18InstallBreakpointsEPN16CLR_DBG_Commands33Debugging_Execution_BreakpointDefEj
0801ce58 T _ZN22CLR_RT_ExecutionEngine18NewObjectFromIndexER16CLR_RT_HeapBlockRK20CLR_RT_TypeDef_Index
0801ef68 T _ZN22CLR_RT_ExecutionEngine19GetCurrentAppDomainEv
0801cb6c T _ZN22CLR_RT_ExecutionEngine19InitializeReferenceER16CLR_RT_HeapBlockPK19CLR_RECORD_FIELDDEFP15CLR_RT_Assembly
0801ca8c T _ZN22CLR_RT_ExecutionEngine19InitializeReferenceER16CLR_RT_HeapBlockR22CLR_RT_SignatureParser
0801ef40 T _ZN22CLR_RT_ExecutionEngine19SetCurrentAppDomainEP16CLR_RT_AppDomain
0801ee64 T _ZN22CLR_RT_ExecutionEngine20Breakpoint_ExceptionEP17CLR_RT_StackFramejPKh
0801d6c4 T _ZN22CLR_RT_ExecutionEngine20InvalidateTimerCacheEv
0801b310 T _ZN22CLR_RT_ExecutionEngine21PerformHeapCompactionEv
0801beb4 T _ZN22CLR_RT_ExecutionEngine21RetrieveCurrentMethodERjS0_
0801b4b4 T _ZN22CLR_RT_ExecutionEngine21TryToUnloadAppDomainsEv
0801be2c T _ZN22CLR_RT_ExecutionEngine22AdjustExecutionCounterER20CLR_RT_DblLinkedListi
0801c4a4 T _ZN22CLR_RT_ExecutionEngine22InsertThreadRoundRobinER20CLR_RT_DblLinkedListP13CLR_RT_Thread
0801bb2c T _ZN22CLR_RT_ExecutionEngine22SpawnStaticConstructorERP13CLR_RT_Thread
0801e518 T _ZN22CLR_RT_ExecutionEngine23Breakpoint_System_EventERN16CLR_DBG_Commands33Debugging_Execution_BreakpointDefEtP13CLR_RT_ThreadP17CLR_RT_StackFramePKh
0801e478 T _ZN22CLR_RT_ExecutionEngine23DequeueActiveBreakpointERN16CLR_DBG_Commands33Debugging_Execution_BreakpointDefE
0801b0a4 T _ZN22CLR_RT_ExecutionEngine23ExecutionEngine_CleanupEv
0801b2a0 T _ZN22CLR_RT_ExecutionEngine24PerformGarbageCollectionEv
0801ead8 T _ZN22CLR_RT_ExecutionEngine25Breakpoint_StackFrame_PopEP17CLR_RT_StackFrameb
0801e8f0 T _ZN22CLR_RT_ExecutionEngine25Breakpoint_Thread_CreatedEP13CLR_RT_Thread
0801c638 T _ZN22CLR_RT_ExecutionEngine25ExtractHeapBlocksForArrayER23CLR_RT_TypeDef_InstancejRK26CLR_RT_ReflectionDef_Index
0801ed38 T _ZN22CLR_RT_ExecutionEngine26Breakpoint_StackFrame_HardEP17CLR_RT_StackFramePKh
0801e930 T _ZN22CLR_RT_ExecutionEngine26Breakpoint_StackFrame_PushEP17CLR_RT_StackFramej
0801ec2c T _ZN22CLR_RT_ExecutionEngine26Breakpoint_StackFrame_StepEP17CLR_RT_StackFramePKh
0801e674 T _ZN22CLR_RT_ExecutionEngine26Breakpoint_Threads_PrepareER20CLR_RT_DblLinkedList
0801b28c T _ZN22CLR_RT_ExecutionEngine26ExecutionConstraint_ResumeEv
0801adc0 T _ZN22CLR_RT_ExecutionEngine26ExecutionEngine_InitializeEv
0801c818 T _ZN22CLR_RT_ExecutionEngine26ExtractHeapBlocksForEventsEjjj
0801c778 T _ZN22CLR_RT_ExecutionEngine26ExtractHeapBytesForObjectsEjjj
0801ee24 T _ZN22CLR_RT_ExecutionEngine27Breakpoint_StackFrame_BreakEP17CLR_RT_StackFrame
0801b278 T _ZN22CLR_RT_ExecutionEngine27ExecutionConstraint_SuspendEv
0801c7b4 T _ZN22CLR_RT_ExecutionEngine27ExtractHeapBlocksForObjectsEjjj
0801e1d8 T _ZN22CLR_RT_ExecutionEngine27SetDebuggingInfoBreakpointsEb
0801e5e4 T _ZN22CLR_RT_ExecutionEngine28Breakpoint_Assemblies_LoadedEv
0801e894 T _ZN22CLR_RT_ExecutionEngine28Breakpoint_Thread_TerminatedEP13CLR_RT_Thread
0801bd04 T _ZN22CLR_RT_ExecutionEngine28FinalizerTerminationCallbackEPv
0801ba10 T _ZN22CLR_RT_ExecutionEngine28SpawnStaticConstructorHelperEP16CLR_RT_AppDomainP24CLR_RT_AppDomainAssemblyRK22CLR_RT_MethodDef_Index
0801eea8 T _ZN22CLR_RT_ExecutionEngine29Breakpoint_Exception_UncaughtEP13CLR_RT_Thread
0801a358 W _ZN22CLR_RT_ExecutionEngine31ExecutionConstraintCompensation6ResumeEv
0801a320 W _ZN22CLR_RT_ExecutionEngine31ExecutionConstraintCompensation7SuspendEv
0801eef4 T _ZN22CLR_RT_ExecutionEngine32Breakpoint_Exception_InterceptedEP17CLR_RT_StackFrame
0801ef84 T _ZN22CLR_RT_ExecutionEngine32PrepareThreadsForAppDomainUnloadEP16CLR_RT_AppDomainR20CLR_RT_DblLinkedList
0801b9ec T _ZN22CLR_RT_ExecutionEngine36StaticConstructorTerminationCallbackEPv
0801b3b0 T _ZN22CLR_RT_ExecutionEngine36TryToUnloadAppDomains_Helper_ThreadsER20CLR_RT_DblLinkedList
0801c70c T _ZN22CLR_RT_ExecutionEngine37ExtractHeapBlocksForClassOrValueTypesEjjRK20CLR_RT_TypeDef_Indexj
0801b438 T _ZN22CLR_RT_ExecutionEngine39TryToUnloadAppDomains_Helper_FinalizersER20CLR_RT_DblLinkedListb
0801db24 T _ZN22CLR_RT_ExecutionEngine5SleepEP13CLR_RT_ThreadRKx
0801b1c0 T _ZN22CLR_RT_ExecutionEngine6RebootEb
0801b650 T _ZN22CLR_RT_ExecutionEngine7ExecuteEPwi
0801b370 T _ZN22CLR_RT_ExecutionEngine8RelocateEv
0801b254 T _ZN22CLR_RT_ExecutionEngine9GetUptimeEv
0801cea4 T _ZN22CLR_RT_ExecutionEngine9NewObjectER16CLR_RT_HeapBlockRK23CLR_RT_TypeDef_Instance
0801c57c T _ZN22CLR_RT_ExecutionEngine9NewThreadERP13CLR_RT_ThreadP25CLR_RT_HeapBlock_Delegateiij
080241c0 T _ZN22CLR_RT_HeapBlock_Array10CheckRangeEiii
08001590 W _ZN22CLR_RT_HeapBlock_Array10GetElementEj
08024094 T _ZN22CLR_RT_HeapBlock_Array13ClearElementsEii
08023fe4 T _ZN22CLR_RT_HeapBlock_Array14CreateInstanceER16CLR_RT_HeapBlockjP15CLR_RT_Assemblyj
08023fa8 T _ZN22CLR_RT_HeapBlock_Array14CreateInstanceER16CLR_RT_HeapBlockjRK20CLR_RT_TypeDef_Index
08023eac T _ZN22CLR_RT_HeapBlock_Array14CreateInstanceER16CLR_RT_HeapBlockjRK26CLR_RT_ReflectionDef_Index
08001574 W _ZN22CLR_RT_HeapBlock_Array15GetFirstElementEv
080243d0 T _ZN22CLR_RT_HeapBlock_Array4CopyEPS_iS0_ii
08024218 T _ZN22CLR_RT_HeapBlock_Array7IndexOfEPS_R16CLR_RT_HeapBlockiibRi
08024190 T _ZN22CLR_RT_HeapBlock_Array8RelocateEv
08025e84 T _ZN22CLR_RT_HeapBlock_Queue14ObjArrayMemcpyEP22CLR_RT_HeapBlock_ArrayiS1_ii
08019adc W _ZN22CLR_RT_HeapBlock_Queue4HeadEv
08025d58 T _ZN22CLR_RT_HeapBlock_Queue4PeekERP16CLR_RT_HeapBlock
08025db8 T _ZN22CLR_RT_HeapBlock_Queue5ClearEv
08025ed4 T _ZN22CLR_RT_HeapBlock_Queue6CopyToEP22CLR_RT_HeapBlock_Arrayi
08025ba0 T _ZN22CLR_RT_HeapBlock_Queue7DequeueERP16CLR_RT_HeapBlock
08025c38 T _ZN22CLR_RT_HeapBlock_Queue7EnqueueEP16CLR_RT_HeapBlock
08019a98 W _ZN22CLR_RT_HeapBlock_Queue7GetSizeEv
08019b00 W _ZN22CLR_RT_HeapBlock_Queue7GetTailEv
08019b48 W _ZN22CLR_RT_HeapBlock_Queue7SetHeadEi
08019b88 W _ZN22CLR_RT_HeapBlock_Queue7SetSizeEi
08019b68 W _ZN22CLR_RT_HeapBlock_Queue7SetTailEi
08019abc W _ZN22CLR_RT_HeapBlock_Queue8GetArrayEv
08019b24 W _ZN22CLR_RT_HeapBlock_Queue8SetArrayEP22CLR_RT_HeapBlock_Array
08025fc4 T _ZN22CLR_RT_HeapBlock_Stack3PopERP16CLR_RT_HeapBlock
08026148 T _ZN22CLR_RT_HeapBlock_Stack4PeekERP16CLR_RT_HeapBlock
0802603c T _ZN22CLR_RT_HeapBlock_Stack4PushEP16CLR_RT_HeapBlock
080261a8 T _ZN22CLR_RT_HeapBlock_Stack5ClearEv
08019ba8 W _ZN22CLR_RT_HeapBlock_Stack7GetSizeEv
08019c10 W _ZN22CLR_RT_HeapBlock_Stack7SetSizeEi
08019bcc W _ZN22CLR_RT_HeapBlock_Stack8GetArrayEv
08019bec W _ZN22CLR_RT_HeapBlock_Stack8SetArrayEP22CLR_RT_HeapBlock_Array
0802674c T _ZN22CLR_RT_HeapBlock_Timer10RescheduleEv
080265a4 T _ZN22CLR_RT_HeapBlock_Timer10SpawnTimerEP13CLR_RT_Thread
08026920 T _ZN22CLR_RT_HeapBlock_Timer13CheckDisposedER17CLR_RT_StackFrame
08026540 T _ZN22CLR_RT_HeapBlock_Timer13RecoverFromGCEv
08026428 T _ZN22CLR_RT_HeapBlock_Timer14CreateInstanceEjR16CLR_RT_HeapBlockS1_
08026974 T _ZN22CLR_RT_HeapBlock_Timer15ConfigureObjectER17CLR_RT_StackFramej
08026500 T _ZN22CLR_RT_HeapBlock_Timer15ExtractInstanceER16CLR_RT_HeapBlockRPS_
08026800 T _ZN22CLR_RT_HeapBlock_Timer21AdjustNextFixedExpireERK10SYSTEMTIMEb
08026718 T _ZN22CLR_RT_HeapBlock_Timer25ThreadTerminationCallbackEPv
08026560 T _ZN22CLR_RT_HeapBlock_Timer7TriggerEv
080010b8 W _ZN22CLR_RT_MethodDef_Index3SetEjj
0800109c W _ZN22CLR_RT_MethodDef_Index5ClearEv
080314bc T _ZN22CLR_RT_SignatureParser18Initialize_ObjectsEP16CLR_RT_HeapBlockib
08031388 T _ZN22CLR_RT_SignatureParser19Initialize_FieldDefEP15CLR_RT_AssemblyPK19CLR_RECORD_FIELDDEF
080313b4 T _ZN22CLR_RT_SignatureParser19Initialize_FieldDefEP15CLR_RT_AssemblyPKh
080312b0 T _ZN22CLR_RT_SignatureParser19Initialize_TypeSpecEP15CLR_RT_AssemblyPK19CLR_RECORD_TYPESPEC
080312dc T _ZN22CLR_RT_SignatureParser19Initialize_TypeSpecEP15CLR_RT_AssemblyPKh
08031318 T _ZN22CLR_RT_SignatureParser21Initialize_InterfacesEP15CLR_RT_AssemblyPK18CLR_RECORD_TYPEDEF
08031474 T _ZN22CLR_RT_SignatureParser23Initialize_MethodLocalsEP15CLR_RT_AssemblyPK20CLR_RECORD_METHODDEF
080313f8 T _ZN22CLR_RT_SignatureParser26Initialize_MethodSignatureEP15CLR_RT_AssemblyPK20CLR_RECORD_METHODDEF
08031424 T _ZN22CLR_RT_SignatureParser26Initialize_MethodSignatureEP15CLR_RT_AssemblyPKh
080314fc T _ZN22CLR_RT_SignatureParser7AdvanceERNS_7ElementE
08012288 T _ZN22STM32F10x_blDriver_nor10EraseBlockEPvj
08012124 T _ZN22STM32F10x_blDriver_nor13GetDeviceInfoEPv
08012258 T _ZN22STM32F10x_blDriver_nor13IsBlockErasedEPvjj
0801229c T _ZN22STM32F10x_blDriver_nor13SetPowerStateEPvj
080120f8 T _ZN22STM32F10x_blDriver_nor16InitializeDeviceEPv
08012220 T _ZN22STM32F10x_blDriver_nor17GetSectorMetadataEPvjP14SectorMetadata
0801223c T _ZN22STM32F10x_blDriver_nor17SetSectorMetadataEPvjP14SectorMetadata
080122d0 T _ZN22STM32F10x_blDriver_nor18MaxBlockErase_uSecEPv
0801210c T _ZN22STM32F10x_blDriver_nor18UninitializeDeviceEPv
080122b0 T _ZN22STM32F10x_blDriver_nor19MaxSectorWrite_uSecEPv
08012140 T _ZN22STM32F10x_blDriver_nor4ReadEPvjjPh
08012174 T _ZN22STM32F10x_blDriver_nor5WriteEPvjjPhj
080121b8 T _ZN22STM32F10x_blDriver_nor6MemsetEPvjhj
08032ac8 T _ZN23CLR_RT_ExceptionHandler13ConvertFromEHERK25CLR_RT_MethodDef_InstancePKhPK13CLR_RECORD_EH
0801fde4 T _ZN23CLR_RT_GarbageCollector11Thread_MarkEP13CLR_RT_Thread
0801ffac T _ZN23CLR_RT_GarbageCollector11Thread_MarkER20CLR_RT_DblLinkedList
08020238 T _ZN23CLR_RT_GarbageCollector12Heap_CompactEv
0801a094 W _ZN23CLR_RT_GarbageCollector12ValidateHeapER20CLR_RT_DblLinkedList
0801fd80 T _ZN23CLR_RT_GarbageCollector13Assembly_MarkEv
08020a44 T _ZN23CLR_RT_GarbageCollector13Heap_RelocateEP16CLR_RT_HeapBlockj
08020b00 T _ZN23CLR_RT_GarbageCollector13Heap_RelocateEPPv
08020884 T _ZN23CLR_RT_GarbageCollector13Heap_RelocateEv
0801fcd4 T _ZN23CLR_RT_GarbageCollector14AppDomain_MarkEv
0801a080 W _ZN23CLR_RT_GarbageCollector15ValidateClusterEP18CLR_RT_HeapCluster
0801a0e4 W _ZN23CLR_RT_GarbageCollector16CheckSingleBlockEPP16CLR_RT_HeapBlock
0801a104 W _ZN23CLR_RT_GarbageCollector16CheckSingleBlockEPP22CLR_RT_HeapBlock_Array
0801a124 W _ZN23CLR_RT_GarbageCollector16CheckSingleBlockEPP25CLR_RT_HeapBlock_Delegate
0801a06c W _ZN23CLR_RT_GarbageCollector16ValidatePointersEv
080201ec T _ZN23CLR_RT_GarbageCollector17ExecuteCompactionEv
0802092c T _ZN23CLR_RT_GarbageCollector18Heap_Relocate_PassEPFbPPvE
0801a0bc W _ZN23CLR_RT_GarbageCollector18TestPointers_RemapEv
0801facc T _ZN23CLR_RT_GarbageCollector19CheckMemoryPressureEv
0801a174 W _ZN23CLR_RT_GarbageCollector19CheckMultipleBlocksEP16CLR_RT_HeapBlockj
0801fff4 T _ZN23CLR_RT_GarbageCollector19RecoverEventsFromGCEv
08020858 T _ZN23CLR_RT_GarbageCollector21Heap_Relocate_PrepareEPNS_16RelocationRegionEj
0801a144 W _ZN23CLR_RT_GarbageCollector22CheckSingleBlock_ForceEP16CLR_RT_HeapBlock
0801f3e0 T _ZN23CLR_RT_GarbageCollector24ExecuteGarbageCollectionEv
0801a0d0 W _ZN23CLR_RT_GarbageCollector24TestPointers_PopulateNewEv
0801a0a8 W _ZN23CLR_RT_GarbageCollector24TestPointers_PopulateOldEv
08020124 T _ZN23CLR_RT_GarbageCollector28Heap_ComputeAliveVsDeadRatioEv
08020bf8 T _ZN23CLR_RT_GarbageCollector38ComputeReachabilityGraphForSingleBlockEPP16CLR_RT_HeapBlock
08020c44 T _ZN23CLR_RT_GarbageCollector41ComputeReachabilityGraphForMultipleBlocksEP16CLR_RT_HeapBlockj
0801f528 T _ZN23CLR_RT_GarbageCollector4MarkEv
0801f9c0 T _ZN23CLR_RT_GarbageCollector5SweepEv
0801f45c T _ZN23CLR_RT_GarbageCollector8MarkSlowEv
0801f89c T _ZN23CLR_RT_GarbageCollector8MarkWeakEv
08020bb4 T _ZN23CLR_RT_GarbageCollector9MarkStack10InitializeEPNS_16MarkStackElementEj
08026274 T _ZN23CLR_RT_HeapBlock_String14CreateInstanceER16CLR_RT_HeapBlockPKc
0802630c T _ZN23CLR_RT_HeapBlock_String14CreateInstanceER16CLR_RT_HeapBlockPKcP15CLR_RT_Assembly
080262b0 T _ZN23CLR_RT_HeapBlock_String14CreateInstanceER16CLR_RT_HeapBlockPKcj
080263ac T _ZN23CLR_RT_HeapBlock_String14CreateInstanceER16CLR_RT_HeapBlockPtj
08026204 T _ZN23CLR_RT_HeapBlock_String14CreateInstanceER16CLR_RT_HeapBlockj
08026374 T _ZN23CLR_RT_HeapBlock_String14CreateInstanceER16CLR_RT_HeapBlockjP15CLR_RT_Assembly
08031cf4 T _ZN23CLR_RT_TypeDef_Instance12ResolveTokenEjP15CLR_RT_Assembly
08031db8 T _ZN23CLR_RT_TypeDef_Instance14SwitchToParentEv
08031b88 T _ZN23CLR_RT_TypeDef_Instance19InitializeFromFieldERK24CLR_RT_FieldDef_Instance
08031a84 T _ZN23CLR_RT_TypeDef_Instance19InitializeFromIndexERK20CLR_RT_TypeDef_Index
08031b04 T _ZN23CLR_RT_TypeDef_Instance20InitializeFromMethodERK25CLR_RT_MethodDef_Instance
080319ec T _ZN23CLR_RT_TypeDef_Instance24InitializeFromReflectionERK26CLR_RT_ReflectionDef_IndexPj
08031ccc T _ZN23CLR_RT_TypeDef_Instance5ClearEv
08034820 T _ZN24CLR_RT_AppDomainAssembly14CreateInstanceEP16CLR_RT_AppDomainP15CLR_RT_AssemblyRPS_
08034974 T _ZN24CLR_RT_AppDomainAssembly15DestroyInstanceEv
080348ac T _ZN24CLR_RT_AppDomainAssembly28AppDomainAssembly_InitializeEP16CLR_RT_AppDomainP15CLR_RT_Assembly
0803499c T _ZN24CLR_RT_AppDomainAssembly8RelocateEv
08031854 T _ZN24CLR_RT_Assembly_Instance19InitializeFromIndexERK21CLR_RT_Assembly_Index
08031f20 T _ZN24CLR_RT_FieldDef_Instance12ResolveTokenEjP15CLR_RT_Assembly
08031e78 T _ZN24CLR_RT_FieldDef_Instance19InitializeFromIndexERK21CLR_RT_FieldDef_Index
08031ef8 T _ZN24CLR_RT_FieldDef_Instance5ClearEv
08031968 T _ZN24CLR_RT_TypeSpec_Instance12ResolveTokenEjP15CLR_RT_Assembly
080318b0 T _ZN24CLR_RT_TypeSpec_Instance19InitializeFromIndexERK21CLR_RT_TypeSpec_Index
08031940 T _ZN24CLR_RT_TypeSpec_Instance5ClearEv
08024ec8 T _ZN25CLR_RT_HeapBlock_Delegate14CreateInstanceER16CLR_RT_HeapBlockRK22CLR_RT_MethodDef_IndexP17CLR_RT_StackFrame
08024f74 T _ZN25CLR_RT_HeapBlock_Delegate8RelocateEv
08008370 T _ZN25CLR_RT_HeapBlock_EndPoint12FindEndPointERKNS_4PortE
08008364 T _ZN25CLR_RT_HeapBlock_EndPoint21HandlerMethod_CleanUpEv
0800834c T _ZN25CLR_RT_HeapBlock_EndPoint24HandlerMethod_InitializeEv
08008358 T _ZN25CLR_RT_HeapBlock_EndPoint27HandlerMethod_RecoverFromGCEv
08032090 T _ZN25CLR_RT_MethodDef_Instance12ResolveTokenEjP15CLR_RT_Assembly
08031fe8 T _ZN25CLR_RT_MethodDef_Instance19InitializeFromIndexERK22CLR_RT_MethodDef_Index
08032068 T _ZN25CLR_RT_MethodDef_Instance5ClearEv
08024c88 T _ZN26CLR_RT_HeapBlock_ArrayList11SetCapacityEi
08024d44 T _ZN26CLR_RT_HeapBlock_ArrayList14EnsureCapacityEii
0802498c T _ZN26CLR_RT_HeapBlock_ArrayList3AddEP16CLR_RT_HeapBlockRi
08024a54 T _ZN26CLR_RT_HeapBlock_ArrayList5ClearEv
08024aa4 T _ZN26CLR_RT_HeapBlock_ArrayList6InsertEiP16CLR_RT_HeapBlock
080248c0 T _ZN26CLR_RT_HeapBlock_ArrayList7GetItemEiRP16CLR_RT_HeapBlock
08019a10 W _ZN26CLR_RT_HeapBlock_ArrayList7GetSizeEv
08024928 T _ZN26CLR_RT_HeapBlock_ArrayList7SetItemEiP16CLR_RT_HeapBlock
08019a78 W _ZN26CLR_RT_HeapBlock_ArrayList7SetSizeEi
08019a34 W _ZN26CLR_RT_HeapBlock_ArrayList8GetItemsEv
08024bc8 T _ZN26CLR_RT_HeapBlock_ArrayList8RemoveAtEi
08019a54 W _ZN26CLR_RT_HeapBlock_ArrayList8SetItemsEP22CLR_RT_HeapBlock_Array
080254c8 T _ZN26CLR_RT_HeapBlock_Finalizer14CreateInstanceEP16CLR_RT_HeapBlockRK23CLR_RT_TypeDef_Instance
08025628 T _ZN26CLR_RT_HeapBlock_Finalizer14RemoveInstanceEP16CLR_RT_HeapBlockR20CLR_RT_DblLinkedList
08025600 T _ZN26CLR_RT_HeapBlock_Finalizer16SuppressFinalizeEP16CLR_RT_HeapBlock
080255e4 T _ZN26CLR_RT_HeapBlock_Finalizer8RelocateEv
08007dd8 T _ZN26CLR_RT_Persistence_Manager10InitializeEv
08007dc4 T _ZN26CLR_RT_Persistence_Manager12UninitializeEv
08007dec T _ZN26CLR_RT_Persistence_Manager15InvalidateEntryEP30CLR_RT_HeapBlock_WeakReference
08007e14 T _ZN26CLR_RT_Persistence_Manager5FlushEv
08007e00 T _ZN26CLR_RT_Persistence_Manager8RelocateEv
080310f0 T _ZN26CLR_RT_ReflectionDef_Index18InitializeFromHashEj
08031164 T _ZN26CLR_RT_ReflectionDef_Index7ConvertER16CLR_RT_HeapBlockR23CLR_RT_TypeDef_InstancePj
0803111c T _ZN26CLR_RT_ReflectionDef_Index7ConvertER16CLR_RT_HeapBlockR24CLR_RT_Assembly_Instance
08031204 T _ZN26CLR_RT_ReflectionDef_Index7ConvertER16CLR_RT_HeapBlockR24CLR_RT_FieldDef_Instance
080311ac T _ZN26CLR_RT_ReflectionDef_Index7ConvertER16CLR_RT_HeapBlockR25CLR_RT_MethodDef_Instance
0803125c T _ZN26CLR_RT_ReflectionDef_Index7ConvertER16CLR_RT_HeapBlockRj
08024d9c T _ZN27CLR_RT_HeapBlock_BinaryBlob14CreateInstanceER16CLR_RT_HeapBlockjPFvPS_ES4_j
080199d8 W _ZN27CLR_RT_HeapBlock_BinaryBlob7GetBlobEPv
080199bc W _ZN27CLR_RT_HeapBlock_BinaryBlob7GetDataEv
08024e64 T _ZN27CLR_RT_HeapBlock_BinaryBlob7ReleaseEb
08024df4 T _ZN27CLR_RT_HeapBlock_BinaryBlob8AllocateEjj
08024ea0 T _ZN27CLR_RT_HeapBlock_BinaryBlob8RelocateEv
08042984 T _ZN27CLR_RT_HeapBlock_I2CXAction10CopyBufferEPhjj
20002b58 B _ZN27CLR_RT_HeapBlock_I2CXAction10m_i2cPortsE
08042c28 T _ZN27CLR_RT_HeapBlock_I2CXAction11IsCompletedEv
08042bec T _ZN27CLR_RT_HeapBlock_I2CXAction12IsTerminatedEv
08042cf8 T _ZN27CLR_RT_HeapBlock_I2CXAction13RecoverFromGCEv
080425f4 T _ZN27CLR_RT_HeapBlock_I2CXAction14CreateInstanceER16CLR_RT_HeapBlockS1_
08042834 T _ZN27CLR_RT_HeapBlock_I2CXAction14PrepareXActionER22I2C_USER_CONFIGURATIONj
080429ec T _ZN27CLR_RT_HeapBlock_I2CXAction14ReleaseBuffersEv
0804270c T _ZN27CLR_RT_HeapBlock_I2CXAction15AllocateXActionEj
080426cc T _ZN27CLR_RT_HeapBlock_I2CXAction15ExtractInstanceER16CLR_RT_HeapBlockRPS_
08042ca8 T _ZN27CLR_RT_HeapBlock_I2CXAction15TransactedBytesEv
08042c64 T _ZN27CLR_RT_HeapBlock_I2CXAction17IsReadXActionUnitEj
08042d18 T _ZN27CLR_RT_HeapBlock_I2CXAction17ReleaseWhenDeadExEv
0804289c T _ZN27CLR_RT_HeapBlock_I2CXAction18PrepareXActionUnitEPhjjb
080425b4 T _ZN27CLR_RT_HeapBlock_I2CXAction21HandlerMethod_CleanUpEv
08042558 T _ZN27CLR_RT_HeapBlock_I2CXAction24HandlerMethod_InitializeEv
0804256c T _ZN27CLR_RT_HeapBlock_I2CXAction27HandlerMethod_RecoverFromGCEv
08042b80 T _ZN27CLR_RT_HeapBlock_I2CXAction6CancelEb
08042b18 T _ZN27CLR_RT_HeapBlock_I2CXAction7EnqueueEv
08042bb0 T _ZN27CLR_RT_HeapBlock_I2CXAction9IsPendingEv
08027e40 T _ZN27CLR_RT_ObjectToEvent_Source14CreateInstanceEP32CLR_RT_ObjectToEvent_DestinationR16CLR_RT_HeapBlockS3_
08027eb4 T _ZN27CLR_RT_ObjectToEvent_Source15ExtractInstanceER16CLR_RT_HeapBlock
08027eec T _ZN27CLR_RT_ObjectToEvent_Source19EnsureObjectIsAliveEv
08027f2c T _ZN27CLR_RT_ObjectToEvent_Source6DetachEv
08027f64 T _ZN27CLR_RT_ObjectToEvent_Source8RelocateEv
08025af8 T _ZN28CLR_RT_HeapBlock_LockRequest14CreateInstanceEP21CLR_RT_HeapBlock_LockP16CLR_RT_SubThreadRKxb
0800f364 t _ZN3._913GetDriverNameEv
080199a0 W _ZN30CLR_RT_HeapBlock_Delegate_List12GetDelegatesEv
08024f90 T _ZN30CLR_RT_HeapBlock_Delegate_List14CreateInstanceERPS_j
08025018 T _ZN30CLR_RT_HeapBlock_Delegate_List15CopyAndCompressEP16CLR_RT_HeapBlockS1_j
08025084 T _ZN30CLR_RT_HeapBlock_Delegate_List6ChangeER16CLR_RT_HeapBlockS1_S1_bb
08025474 T _ZN30CLR_RT_HeapBlock_Delegate_List6RemoveER16CLR_RT_HeapBlockS1_S1_
08025444 T _ZN30CLR_RT_HeapBlock_Delegate_List7CombineER16CLR_RT_HeapBlockS1_S1_b
080254a4 T _ZN30CLR_RT_HeapBlock_Delegate_List8RelocateEv
080270b0 T _ZN30CLR_RT_HeapBlock_WaitForObject12SignalObjectER16CLR_RT_HeapBlock
08027138 T _ZN30CLR_RT_HeapBlock_WaitForObject13WaitForSignalER17CLR_RT_StackFrameRKxP16CLR_RT_HeapBlockjb
08027220 T _ZN30CLR_RT_HeapBlock_WaitForObject13WaitForSignalER17CLR_RT_StackFrameRKxR16CLR_RT_HeapBlock
08026e68 T _ZN30CLR_RT_HeapBlock_WaitForObject14CreateInstanceEP13CLR_RT_ThreadRKxP16CLR_RT_HeapBlockjb
08026f1c T _ZN30CLR_RT_HeapBlock_WaitForObject16TryWaitForSignalEP13CLR_RT_Thread
08026f60 T _ZN30CLR_RT_HeapBlock_WaitForObject16TryWaitForSignalEP13CLR_RT_ThreadP16CLR_RT_HeapBlockjb
080199f4 W _ZN30CLR_RT_HeapBlock_WaitForObject17GetWaitForObjectsEv
0802724c T _ZN30CLR_RT_HeapBlock_WaitForObject8RelocateEv
08007e88 T _ZN30CLR_RT_HeapBlock_WeakReference14CreateInstanceERPS_
080081a8 T _ZN30CLR_RT_HeapBlock_WeakReference14RecoverObjectsER20CLR_RT_DblLinkedList
08007fa0 T _ZN30CLR_RT_HeapBlock_WeakReference18PrepareForRecoveryEP21CLR_RT_HeapBlock_NodeS1_j
08007f48 T _ZN30CLR_RT_HeapBlock_WeakReference21InsertInPriorityOrderEv
08007f70 T _ZN30CLR_RT_HeapBlock_WeakReference8RelocateEv
08007f20 T _ZN30CLR_RT_HeapBlock_WeakReference9GetTargetER16CLR_RT_HeapBlock
08007ed4 T _ZN30CLR_RT_HeapBlock_WeakReference9SetTargetER16CLR_RT_HeapBlock
08001168 W _ZN30CLR_RT_MethodDef_DebuggingInfo10ResetFlagsEh
080189d4 W _ZN30CLR_RT_MethodDef_DebuggingInfo13SetBreakpointEb
08001198 W _ZN30CLR_RT_MethodDef_DebuggingInfo13SetResetFlagsEbh
0800111c W _ZN30CLR_RT_MethodDef_DebuggingInfo6SetJMCEb
08001140 W _ZN30CLR_RT_MethodDef_DebuggingInfo8SetFlagsEh
08039984 T _ZN31Library_corlib_native_System_GC38AnyPendingFinalizers___STATIC__BOOLEANER17CLR_RT_StackFrame
080399f4 T _ZN31Library_corlib_native_System_GC39SuppressFinalize___STATIC__VOID__OBJECTER17CLR_RT_StackFrame
08039a34 T _ZN31Library_corlib_native_System_GC44ReRegisterForFinalize___STATIC__VOID__OBJECTER17CLR_RT_StackFrame
08027ce0 T _ZN32CLR_RT_ObjectToEvent_Destination10InitializeEv
08027e0c T _ZN32CLR_RT_ObjectToEvent_Destination15ReleaseWhenDeadEv
08027dc8 T _ZN32CLR_RT_ObjectToEvent_Destination17IsReadyForReleaseEv
08027cfc T _ZN32CLR_RT_ObjectToEvent_Destination8CheckAllEv
08027d98 T _ZN32CLR_RT_ObjectToEvent_Destination9DetachAllEv
08027d44 T _ZN32CLR_RT_ObjectToEvent_Destination9SignalAllEv
08039da4 T _ZN33Library_corlib_native_System_Math20Cos___STATIC__R8__R8ER17CLR_RT_StackFrame
08039ec0 T _ZN33Library_corlib_native_System_Math20Exp___STATIC__R8__R8ER17CLR_RT_StackFrame
08039f68 T _ZN33Library_corlib_native_System_Math20Log___STATIC__R8__R8ER17CLR_RT_StackFrame
0803a204 T _ZN33Library_corlib_native_System_Math20Sin___STATIC__R8__R8ER17CLR_RT_StackFrame
0803a300 T _ZN33Library_corlib_native_System_Math20Tan___STATIC__R8__R8ER17CLR_RT_StackFrame
08039be0 T _ZN33Library_corlib_native_System_Math21Acos___STATIC__R8__R8ER17CLR_RT_StackFrame
08039c34 T _ZN33Library_corlib_native_System_Math21Asin___STATIC__R8__R8ER17CLR_RT_StackFrame
08039c88 T _ZN33Library_corlib_native_System_Math21Atan___STATIC__R8__R8ER17CLR_RT_StackFrame
08039df8 T _ZN33Library_corlib_native_System_Math21Cosh___STATIC__R8__R8ER17CLR_RT_StackFrame
0803a15c T _ZN33Library_corlib_native_System_Math21Sign___STATIC__I4__R8ER17CLR_RT_StackFrame
0803a258 T _ZN33Library_corlib_native_System_Math21Sinh___STATIC__R8__R8ER17CLR_RT_StackFrame
0803a2ac T _ZN33Library_corlib_native_System_Math21Sqrt___STATIC__R8__R8ER17CLR_RT_StackFrame
0803a354 T _ZN33Library_corlib_native_System_Math21Tanh___STATIC__R8__R8ER17CLR_RT_StackFrame
08039f14 T _ZN33Library_corlib_native_System_Math22Floor___STATIC__R8__R8ER17CLR_RT_StackFrame
08039fbc T _ZN33Library_corlib_native_System_Math22Log10___STATIC__R8__R8ER17CLR_RT_StackFrame
0803a084 T _ZN33Library_corlib_native_System_Math22Round___STATIC__R8__R8ER17CLR_RT_StackFrame
08039d50 T _ZN33Library_corlib_native_System_Math24Ceiling___STATIC__R8__R8ER17CLR_RT_StackFrame
0803a010 T _ZN33Library_corlib_native_System_Math24Pow___STATIC__R8__R8__R8ER17CLR_RT_StackFrame
0803a3a8 T _ZN33Library_corlib_native_System_Math25Truncate___STATIC__R8__R8ER17CLR_RT_StackFrame
08039cdc T _ZN33Library_corlib_native_System_Math26Atan2___STATIC__R8__R8__R8ER17CLR_RT_StackFrame
08039e4c T _ZN33Library_corlib_native_System_Math34IEEERemainder___STATIC__R8__R8__R8ER17CLR_RT_StackFrame
080407c0 T _ZN33Library_corlib_native_System_Type107InvokeMember___OBJECT__STRING__SystemReflectionBindingFlags__SystemReflectionBinder__OBJECT__SZARRAY_OBJECTER17CLR_RT_StackFrame
08040d78 T _ZN33Library_corlib_native_System_Type10CheckFlagsER17CLR_RT_StackFramejj
08041100 T _ZN33Library_corlib_native_System_Type10GetMethodsER17CLR_RT_StackFramePKcjP16CLR_RT_HeapBlockib
08040a10 T _ZN33Library_corlib_native_System_Type20get_IsEnum___BOOLEANER17CLR_RT_StackFrame
08040a60 T _ZN33Library_corlib_native_System_Type21get_IsArray___BOOLEANER17CLR_RT_StackFrame
08040970 T _ZN33Library_corlib_native_System_Type21get_IsClass___BOOLEANER17CLR_RT_StackFrame
08040948 T _ZN33Library_corlib_native_System_Type22get_IsPublic___BOOLEANER17CLR_RT_StackFrame
080409e8 T _ZN33Library_corlib_native_System_Type24get_IsAbstract___BOOLEANER17CLR_RT_StackFrame
08040998 T _ZN33Library_corlib_native_System_Type25get_IsInterface___BOOLEANER17CLR_RT_StackFrame
08040920 T _ZN33Library_corlib_native_System_Type25get_IsNotPublic___BOOLEANER17CLR_RT_StackFrame
080409c0 T _ZN33Library_corlib_native_System_Type25get_IsValueType___BOOLEANER17CLR_RT_StackFrame
08040a38 T _ZN33Library_corlib_native_System_Type28get_IsSerializable___BOOLEANER17CLR_RT_StackFrame
080405f8 T _ZN33Library_corlib_native_System_Type30get_DeclaringType___SystemTypeER17CLR_RT_StackFrame
08040714 T _ZN33Library_corlib_native_System_Type34IsInstanceOfType___BOOLEAN__OBJECTER17CLR_RT_StackFrame
080408cc T _ZN33Library_corlib_native_System_Type46GetMethod___SystemReflectionMethodInfo__STRINGER17CLR_RT_StackFrame
08040d14 T _ZN33Library_corlib_native_System_Type63GetTypeFromHandle___STATIC__SystemType__SystemRuntimeTypeHandleER17CLR_RT_StackFrame
08040844 T _ZN33Library_corlib_native_System_Type66GetMethod___SystemReflectionMethodInfo__STRING__SZARRAY_SystemTypeER17CLR_RT_StackFrame
080407e0 T _ZN33Library_corlib_native_System_Type68GetConstructor___SystemReflectionConstructorInfo__SZARRAY_SystemTypeER17CLR_RT_StackFrame
08040ac8 T _ZN33Library_corlib_native_System_Type73GetTypeInternal___STATIC__SystemType__STRING__STRING__BOOLEAN__SZARRAY_I4ER17CLR_RT_StackFrame
080406b0 T _ZN33Library_corlib_native_System_Type76GetMethod___SystemReflectionMethodInfo__STRING__SystemReflectionBindingFlagsER17CLR_RT_StackFrame
08040e14 T _ZN33Library_corlib_native_System_Type9GetFieldsER17CLR_RT_StackFramePKcjb
080382b0 T _ZN34Library_corlib_native_System_Array12TrySZIndexOfER17CLR_RT_StackFrameR16CLR_RT_HeapBlockS3_iibS3_
08037fa4 T _ZN34Library_corlib_native_System_Array15get_Length___I4ER17CLR_RT_StackFrame
080380f4 T _ZN34Library_corlib_native_System_Array41Clear___STATIC__VOID__SystemArray__I4__I4ER17CLR_RT_StackFrame
08037ea4 T _ZN34Library_corlib_native_System_Array46System_Collections_IList_get_Item___OBJECT__I4ER17CLR_RT_StackFrame
08038238 T _ZN34Library_corlib_native_System_Array4CopyER17CLR_RT_StackFrameR16CLR_RT_HeapBlockiS3_ii
08037ff8 T _ZN34Library_corlib_native_System_Array52CreateInstance___STATIC__SystemArray__SystemType__I4ER17CLR_RT_StackFrame
08037f38 T _ZN34Library_corlib_native_System_Array52System_Collections_IList_set_Item___VOID__I4__OBJECTER17CLR_RT_StackFrame
0803807c T _ZN34Library_corlib_native_System_Array57Copy___STATIC__VOID__SystemArray__I4__SystemArray__I4__I4ER17CLR_RT_StackFrame
080381bc T _ZN34Library_corlib_native_System_Array5ClearER17CLR_RT_StackFrameR16CLR_RT_HeapBlockii
08038144 T _ZN34Library_corlib_native_System_Array69TrySZIndexOf___STATIC__BOOLEAN__SystemArray__I4__I4__OBJECT__BYREF_I4ER17CLR_RT_StackFrame
08039394 T _ZN35Library_corlib_native_System_Double27IsNaN___STATIC__BOOLEAN__R8ER17CLR_RT_StackFrame
080392cc T _ZN35Library_corlib_native_System_Double30CompareTo___STATIC__I4__R8__R8ER17CLR_RT_StackFrame
08039344 T _ZN35Library_corlib_native_System_Double32IsInfinity___STATIC__BOOLEAN__R8ER17CLR_RT_StackFrame
080393e4 T _ZN35Library_corlib_native_System_Double40IsNegativeInfinity___STATIC__BOOLEAN__R8ER17CLR_RT_StackFrame
08039434 T _ZN35Library_corlib_native_System_Double40IsPositiveInfinity___STATIC__BOOLEAN__R8ER17CLR_RT_StackFrame
0803a44c T _ZN35Library_corlib_native_System_Number47FormatNative___STATIC__STRING__OBJECT__CHAR__I4ER17CLR_RT_StackFrame
0803aa04 T _ZN35Library_corlib_native_System_Object16GetHashCode___I4ER17CLR_RT_StackFrame
0803aa40 T _ZN35Library_corlib_native_System_Object20GetType___SystemTypeER17CLR_RT_StackFrame
0803a9c4 T _ZN35Library_corlib_native_System_Object24Equals___BOOLEAN__OBJECTER17CLR_RT_StackFrame
0803ab10 T _ZN35Library_corlib_native_System_Object24MemberwiseClone___OBJECTER17CLR_RT_StackFrame
0803ab48 T _ZN35Library_corlib_native_System_Object49ReferenceEquals___STATIC__BOOLEAN__OBJECT__OBJECTER17CLR_RT_StackFrame
0803ad1c T _ZN35Library_corlib_native_System_Random12_ctor___VOIDER17CLR_RT_StackFrame
0803abd4 T _ZN35Library_corlib_native_System_Random13Next___I4__I4ER17CLR_RT_StackFrame
0803ac54 T _ZN35Library_corlib_native_System_Random15NextDouble___R8ER17CLR_RT_StackFrame
0803ad60 T _ZN35Library_corlib_native_System_Random16_ctor___VOID__I4ER17CLR_RT_StackFrame
0803aca8 T _ZN35Library_corlib_native_System_Random28NextBytes___VOID__SZARRAY_U1ER17CLR_RT_StackFrame
0803adb8 T _ZN35Library_corlib_native_System_Random9GetRandomER17CLR_RT_StackFrameRP13CLR_RT_Randomb
0803ab88 T _ZN35Library_corlib_native_System_Random9Next___I4ER17CLR_RT_StackFrame
0803df2c T _ZN35Library_corlib_native_System_String10ChangeCaseER17CLR_RT_StackFrameb
0803db80 T _ZN35Library_corlib_native_System_String11ToCharArrayER17CLR_RT_StackFrameii
0803dadc T _ZN35Library_corlib_native_System_String13FromCharArrayER17CLR_RT_StackFrameii
0803d900 T _ZN35Library_corlib_native_System_String13Trim___STRINGER17CLR_RT_StackFrame
0803d244 T _ZN35Library_corlib_native_System_String15get_Length___I4ER17CLR_RT_StackFrame
0803d8b8 T _ZN35Library_corlib_native_System_String16ToLower___STRINGER17CLR_RT_StackFrame
0803d8dc T _ZN35Library_corlib_native_System_String16ToUpper___STRINGER17CLR_RT_StackFrame
0803e6f4 T _ZN35Library_corlib_native_System_String18ConvertToCharArrayEPKcR16CLR_RT_HeapBlockRP22CLR_RT_HeapBlock_Arrayii
0803e7e8 T _ZN35Library_corlib_native_System_String18ConvertToCharArrayER17CLR_RT_StackFrameR16CLR_RT_HeapBlockRP22CLR_RT_HeapBlock_Arrayii
0803d630 T _ZN35Library_corlib_native_System_String18IndexOf___I4__CHARER17CLR_RT_StackFrame
0803d708 T _ZN35Library_corlib_native_System_String20IndexOf___I4__STRINGER17CLR_RT_StackFrame
0803d100 T _ZN35Library_corlib_native_System_String20get_Chars___CHAR__I4ER17CLR_RT_StackFrame
0803d5d0 T _ZN35Library_corlib_native_System_String22CompareTo___I4__OBJECTER17CLR_RT_StackFrame
0803d5f0 T _ZN35Library_corlib_native_System_String22CompareTo___I4__STRINGER17CLR_RT_StackFrame
0803d654 T _ZN35Library_corlib_native_System_String22IndexOf___I4__CHAR__I4ER17CLR_RT_StackFrame
0803d774 T _ZN35Library_corlib_native_System_String22LastIndexOf___I4__CHARER17CLR_RT_StackFrame
0803d30c T _ZN35Library_corlib_native_System_String22Substring___STRING__I4ER17CLR_RT_StackFrame
0803d4b4 T _ZN35Library_corlib_native_System_String22_ctor___VOID__CHAR__I4ER17CLR_RT_StackFrame
0803d72c T _ZN35Library_corlib_native_System_String24IndexOf___I4__STRING__I4ER17CLR_RT_StackFrame
0803d84c T _ZN35Library_corlib_native_System_String24LastIndexOf___I4__STRINGER17CLR_RT_StackFrame
0803d678 T _ZN35Library_corlib_native_System_String26IndexOf___I4__CHAR__I4__I4ER17CLR_RT_StackFrame
0803d798 T _ZN35Library_corlib_native_System_String26LastIndexOf___I4__CHAR__I4ER17CLR_RT_StackFrame
0803d344 T _ZN35Library_corlib_native_System_String26Substring___STRING__I4__I4ER17CLR_RT_StackFrame
0803d1d4 T _ZN35Library_corlib_native_System_String26ToCharArray___SZARRAY_CHARER17CLR_RT_StackFrame
0803d48c T _ZN35Library_corlib_native_System_String26_ctor___VOID__SZARRAY_CHARER17CLR_RT_StackFrame
0803d39c T _ZN35Library_corlib_native_System_String27Trim___STRING__SZARRAY_CHARER17CLR_RT_StackFrame
0803d750 T _ZN35Library_corlib_native_System_String28IndexOf___I4__STRING__I4__I4ER17CLR_RT_StackFrame
0803d870 T _ZN35Library_corlib_native_System_String28LastIndexOf___I4__STRING__I4ER17CLR_RT_StackFrame
0803d69c T _ZN35Library_corlib_native_System_String29IndexOfAny___I4__SZARRAY_CHARER17CLR_RT_StackFrame
0803d7bc T _ZN35Library_corlib_native_System_String30LastIndexOf___I4__CHAR__I4__I4ER17CLR_RT_StackFrame
0803d40c T _ZN35Library_corlib_native_System_String30TrimEnd___STRING__SZARRAY_CHARER17CLR_RT_StackFrame
0803d894 T _ZN35Library_corlib_native_System_String32LastIndexOf___I4__STRING__I4__I4ER17CLR_RT_StackFrame
0803d3d4 T _ZN35Library_corlib_native_System_String32TrimStart___STRING__SZARRAY_CHARER17CLR_RT_StackFrame
0803d6c0 T _ZN35Library_corlib_native_System_String33IndexOfAny___I4__SZARRAY_CHAR__I4ER17CLR_RT_StackFrame
0803d7e0 T _ZN35Library_corlib_native_System_String33LastIndexOfAny___I4__SZARRAY_CHARER17CLR_RT_StackFrame
0803d1fc T _ZN35Library_corlib_native_System_String34ToCharArray___SZARRAY_CHAR__I4__I4ER17CLR_RT_StackFrame
0803d444 T _ZN35Library_corlib_native_System_String34_ctor___VOID__SZARRAY_CHAR__I4__I4ER17CLR_RT_StackFrame
0803d9cc T _ZN35Library_corlib_native_System_String36Compare___STATIC__I4__STRING__STRINGER17CLR_RT_StackFrame
0803d2a4 T _ZN35Library_corlib_native_System_String36Split___SZARRAY_STRING__SZARRAY_CHARER17CLR_RT_StackFrame
0803d6e4 T _ZN35Library_corlib_native_System_String37IndexOfAny___I4__SZARRAY_CHAR__I4__I4ER17CLR_RT_StackFrame
0803d804 T _ZN35Library_corlib_native_System_String37LastIndexOfAny___I4__SZARRAY_CHAR__I4ER17CLR_RT_StackFrame
0803da08 T _ZN35Library_corlib_native_System_String39Concat___STATIC__STRING__STRING__STRINGER17CLR_RT_StackFrame
0803da8c T _ZN35Library_corlib_native_System_String39Concat___STATIC__STRING__SZARRAY_STRINGER17CLR_RT_StackFrame
0803d92c T _ZN35Library_corlib_native_System_String40Equals___STATIC__BOOLEAN__STRING__STRINGER17CLR_RT_StackFrame
0803d2d0 T _ZN35Library_corlib_native_System_String40Split___SZARRAY_STRING__SZARRAY_CHAR__I4ER17CLR_RT_StackFrame
0803d828 T _ZN35Library_corlib_native_System_String41LastIndexOfAny___I4__SZARRAY_CHAR__I4__I4ER17CLR_RT_StackFrame
0803d974 T _ZN35Library_corlib_native_System_String45op_Equality___STATIC__BOOLEAN__STRING__STRINGER17CLR_RT_StackFrame
0803da34 T _ZN35Library_corlib_native_System_String47Concat___STATIC__STRING__STRING__STRING__STRINGER17CLR_RT_StackFrame
0803d994 T _ZN35Library_corlib_native_System_String47op_Inequality___STATIC__BOOLEAN__STRING__STRINGER17CLR_RT_StackFrame
0803e144 T _ZN35Library_corlib_native_System_String4TrimER17CLR_RT_StackFrameP22CLR_RT_HeapBlock_Arraybb
0803da60 T _ZN35Library_corlib_native_System_String55Concat___STATIC__STRING__STRING__STRING__STRING__STRINGER17CLR_RT_StackFrame
0803e310 T _ZN35Library_corlib_native_System_String5SplitER17CLR_RT_StackFrameR16CLR_RT_HeapBlocki
0803e5b0 T _ZN35Library_corlib_native_System_String6ConcatER17CLR_RT_StackFrameP16CLR_RT_HeapBlocki
0803dbb8 T _ZN35Library_corlib_native_System_String7IndexOfER17CLR_RT_StackFramei
0803e050 T _ZN35Library_corlib_native_System_String9SubstringER17CLR_RT_StackFrameii
08038eb0 T _ZN37Library_corlib_native_System_DateTime11GetValuePtrER16CLR_RT_HeapBlock
08038e8c T _ZN37Library_corlib_native_System_DateTime11GetValuePtrER17CLR_RT_StackFrame
080389a8 T _ZN37Library_corlib_native_System_DateTime12get_Day___I4ER17CLR_RT_StackFrame
08038a68 T _ZN37Library_corlib_native_System_DateTime13get_Hour___I4ER17CLR_RT_StackFrame
08038b58 T _ZN37Library_corlib_native_System_DateTime13get_Year___I4ER17CLR_RT_StackFrame
08038af8 T _ZN37Library_corlib_native_System_DateTime14get_Month___I4ER17CLR_RT_StackFrame
08038ac8 T _ZN37Library_corlib_native_System_DateTime15get_Minute___I4ER17CLR_RT_StackFrame
08038b28 T _ZN37Library_corlib_native_System_DateTime15get_Second___I4ER17CLR_RT_StackFrame
08038a08 T _ZN37Library_corlib_native_System_DateTime18get_DayOfYear___I4ER17CLR_RT_StackFrame
08038a98 T _ZN37Library_corlib_native_System_DateTime20get_Millisecond___I4ER17CLR_RT_StackFrame
08038b88 T _ZN37Library_corlib_native_System_DateTime28ToLocalTime___SystemDateTimeER17CLR_RT_StackFrame
080389d8 T _ZN37Library_corlib_native_System_DateTime31get_DayOfWeek___SystemDayOfWeekER17CLR_RT_StackFrame
08038d24 T _ZN37Library_corlib_native_System_DateTime32DaysInMonth___STATIC__I4__I4__I4ER17CLR_RT_StackFrame
08038c54 T _ZN37Library_corlib_native_System_DateTime32ToUniversalTime___SystemDateTimeER17CLR_RT_StackFrame
08038d84 T _ZN37Library_corlib_native_System_DateTime32get_Now___STATIC__SystemDateTimeER17CLR_RT_StackFrame
08038dec T _ZN37Library_corlib_native_System_DateTime34get_Today___STATIC__SystemDateTimeER17CLR_RT_StackFrame
08038db8 T _ZN37Library_corlib_native_System_DateTime35get_UtcNow___STATIC__SystemDateTimeER17CLR_RT_StackFrame
080388b0 T _ZN37Library_corlib_native_System_DateTime40_ctor___VOID__I4__I4__I4__I4__I4__I4__I4ER17CLR_RT_StackFrame
08038f5c T _ZN37Library_corlib_native_System_DateTime6ExpandER17CLR_RT_StackFrameR10SYSTEMTIME
08038fa8 T _ZN37Library_corlib_native_System_DateTime8CompressER17CLR_RT_StackFrameRK10SYSTEMTIME
08038e54 T _ZN37Library_corlib_native_System_DateTime9NewObjectER17CLR_RT_StackFrame
080391d8 T _ZN37Library_corlib_native_System_Delegate15GetLastDelegateEP25CLR_RT_HeapBlock_Delegate
080390b0 T _ZN37Library_corlib_native_System_Delegate19get_Target___OBJECTER17CLR_RT_StackFrame
08038fdc T _ZN37Library_corlib_native_System_Delegate24Equals___BOOLEAN__OBJECTER17CLR_RT_StackFrame
08039024 T _ZN37Library_corlib_native_System_Delegate39get_Method___SystemReflectionMethodInfoER17CLR_RT_StackFrame
08039180 T _ZN37Library_corlib_native_System_Delegate61op_Equality___STATIC__BOOLEAN__SystemDelegate__SystemDelegateER17CLR_RT_StackFrame
08039144 T _ZN37Library_corlib_native_System_Delegate63Remove___STATIC__SystemDelegate__SystemDelegate__SystemDelegateER17CLR_RT_StackFrame
080391a0 T _ZN37Library_corlib_native_System_Delegate63op_Inequality___STATIC__BOOLEAN__SystemDelegate__SystemDelegateER17CLR_RT_StackFrame
08039104 T _ZN37Library_corlib_native_System_Delegate64Combine___STATIC__SystemDelegate__SystemDelegate__SystemDelegateER17CLR_RT_StackFrame
080404f0 T _ZN37Library_corlib_native_System_TimeSpan11GetValuePtrER16CLR_RT_HeapBlock
080404cc T _ZN37Library_corlib_native_System_TimeSpan11GetValuePtrER17CLR_RT_StackFrame
08040288 T _ZN37Library_corlib_native_System_TimeSpan17ConstructTimeSpanEPxiiiii
08040074 T _ZN37Library_corlib_native_System_TimeSpan17ToString___STRINGER17CLR_RT_StackFrame
08040384 T _ZN37Library_corlib_native_System_TimeSpan22CompareTo___I4__OBJECTER17CLR_RT_StackFrame
0804001c T _ZN37Library_corlib_native_System_TimeSpan24Equals___BOOLEAN__OBJECTER17CLR_RT_StackFrame
080400e0 T _ZN37Library_corlib_native_System_TimeSpan24_ctor___VOID__I4__I4__I4ER17CLR_RT_StackFrame
0804015c T _ZN37Library_corlib_native_System_TimeSpan28_ctor___VOID__I4__I4__I4__I4ER17CLR_RT_StackFrame
080401e8 T _ZN37Library_corlib_native_System_TimeSpan32_ctor___VOID__I4__I4__I4__I4__I4ER17CLR_RT_StackFrame
080403d8 T _ZN37Library_corlib_native_System_TimeSpan52Compare___STATIC__I4__SystemTimeSpan__SystemTimeSpanER17CLR_RT_StackFrame
0804045c T _ZN37Library_corlib_native_System_TimeSpan56Equals___STATIC__BOOLEAN__SystemTimeSpan__SystemTimeSpanER17CLR_RT_StackFrame
08040494 T _ZN37Library_corlib_native_System_TimeSpan9NewObjectER17CLR_RT_StackFrame
0804059c T _ZN37Library_corlib_native_System_TimeZone30GetTimeZoneOffset___STATIC__I8ER17CLR_RT_StackFrame
08041fd0 T _ZN38CLR_RT_HeapBlock_NativeEventDispatcher13RecoverFromGCEv
080421c4 T _ZN38CLR_RT_HeapBlock_NativeEventDispatcher13StartDispatchEP27CLR_RT_ApplicationInterruptP13CLR_RT_Thread
08041f04 T _ZN38CLR_RT_HeapBlock_NativeEventDispatcher14CreateInstanceER16CLR_RT_HeapBlockS1_
08042108 T _ZN38CLR_RT_HeapBlock_NativeEventDispatcher14SaveToHALQueueEjj
08041ff0 T _ZN38CLR_RT_HeapBlock_NativeEventDispatcher17ReleaseWhenDeadExEv
08042088 T _ZN38CLR_RT_HeapBlock_NativeEventDispatcher18RemoveFromHALQueueEv
080423b8 T _ZN38CLR_RT_HeapBlock_NativeEventDispatcher20RecoverManagedObjectERP16CLR_RT_HeapBlock
08041eb4 T _ZN38CLR_RT_HeapBlock_NativeEventDispatcher21HandlerMethod_CleanUpEv
08041e58 T _ZN38CLR_RT_HeapBlock_NativeEventDispatcher24HandlerMethod_InitializeEv
08042304 T _ZN38CLR_RT_HeapBlock_NativeEventDispatcher25ThreadTerminationCallbackEPv
08041e6c T _ZN38CLR_RT_HeapBlock_NativeEventDispatcher27HandlerMethod_RecoverFromGCEv
08042364 T _ZN38CLR_RT_HeapBlock_NativeEventDispatcher29RTOSThreadTerminationCallbackEPv
20002b4c B _ZN38CLR_RT_HeapBlock_NativeEventDispatcher9m_ioPortsE
08037d28 T _ZN38Library_corlib_native_System_AppDomain12GetAppDomainER16CLR_RT_HeapBlockRP16CLR_RT_AppDomainS4_b
08037bf0 T _ZN38Library_corlib_native_System_AppDomain38Unload___STATIC__VOID__SystemAppDomainER17CLR_RT_StackFrame
08037ab4 T _ZN38Library_corlib_native_System_AppDomain46CreateDomain___STATIC__SystemAppDomain__STRINGER17CLR_RT_StackFrame
08037838 T _ZN38Library_corlib_native_System_AppDomain48GetAssemblies___SZARRAY_SystemReflectionAssemblyER17CLR_RT_StackFrame
080378b8 T _ZN38Library_corlib_native_System_AppDomain72LoadInternal___SystemReflectionAssembly__STRING__BOOLEAN__I4__I4__I4__I4ER17CLR_RT_StackFrame
08007294 W _ZN38Library_corlib_native_System_Exception10GetHResultEP16CLR_RT_HeapBlock
08007274 W _ZN38Library_corlib_native_System_Exception10GetMessageEP16CLR_RT_HeapBlock
08039930 T _ZN38Library_corlib_native_System_Exception13GetStackTraceEP16CLR_RT_HeapBlockRj
080397cc T _ZN38Library_corlib_native_System_Exception13SetStackTraceER16CLR_RT_HeapBlockP17CLR_RT_StackFrame
08039680 T _ZN38Library_corlib_native_System_Exception14CreateInstanceER16CLR_RT_HeapBlockRK20CLR_RT_TypeDef_IndexiP17CLR_RT_StackFrame
0803974c T _ZN38Library_corlib_native_System_Exception14CreateInstanceER16CLR_RT_HeapBlockiP17CLR_RT_StackFrame
08039484 T _ZN38Library_corlib_native_System_Exception23get_StackTrace___STRINGER17CLR_RT_StackFrame
080398fc T _ZN38Library_corlib_native_System_Exception9GetTargetER16CLR_RT_HeapBlock
08041724 T _ZN38Library_corlib_native_System_ValueType24Equals___BOOLEAN__OBJECTER17CLR_RT_StackFrame
080448d8 T _ZN39Library_spot_native_Microsoft_SPOT_Math20Cos___STATIC__I4__I4ER17CLR_RT_StackFrame
080448fc T _ZN39Library_spot_native_Microsoft_SPOT_Math20Sin___STATIC__I4__I4ER17CLR_RT_StackFrame
080516e0 W _ZN3MACI7MessageI19IEEE802_15_4_HeaderLt113E19IEEE802_15_4_Footer21IEEE802_15_4_MetadataE9MacConfigE10SetAddressEt
0803cdf0 T _ZN40Library_corlib_native_System_RuntimeType17GetTypeDescriptorER16CLR_RT_HeapBlockR23CLR_RT_TypeDef_Instance
0803cdc0 T _ZN40Library_corlib_native_System_RuntimeType17GetTypeDescriptorER16CLR_RT_HeapBlockR23CLR_RT_TypeDef_InstancePj
0803c9b0 T _ZN40Library_corlib_native_System_RuntimeType17get_Name___STRINGER17CLR_RT_StackFrame
0803ca00 T _ZN40Library_corlib_native_System_RuntimeType21get_FullName___STRINGER17CLR_RT_StackFrame
0803ca50 T _ZN40Library_corlib_native_System_RuntimeType25get_BaseType___SystemTypeER17CLR_RT_StackFrame
0803cd10 T _ZN40Library_corlib_native_System_RuntimeType27GetElementType___SystemTypeER17CLR_RT_StackFrame
0803cbf0 T _ZN40Library_corlib_native_System_RuntimeType34GetInterfaces___SZARRAY_SystemTypeER17CLR_RT_StackFrame
0803c908 T _ZN40Library_corlib_native_System_RuntimeType39get_Assembly___SystemReflectionAssemblyER17CLR_RT_StackFrame
0803cb74 T _ZN40Library_corlib_native_System_RuntimeType74GetField___SystemReflectionFieldInfo__STRING__SystemReflectionBindingFlagsER17CLR_RT_StackFrame
0803cbb8 T _ZN40Library_corlib_native_System_RuntimeType75GetFields___SZARRAY_SystemReflectionFieldInfo__SystemReflectionBindingFlagsER17CLR_RT_StackFrame
0803cb30 T _ZN40Library_corlib_native_System_RuntimeType77GetMethods___SZARRAY_SystemReflectionMethodInfo__SystemReflectionBindingFlagsER17CLR_RT_StackFrame
0803ce3c T _ZN40Library_corlib_native_System_RuntimeType7GetNameER16CLR_RT_HeapBlockbS1_
080437c0 T _ZN40Library_spot_native_Microsoft_SPOT_Debug24GC___STATIC__U4__BOOLEANER17CLR_RT_StackFrame
08043768 T _ZN40Library_spot_native_Microsoft_SPOT_Debug28Print___STATIC__VOID__STRINGER17CLR_RT_StackFrame
08043834 T _ZN40Library_spot_native_Microsoft_SPOT_Debug40EnableGCMessages___STATIC__VOID__BOOLEANER17CLR_RT_StackFrame
080417ac T _ZN42Library_corlib_native_System_WeakReference19get_Target___OBJECTER17CLR_RT_StackFrame
0804182c T _ZN42Library_corlib_native_System_WeakReference20_ctor___VOID__OBJECTER17CLR_RT_StackFrame
08041764 T _ZN42Library_corlib_native_System_WeakReference21get_IsAlive___BOOLEANER17CLR_RT_StackFrame
080417ec T _ZN42Library_corlib_native_System_WeakReference25set_Target___VOID__OBJECTER17CLR_RT_StackFrame
0803fde8 T _ZN44Library_corlib_native_System_Threading_Timer13CheckDisposedER17CLR_RT_StackFrame
0803fcfc T _ZN44Library_corlib_native_System_Threading_Timer14Dispose___VOIDER17CLR_RT_StackFrame
0803fd68 T _ZN44Library_corlib_native_System_Threading_Timer24Change___BOOLEAN__I4__I4ER17CLR_RT_StackFrame
0803fda8 T _ZN44Library_corlib_native_System_Threading_Timer48Change___BOOLEAN__SystemTimeSpan__SystemTimeSpanER17CLR_RT_StackFrame
0803fd20 T _ZN44Library_corlib_native_System_Threading_Timer58_ctor___VOID__SystemThreadingTimerCallback__OBJECT__I4__I4ER17CLR_RT_StackFrame
0803fd44 T _ZN44Library_corlib_native_System_Threading_Timer82_ctor___VOID__SystemThreadingTimerCallback__OBJECT__SystemTimeSpan__SystemTimeSpanER17CLR_RT_StackFrame
0803fe04 T _ZN44Library_corlib_native_System_Threading_Timer9SetValuesER17CLR_RT_StackFramej
0803e824 T _ZN45Library_corlib_native_System_Text_UTF8Decoder100Convert___VOID__SZARRAY_U1__I4__I4__SZARRAY_CHAR__I4__I4__BOOLEAN__BYREF_I4__BYREF_I4__BYREF_BOOLEANER17CLR_RT_StackFrame
0803f730 T _ZN45Library_corlib_native_System_Threading_Thread11Join___VOIDER17CLR_RT_StackFrame
0803f3e4 T _ZN45Library_corlib_native_System_Threading_Thread12Abort___VOIDER17CLR_RT_StackFrame
0803f300 T _ZN45Library_corlib_native_System_Threading_Thread12Start___VOIDER17CLR_RT_StackFrame
0803f4cc T _ZN45Library_corlib_native_System_Threading_Thread13Resume___VOIDER17CLR_RT_StackFrame
0803f43c T _ZN45Library_corlib_native_System_Threading_Thread14Suspend___VOIDER17CLR_RT_StackFrame
0803fb40 T _ZN45Library_corlib_native_System_Threading_Thread18GetThreadReferenceER17CLR_RT_StackFrame
0803f760 T _ZN45Library_corlib_native_System_Threading_Thread18Join___BOOLEAN__I4ER17CLR_RT_StackFrame
0803fb6c T _ZN45Library_corlib_native_System_Threading_Thread20ResetThreadReferenceER17CLR_RT_StackFrame
0803f6e0 T _ZN45Library_corlib_native_System_Threading_Thread21get_IsAlive___BOOLEANER17CLR_RT_StackFrame
0803f8d8 T _ZN45Library_corlib_native_System_Threading_Thread24Sleep___STATIC__VOID__I4ER17CLR_RT_StackFrame
0803f694 T _ZN45Library_corlib_native_System_Threading_Thread24get_ManagedThreadId___I4ER17CLR_RT_StackFrame
0803f7bc T _ZN45Library_corlib_native_System_Threading_Thread30Join___BOOLEAN__SystemTimeSpanER17CLR_RT_StackFrame
0803faf4 T _ZN45Library_corlib_native_System_Threading_Thread35GetDomain___STATIC__SystemAppDomainER17CLR_RT_StackFrame
0803f264 T _ZN45Library_corlib_native_System_Threading_Thread40_ctor___VOID__SystemThreadingThreadStartER17CLR_RT_StackFrame
0803f510 T _ZN45Library_corlib_native_System_Threading_Thread44get_Priority___SystemThreadingThreadPriorityER17CLR_RT_StackFrame
0803f824 T _ZN45Library_corlib_native_System_Threading_Thread44get_ThreadState___SystemThreadingThreadStateER17CLR_RT_StackFrame
0803f9a4 T _ZN45Library_corlib_native_System_Threading_Thread49get_CurrentThread___STATIC__SystemThreadingThreadER17CLR_RT_StackFrame
0803fc44 T _ZN45Library_corlib_native_System_Threading_Thread4JoinER17CLR_RT_StackFrameRKx
0803f5c0 T _ZN45Library_corlib_native_System_Threading_Thread50set_Priority___VOID__SystemThreadingThreadPriorityER17CLR_RT_StackFrame
0803fbd0 T _ZN45Library_corlib_native_System_Threading_Thread9GetThreadER17CLR_RT_StackFrameRP13CLR_RT_Threadbb
0803fb94 T _ZN45Library_corlib_native_System_Threading_Thread9SetThreadER17CLR_RT_StackFrameP13CLR_RT_Thread
08044e48 T _ZN45Library_spot_native_Microsoft_SPOT_Reflection116GetAssemblyMemoryInfo___STATIC__BOOLEAN__mscorlibSystemReflectionAssembly__MicrosoftSPOTReflectionAssemblyMemoryInfoER17CLR_RT_StackFrame
08044b7c T _ZN45Library_spot_native_Microsoft_SPOT_Reflection44GetTypeHash___STATIC__U4__mscorlibSystemTypeER17CLR_RT_StackFrame
080452e8 T _ZN45Library_spot_native_Microsoft_SPOT_Reflection48GetTypeFromHash___STATIC__mscorlibSystemType__U4ER17CLR_RT_StackFrame
08044b34 T _ZN45Library_spot_native_Microsoft_SPOT_Reflection50IsTypeLoaded___STATIC__BOOLEAN__mscorlibSystemTypeER17CLR_RT_StackFrame
0804c690 T _ZN45Library_spot_native_Microsoft_SPOT_Reflection58Serialize___STATIC__SZARRAY_U1__OBJECT__mscorlibSystemTypeER17CLR_RT_StackFrame
0804c6b0 T _ZN45Library_spot_native_Microsoft_SPOT_Reflection60Deserialize___STATIC__OBJECT__SZARRAY_U1__mscorlibSystemTypeER17CLR_RT_StackFrame
08044bd4 T _ZN45Library_spot_native_Microsoft_SPOT_Reflection62GetAssemblyHash___STATIC__U4__mscorlibSystemReflectionAssemblyER17CLR_RT_StackFrame
08044c34 T _ZN45Library_spot_native_Microsoft_SPOT_Reflection64GetAssemblies___STATIC__SZARRAY_mscorlibSystemReflectionAssemblyER17CLR_RT_StackFrame
08045374 T _ZN45Library_spot_native_Microsoft_SPOT_Reflection66GetAssemblyFromHash___STATIC__mscorlibSystemReflectionAssembly__U4ER17CLR_RT_StackFrame
08044c80 T _ZN45Library_spot_native_Microsoft_SPOT_Reflection82GetAssemblyInfo___STATIC__BOOLEAN__SZARRAY_U1__MicrosoftSPOTReflectionAssemblyInfoER17CLR_RT_StackFrame
08044920 T _ZN45Library_spot_native_Microsoft_SPOT_Reflection86GetTypesImplementingInterface___STATIC__SZARRAY_mscorlibSystemType__mscorlibSystemTypeER17CLR_RT_StackFrame
08038650 T _ZN46Library_corlib_native_System_Collections_Queue12Clear___VOIDER17CLR_RT_StackFrame
08038728 T _ZN46Library_corlib_native_System_Collections_Queue13Peek___OBJECTER17CLR_RT_StackFrame
080386d0 T _ZN46Library_corlib_native_System_Collections_Queue16Dequeue___OBJECTER17CLR_RT_StackFrame
08038688 T _ZN46Library_corlib_native_System_Collections_Queue22Enqueue___VOID__OBJECTER17CLR_RT_StackFrame
080385e0 T _ZN46Library_corlib_native_System_Collections_Queue30CopyTo___VOID__SystemArray__I4ER17CLR_RT_StackFrame
08038780 T _ZN46Library_corlib_native_System_Collections_Stack12Clear___VOIDER17CLR_RT_StackFrame
08038810 T _ZN46Library_corlib_native_System_Collections_Stack12Pop___OBJECTER17CLR_RT_StackFrame
080387b8 T _ZN46Library_corlib_native_System_Collections_Stack13Peek___OBJECTER17CLR_RT_StackFrame
08038868 T _ZN46Library_corlib_native_System_Collections_Stack19Push___VOID__OBJECTER17CLR_RT_StackFrame
0803a40c T _ZN46Library_corlib_native_System_MulticastDelegate79op_Equality___STATIC__BOOLEAN__SystemMulticastDelegate__SystemMulticastDelegateER17CLR_RT_StackFrame
0803a42c T _ZN46Library_corlib_native_System_MulticastDelegate81op_Inequality___STATIC__BOOLEAN__SystemMulticastDelegate__SystemMulticastDelegateER17CLR_RT_StackFrame
0803ebd8 T _ZN46Library_corlib_native_System_Text_UTF8Encoding16Helper__GetCharsER17CLR_RT_StackFrameb
0803ea60 T _ZN46Library_corlib_native_System_Text_UTF8Encoding29GetBytes___SZARRAY_U1__STRINGER17CLR_RT_StackFrame
0803ed30 T _ZN46Library_corlib_native_System_Text_UTF8Encoding35GetChars___SZARRAY_CHAR__SZARRAY_U1ER17CLR_RT_StackFrame
0803ed64 T _ZN46Library_corlib_native_System_Text_UTF8Encoding43GetChars___SZARRAY_CHAR__SZARRAY_U1__I4__I4ER17CLR_RT_StackFrame
0803eae8 T _ZN46Library_corlib_native_System_Text_UTF8Encoding45GetBytes___I4__STRING__I4__I4__SZARRAY_U1__I4ER17CLR_RT_StackFrame
0803f1ec T _ZN46Library_corlib_native_System_Threading_Monitor27Exit___STATIC__VOID__OBJECTER17CLR_RT_StackFrame
0803f12c T _ZN46Library_corlib_native_System_Threading_Monitor28Enter___STATIC__VOID__OBJECTER17CLR_RT_StackFrame
080454f0 T _ZN47Library_spot_native_Microsoft_SPOT_WeakDelegate87Remove___STATIC__mscorlibSystemDelegate__mscorlibSystemDelegate__mscorlibSystemDelegateER17CLR_RT_StackFrame
080454b0 T _ZN47Library_spot_native_Microsoft_SPOT_WeakDelegate88Combine___STATIC__mscorlibSystemDelegate__mscorlibSystemDelegate__mscorlibSystemDelegateER17CLR_RT_StackFrame
0803b688 T _ZN48Library_corlib_native_System_Reflection_Assembly17GetTypeDescriptorER16CLR_RT_HeapBlockR24CLR_RT_Assembly_Instance
0803ae40 T _ZN48Library_corlib_native_System_Reflection_Assembly21get_FullName___STRINGER17CLR_RT_StackFrame
0803af2c T _ZN48Library_corlib_native_System_Reflection_Assembly28GetType___SystemType__STRINGER17CLR_RT_StackFrame
0803b000 T _ZN48Library_corlib_native_System_Reflection_Assembly29GetTypes___SZARRAY_SystemTypeER17CLR_RT_StackFrame
0803b1e8 T _ZN48Library_corlib_native_System_Reflection_Assembly41GetManifestResourceNames___SZARRAY_STRINGER17CLR_RT_StackFrame
0803b528 T _ZN48Library_corlib_native_System_Reflection_Assembly51Load___STATIC__SystemReflectionAssembly__SZARRAY_U1ER17CLR_RT_StackFrame
0803b2d4 T _ZN48Library_corlib_native_System_Reflection_Assembly55GetExecutingAssembly___STATIC__SystemReflectionAssemblyER17CLR_RT_StackFrame
0803b104 T _ZN48Library_corlib_native_System_Reflection_Assembly57GetVersion___VOID__BYREF_I4__BYREF_I4__BYREF_I4__BYREF_I4ER17CLR_RT_StackFrame
0803b364 T _ZN48Library_corlib_native_System_Reflection_Assembly80LoadInternal___STATIC__SystemReflectionAssembly__STRING__BOOLEAN__I4__I4__I4__I4ER17CLR_RT_StackFrame
08043a48 T _ZN48Library_spot_native_Microsoft_SPOT_ExtendedTimer106_ctor___VOID__mscorlibSystemThreadingTimerCallback__OBJECT__mscorlibSystemDateTime__mscorlibSystemTimeSpanER17CLR_RT_StackFrame
08043a24 T _ZN48Library_spot_native_Microsoft_SPOT_ExtendedTimer106_ctor___VOID__mscorlibSystemThreadingTimerCallback__OBJECT__mscorlibSystemTimeSpan__mscorlibSystemTimeSpanER17CLR_RT_StackFrame
080439dc T _ZN48Library_spot_native_Microsoft_SPOT_ExtendedTimer14Dispose___VOIDER17CLR_RT_StackFrame
08043ac4 T _ZN48Library_spot_native_Microsoft_SPOT_ExtendedTimer21Change___VOID__I4__I4ER17CLR_RT_StackFrame
08043b30 T _ZN48Library_spot_native_Microsoft_SPOT_ExtendedTimer43get_LastExpiration___mscorlibSystemTimeSpanER17CLR_RT_StackFrame
08043b0c T _ZN48Library_spot_native_Microsoft_SPOT_ExtendedTimer61Change___VOID__mscorlibSystemDateTime__mscorlibSystemTimeSpanER17CLR_RT_StackFrame
08043ae8 T _ZN48Library_spot_native_Microsoft_SPOT_ExtendedTimer61Change___VOID__mscorlibSystemTimeSpan__mscorlibSystemTimeSpanER17CLR_RT_StackFrame
08043a00 T _ZN48Library_spot_native_Microsoft_SPOT_ExtendedTimer66_ctor___VOID__mscorlibSystemThreadingTimerCallback__OBJECT__I4__I4ER17CLR_RT_StackFrame
08043a6c T _ZN48Library_spot_native_Microsoft_SPOT_ExtendedTimer96_ctor___VOID__mscorlibSystemThreadingTimerCallback__OBJECT__MicrosoftSPOTExtendedTimerTimeEventsER17CLR_RT_StackFrame
08043b94 T _ZN48Library_spot_native_Microsoft_SPOT_ExtendedTimer9SetValuesER17CLR_RT_StackFramej
08039288 T _ZN49Library_corlib_native_System_Diagnostics_Debugger20Break___STATIC__VOIDER17CLR_RT_StackFrame
0803924c T _ZN49Library_corlib_native_System_Diagnostics_Debugger32get_IsAttached___STATIC__BOOLEANER17CLR_RT_StackFrame
0803bab0 T _ZN49Library_corlib_native_System_Reflection_FieldInfo10InitializeER17CLR_RT_StackFrameR24CLR_RT_FieldDef_InstanceR23CLR_RT_TypeDef_InstanceRP16CLR_RT_HeapBlock
0803b77c T _ZN49Library_corlib_native_System_Reflection_FieldInfo31SetValue___VOID__OBJECT__OBJECTER17CLR_RT_StackFrame
0803fe28 T _ZN49Library_corlib_native_System_Threading_WaitHandle30WaitOne___BOOLEAN__I4__BOOLEANER17CLR_RT_StackFrame
0803ff4c T _ZN49Library_corlib_native_System_Threading_WaitHandle3SetER17CLR_RT_StackFrame
0803ffa8 T _ZN49Library_corlib_native_System_Threading_WaitHandle4WaitER17CLR_RT_StackFrameR16CLR_RT_HeapBlockS3_PS2_ib
0803ff78 T _ZN49Library_corlib_native_System_Threading_WaitHandle5ResetER17CLR_RT_StackFrame
0803fe9c T _ZN49Library_corlib_native_System_Threading_WaitHandle82WaitMultiple___STATIC__I4__SZARRAY_SystemThreadingWaitHandle__I4__BOOLEAN__BOOLEANER17CLR_RT_StackFrame
0804d408 T _ZN50Library_RealTimeTimer_Samraksh_SPOT_RealTime_Timer22Dispose___STATIC__VOIDER17CLR_RT_StackFrame
0804d444 T _ZN50Library_RealTimeTimer_Samraksh_SPOT_RealTime_Timer32Change___STATIC__BOOLEAN__U4__U4ER17CLR_RT_StackFrame
0804d4d8 T _ZN50Library_RealTimeTimer_Samraksh_SPOT_RealTime_Timer32GenerateInterrupt___STATIC__VOIDER17CLR_RT_StackFrame
080384b4 T _ZN50Library_corlib_native_System_Collections_ArrayList12Clear___VOIDER17CLR_RT_StackFrame
08038448 T _ZN50Library_corlib_native_System_Collections_ArrayList16Add___I4__OBJECTER17CLR_RT_StackFrame
08038548 T _ZN50Library_corlib_native_System_Collections_ArrayList19RemoveAt___VOID__I4ER17CLR_RT_StackFrame
08038380 T _ZN50Library_corlib_native_System_Collections_ArrayList21get_Item___OBJECT__I4ER17CLR_RT_StackFrame
08038594 T _ZN50Library_corlib_native_System_Collections_ArrayList22SetCapacity___VOID__I4ER17CLR_RT_StackFrame
080384ec T _ZN50Library_corlib_native_System_Collections_ArrayList25Insert___VOID__I4__OBJECTER17CLR_RT_StackFrame
080383ec T _ZN50Library_corlib_native_System_Collections_ArrayList27set_Item___VOID__I4__OBJECTER17CLR_RT_StackFrame
0803bedc T _ZN50Library_corlib_native_System_Reflection_MethodBase10CheckFlagsER17CLR_RT_StackFramejj
0803bd94 T _ZN50Library_corlib_native_System_Reflection_MethodBase17get_Name___STRINGER17CLR_RT_StackFrame
0803beac T _ZN50Library_corlib_native_System_Reflection_MethodBase19GetMethodDescriptorER17CLR_RT_StackFrameR16CLR_RT_HeapBlockR25CLR_RT_MethodDef_Instance
0803bc08 T _ZN50Library_corlib_native_System_Reflection_MethodBase21get_IsFinal___BOOLEANER17CLR_RT_StackFrame
0803bbb8 T _ZN50Library_corlib_native_System_Reflection_MethodBase22get_IsPublic___BOOLEANER17CLR_RT_StackFrame
0803bbe0 T _ZN50Library_corlib_native_System_Reflection_MethodBase22get_IsStatic___BOOLEANER17CLR_RT_StackFrame
0803bc30 T _ZN50Library_corlib_native_System_Reflection_MethodBase23get_IsVirtual___BOOLEANER17CLR_RT_StackFrame
0803bc58 T _ZN50Library_corlib_native_System_Reflection_MethodBase24get_IsAbstract___BOOLEANER17CLR_RT_StackFrame
0803bdf8 T _ZN50Library_corlib_native_System_Reflection_MethodBase30get_DeclaringType___SystemTypeER17CLR_RT_StackFrame
0803bc80 T _ZN50Library_corlib_native_System_Reflection_MethodBase39Invoke___OBJECT__OBJECT__SZARRAY_OBJECTER17CLR_RT_StackFrame
0803eebc T _ZN50Library_corlib_native_System_Threading_Interlocked32Decrement___STATIC__I4__BYREF_I4ER17CLR_RT_StackFrame
0803ee30 T _ZN50Library_corlib_native_System_Threading_Interlocked32Increment___STATIC__I4__BYREF_I4ER17CLR_RT_StackFrame
0803ef48 T _ZN50Library_corlib_native_System_Threading_Interlocked35Exchange___STATIC__I4__BYREF_I4__I4ER17CLR_RT_StackFrame
0803efe0 T _ZN50Library_corlib_native_System_Threading_Interlocked46CompareExchange___STATIC__I4__BYREF_I4__I4__I4ER17CLR_RT_StackFrame
08045494 T _ZN50Library_spot_native_Microsoft_SPOT_ResourceUtility83set_CurrentUICultureInternal___STATIC__VOID__mscorlibSystemGlobalizationCultureInfoER17CLR_RT_StackFrame
0804545c T _ZN50Library_spot_native_Microsoft_SPOT_ResourceUtility86GetObject___STATIC__OBJECT__mscorlibSystemResourcesResourceManager__mscorlibSystemEnumER17CLR_RT_StackFrame
08045478 T _ZN50Library_spot_native_Microsoft_SPOT_ResourceUtility94GetObject___STATIC__OBJECT__mscorlibSystemResourcesResourceManager__mscorlibSystemEnum__I4__I4ER17CLR_RT_StackFrame
0804452c T _ZN51Library_spot_native_Microsoft_SPOT_Hardware_Utility13CombineArraysER17CLR_RT_StackFrameR16CLR_RT_HeapBlockiiS3_ii
080443ac T _ZN51Library_spot_native_Microsoft_SPOT_Hardware_Utility28Piezo___STATIC__VOID__U4__U4ER17CLR_RT_StackFrame
08044430 T _ZN51Library_spot_native_Microsoft_SPOT_Hardware_Utility29InsertOrExtractValueFromArrayER17CLR_RT_StackFrameb
080443f4 T _ZN51Library_spot_native_Microsoft_SPOT_Hardware_Utility33Backlight___STATIC__VOID__BOOLEANER17CLR_RT_StackFrame
08043f98 T _ZN51Library_spot_native_Microsoft_SPOT_Hardware_Utility47ComputeCRC___STATIC__U4__SZARRAY_U1__I4__I4__U4ER17CLR_RT_StackFrame
08044378 T _ZN51Library_spot_native_Microsoft_SPOT_Hardware_Utility47GetMachineTime___STATIC__mscorlibSystemTimeSpanER17CLR_RT_StackFrame
08044254 T _ZN51Library_spot_native_Microsoft_SPOT_Hardware_Utility51SetLocalTime___STATIC__VOID__mscorlibSystemDateTimeER17CLR_RT_StackFrame
0804407c T _ZN51Library_spot_native_Microsoft_SPOT_Hardware_Utility54ExtractValueFromArray___STATIC__U4__SZARRAY_U1__I4__I4ER17CLR_RT_StackFrame
0804418c T _ZN51Library_spot_native_Microsoft_SPOT_Hardware_Utility58CombineArrays___STATIC__SZARRAY_U1__SZARRAY_U1__SZARRAY_U1ER17CLR_RT_StackFrame
080440a0 T _ZN51Library_spot_native_Microsoft_SPOT_Hardware_Utility59InsertValueIntoArray___STATIC__VOID__SZARRAY_U1__I4__I4__U4ER17CLR_RT_StackFrame
080440c4 T _ZN51Library_spot_native_Microsoft_SPOT_Hardware_Utility62ExtractRangeFromArray___STATIC__SZARRAY_U1__SZARRAY_U1__I4__I4ER17CLR_RT_StackFrame
080441d4 T _ZN51Library_spot_native_Microsoft_SPOT_Hardware_Utility74CombineArrays___STATIC__SZARRAY_U1__SZARRAY_U1__I4__I4__SZARRAY_U1__I4__I4ER17CLR_RT_StackFrame
0804e0ac T _ZN52Library_Samraksh_SPOT_Net_Samraksh_SPOT_Net_Mac_CSMA104InternalInitialize___STATIC__SamrakshSPOTNetDeviceStatus__SamrakshSPOTNetMacMacConfiguration__SZARRAY_U1ER17CLR_RT_StackFrame
0804de0c T _ZN52Library_Samraksh_SPOT_Net_Samraksh_SPOT_Net_Mac_CSMA10GetID___U1ER17CLR_RT_StackFrame
0804dda8 T _ZN52Library_Samraksh_SPOT_Net_Samraksh_SPOT_Net_Mac_CSMA15GetAddress___U2ER17CLR_RT_StackFrame
0804df54 T _ZN52Library_Samraksh_SPOT_Net_Samraksh_SPOT_Net_Mac_CSMA18GetBufferSize___U1ER17CLR_RT_StackFrame
0804dfb8 T _ZN52Library_Samraksh_SPOT_Net_Samraksh_SPOT_Net_Mac_CSMA26GetPendingPacketCount___U1ER17CLR_RT_StackFrame
0804dc4c T _ZN52Library_Samraksh_SPOT_Net_Samraksh_SPOT_Net_Mac_CSMA42UnInitialize___SamrakshSPOTNetDeviceStatusER17CLR_RT_StackFrame
0804ded0 T _ZN52Library_Samraksh_SPOT_Net_Samraksh_SPOT_Net_Mac_CSMA45GetNeighbors___SamrakshSPOTNetMacNeighbor__U2ER17CLR_RT_StackFrame
0804de70 T _ZN52Library_Samraksh_SPOT_Net_Samraksh_SPOT_Net_Mac_CSMA50GetNeighborTable___SamrakshSPOTNetMacNeighborTableER17CLR_RT_StackFrame
0804e01c T _ZN52Library_Samraksh_SPOT_Net_Samraksh_SPOT_Net_Mac_CSMA54RemovePacket___SamrakshSPOTNetDeviceStatus__SZARRAY_U1ER17CLR_RT_StackFrame
0804dcac T _ZN52Library_Samraksh_SPOT_Net_Samraksh_SPOT_Net_Mac_CSMA57Send___SamrakshSPOTNetNetOpStatus__U2__SZARRAY_U1__U2__U2ER17CLR_RT_StackFrame
0804dbc8 T _ZN52Library_Samraksh_SPOT_Net_Samraksh_SPOT_Net_Mac_CSMA75Configure___SamrakshSPOTNetDeviceStatus__SamrakshSPOTNetMacMacConfigurationER17CLR_RT_StackFrame
0803bf58 T _ZN52Library_corlib_native_System_Reflection_PropertyInfo41GetValue___OBJECT__OBJECT__SZARRAY_OBJECTER17CLR_RT_StackFrame
0803bf78 T _ZN52Library_corlib_native_System_Reflection_PropertyInfo47SetValue___VOID__OBJECT__OBJECT__SZARRAY_OBJECTER17CLR_RT_StackFrame
0803ee10 T _ZN53Library_corlib_native_System_Threading_AutoResetEvent13Set___BOOLEANER17CLR_RT_StackFrame
0803edf0 T _ZN53Library_corlib_native_System_Threading_AutoResetEvent15Reset___BOOLEANER17CLR_RT_StackFrame
0803ed98 T _ZN53Library_corlib_native_System_Threading_AutoResetEvent21_ctor___VOID__BOOLEANER17CLR_RT_StackFrame
080460d8 T _ZN53Library_spot_hardware_native_Microsoft_SPOT_EventSink18EventConfig___VOIDER17CLR_RT_StackFrame
08049440 T _ZN53Library_spot_native_Microsoft_SPOT_Messaging_EndPoint36_ctor___VOID__mscorlibSystemType__U4ER17CLR_RT_StackFrame
08049480 T _ZN53Library_spot_native_Microsoft_SPOT_Messaging_EndPoint43Check___BOOLEAN__mscorlibSystemType__U4__I4ER17CLR_RT_StackFrame
08049460 T _ZN53Library_spot_native_Microsoft_SPOT_Messaging_EndPoint46GetMessage___MicrosoftSPOTMessagingMessage__I4ER17CLR_RT_StackFrame
080494c0 T _ZN53Library_spot_native_Microsoft_SPOT_Messaging_EndPoint58ReplyRaw___VOID__MicrosoftSPOTMessagingMessage__SZARRAY_U1ER17CLR_RT_StackFrame
080494a0 T _ZN53Library_spot_native_Microsoft_SPOT_Messaging_EndPoint67SendMessageRaw___SZARRAY_U1__mscorlibSystemType__U4__I4__SZARRAY_U1ER17CLR_RT_StackFrame
08039adc T _ZN54Library_corlib_native_System_Globalization_CultureInfo69get_CurrentUICultureInternal___STATIC__SystemGlobalizationCultureInfoER17CLR_RT_StackFrame
08039b14 T _ZN54Library_corlib_native_System_Globalization_CultureInfo75set_CurrentUICultureInternal___STATIC__VOID__SystemGlobalizationCultureInfoER17CLR_RT_StackFrame
0803c420 T _ZN54Library_corlib_native_System_Resources_ResourceManager30GetObjectInternal___OBJECT__I2ER17CLR_RT_StackFrame
0803c614 T _ZN54Library_corlib_native_System_Resources_ResourceManager38GetObjectInternal___OBJECT__I2__I4__I4ER17CLR_RT_StackFrame
0803c384 T _ZN54Library_corlib_native_System_Resources_ResourceManager59FindResource___STATIC__I4__STRING__SystemReflectionAssemblyER17CLR_RT_StackFrame
0803c7ac T _ZN54Library_corlib_native_System_Resources_ResourceManager70GetObject___STATIC__OBJECT__SystemResourcesResourceManager__SystemEnumER17CLR_RT_StackFrame
0803c884 T _ZN54Library_corlib_native_System_Resources_ResourceManager78GetObject___STATIC__OBJECT__SystemResourcesResourceManager__SystemEnum__I4__I4ER17CLR_RT_StackFrame
08043884 T _ZN54Library_spot_native_Microsoft_SPOT_ExecutionConstraint30Install___STATIC__VOID__I4__I4ER17CLR_RT_StackFrame
08044730 T _ZN54Library_spot_native_Microsoft_SPOT_Hardware_SystemInfo30get_OEMString___STATIC__STRINGER17CLR_RT_StackFrame
08044764 T _ZN54Library_spot_native_Microsoft_SPOT_Hardware_SystemInfo33get_IsBigEndian___STATIC__BOOLEANER17CLR_RT_StackFrame
08044634 T _ZN54Library_spot_native_Microsoft_SPOT_Hardware_SystemInfo71GetSystemVersion___STATIC__VOID__BYREF_I4__BYREF_I4__BYREF_I4__BYREF_I4ER17CLR_RT_StackFrame
0803b6b4 T _ZN55Library_corlib_native_System_Reflection_ConstructorInfo31Invoke___OBJECT__SZARRAY_OBJECTER17CLR_RT_StackFrame
0803f10c T _ZN55Library_corlib_native_System_Threading_ManualResetEvent13Set___BOOLEANER17CLR_RT_StackFrame
0803f0ec T _ZN55Library_corlib_native_System_Threading_ManualResetEvent15Reset___BOOLEANER17CLR_RT_StackFrame
0803f09c T _ZN55Library_corlib_native_System_Threading_ManualResetEvent21_ctor___VOID__BOOLEANER17CLR_RT_StackFrame
0803bf98 T _ZN56Library_corlib_native_System_Reflection_RuntimeFieldInfo17get_Name___STRINGER17CLR_RT_StackFrame
0803c2a0 T _ZN56Library_corlib_native_System_Reflection_RuntimeFieldInfo18GetFieldDescriptorER17CLR_RT_StackFrameR16CLR_RT_HeapBlockR24CLR_RT_FieldDef_Instance
0803c170 T _ZN56Library_corlib_native_System_Reflection_RuntimeFieldInfo25GetValue___OBJECT__OBJECTER17CLR_RT_StackFrame
0803c0b8 T _ZN56Library_corlib_native_System_Reflection_RuntimeFieldInfo26get_FieldType___SystemTypeER17CLR_RT_StackFrame
0803c000 T _ZN56Library_corlib_native_System_Reflection_RuntimeFieldInfo30get_DeclaringType___SystemTypeER17CLR_RT_StackFrame
08045ef8 T _ZN56Library_spot_hardware_native_Microsoft_SPOT_Hardware_Cpu26get_SlowClock___STATIC__U4ER17CLR_RT_StackFrame
08045ecc T _ZN56Library_spot_hardware_native_Microsoft_SPOT_Hardware_Cpu28get_SystemClock___STATIC__U4ER17CLR_RT_StackFrame
08045f24 T _ZN56Library_spot_hardware_native_Microsoft_SPOT_Hardware_Cpu53get_GlitchFilterTime___STATIC__mscorlibSystemTimeSpanER17CLR_RT_StackFrame
08045f8c T _ZN56Library_spot_hardware_native_Microsoft_SPOT_Hardware_Cpu59set_GlitchFilterTime___STATIC__VOID__mscorlibSystemTimeSpanER17CLR_RT_StackFrame
0804858c T _ZN56Library_spot_hardware_native_Microsoft_SPOT_Hardware_SPI68InternalWriteRead___VOID__SZARRAY_U1__I4__I4__SZARRAY_U1__I4__I4__I4ER17CLR_RT_StackFrame
08048438 T _ZN56Library_spot_hardware_native_Microsoft_SPOT_Hardware_SPI68InternalWriteRead___VOID__SZARRAY_U2__I4__I4__SZARRAY_U2__I4__I4__I4ER17CLR_RT_StackFrame
08043d10 T _ZN56Library_spot_native_Microsoft_SPOT_ExtendedWeakReference11get_Id___U4ER17CLR_RT_StackFrame
08043d54 T _ZN56Library_spot_native_Microsoft_SPOT_ExtendedWeakReference14get_Flags___U4ER17CLR_RT_StackFrame
08043d98 T _ZN56Library_spot_native_Microsoft_SPOT_ExtendedWeakReference17get_Priority___I4ER17CLR_RT_StackFrame
08043f44 T _ZN56Library_spot_native_Microsoft_SPOT_ExtendedWeakReference23FlushAll___STATIC__VOIDER17CLR_RT_StackFrame
08043dd8 T _ZN56Library_spot_native_Microsoft_SPOT_ExtendedWeakReference23set_Priority___VOID__I4ER17CLR_RT_StackFrame
08043e28 T _ZN56Library_spot_native_Microsoft_SPOT_ExtendedWeakReference30PushBackIntoRecoverList___VOIDER17CLR_RT_StackFrame
08043c80 T _ZN56Library_spot_native_Microsoft_SPOT_ExtendedWeakReference33get_Selector___mscorlibSystemTypeER17CLR_RT_StackFrame
08043bb8 T _ZN56Library_spot_native_Microsoft_SPOT_ExtendedWeakReference48_ctor___VOID__OBJECT__mscorlibSystemType__U4__U4ER17CLR_RT_StackFrame
08043e68 T _ZN56Library_spot_native_Microsoft_SPOT_ExtendedWeakReference76Recover___STATIC__MicrosoftSPOTExtendedWeakReference__mscorlibSystemType__U4ER17CLR_RT_StackFrame
08039b4c T _ZN57Library_corlib_native_System_Globalization_DateTimeFormat37FormatDigits___STATIC__STRING__I4__I4ER17CLR_RT_StackFrame
0803c2c0 T _ZN57Library_corlib_native_System_Reflection_RuntimeMethodInfo27get_ReturnType___SystemTypeER17CLR_RT_StackFrame
080478ec T _ZN57Library_spot_hardware_native_Microsoft_SPOT_Hardware_Port11ChangeStateEP16CLR_RT_HeapBlockP38CLR_RT_HeapBlock_NativeEventDispatcherb
08047d64 T _ZN57Library_spot_hardware_native_Microsoft_SPOT_Hardware_Port129_ctor___VOID__MicrosoftSPOTHardwareCpuPin__BOOLEAN__MicrosoftSPOTHardwarePortResistorMode__MicrosoftSPOTHardwarePortInterruptModeER17CLR_RT_StackFrame
080477d8 T _ZN57Library_spot_hardware_native_Microsoft_SPOT_Hardware_Port12IsrProcedureEjjPv
08047f70 T _ZN57Library_spot_hardware_native_Microsoft_SPOT_Hardware_Port14Read___BOOLEANER17CLR_RT_StackFrame
08047a54 T _ZN57Library_spot_hardware_native_Microsoft_SPOT_Hardware_Port23Dispose___VOID__BOOLEANER17CLR_RT_StackFrame
08047ff8 T _ZN57Library_spot_hardware_native_Microsoft_SPOT_Hardware_Port36get_Id___MicrosoftSPOTHardwareCpuPinER17CLR_RT_StackFrame
08047e1c T _ZN57Library_spot_hardware_native_Microsoft_SPOT_Hardware_Port50_ctor___VOID__MicrosoftSPOTHardwareCpuPin__BOOLEANER17CLR_RT_StackFrame
08048048 T _ZN57Library_spot_hardware_native_Microsoft_SPOT_Hardware_Port66ReservePin___STATIC__BOOLEAN__MicrosoftSPOTHardwareCpuPin__BOOLEANER17CLR_RT_StackFrame
08047eb0 T _ZN57Library_spot_hardware_native_Microsoft_SPOT_Hardware_Port98_ctor___VOID__MicrosoftSPOTHardwareCpuPin__BOOLEAN__BOOLEAN__MicrosoftSPOTHardwarePortResistorModeER17CLR_RT_StackFrame
08050d20 W _ZN5RadioI7MessageI19IEEE802_15_4_HeaderLt113E19IEEE802_15_4_Footer21IEEE802_15_4_MetadataEE10GetRadioIDEv
08050c58 W _ZN5RadioI7MessageI19IEEE802_15_4_HeaderLt113E19IEEE802_15_4_Footer21IEEE802_15_4_MetadataEE10InitializeEP17RadioEventHandlerh
2000766c V _ZN5RadioI7MessageI19IEEE802_15_4_HeaderLt113E19IEEE802_15_4_Footer21IEEE802_15_4_MetadataEE10MacIDIndexE
0804fee0 W _ZN5RadioI7MessageI19IEEE802_15_4_HeaderLt113E19IEEE802_15_4_Footer21IEEE802_15_4_MetadataEE10SetAddressEt
08050ce8 W _ZN5RadioI7MessageI19IEEE802_15_4_HeaderLt113E19IEEE802_15_4_Footer21IEEE802_15_4_MetadataEE10SetRadioIDEh
20007670 V _ZN5RadioI7MessageI19IEEE802_15_4_HeaderLt113E19IEEE802_15_4_Footer21IEEE802_15_4_MetadataEE11MacHandlersE
08050d54 W _ZN5RadioI7MessageI19IEEE802_15_4_HeaderLt113E19IEEE802_15_4_Footer21IEEE802_15_4_MetadataEE13GetMacHandlerEh
08050c38 W _ZN5RadioI7MessageI19IEEE802_15_4_HeaderLt113E19IEEE802_15_4_Footer21IEEE802_15_4_MetadataEE13GetMacIdIndexEv
08050d04 W _ZN5RadioI7MessageI19IEEE802_15_4_HeaderLt113E19IEEE802_15_4_Footer21IEEE802_15_4_MetadataEE14SetInitializedEj
08050d7c W _ZN5RadioI7MessageI19IEEE802_15_4_HeaderLt113E19IEEE802_15_4_Footer21IEEE802_15_4_MetadataEE18SetDefaultHandlersEv
20007668 V _ZN5RadioI7MessageI19IEEE802_15_4_HeaderLt113E19IEEE802_15_4_Footer21IEEE802_15_4_MetadataEE6MacIDsE
08014f14 W _ZN5STM324AITCEv
08045b10 T _ZN60Library_spot_hardware_native_Microsoft_SPOT_Hardware_Battery24ReadVoltage___STATIC__I4ER17CLR_RT_StackFrame
08045c40 T _ZN60Library_spot_hardware_native_Microsoft_SPOT_Hardware_Battery26StateOfCharge___STATIC__I4ER17CLR_RT_StackFrame
08045ba0 T _ZN60Library_spot_hardware_native_Microsoft_SPOT_Hardware_Battery27OnCharger___STATIC__BOOLEANER17CLR_RT_StackFrame
08045b58 T _ZN60Library_spot_hardware_native_Microsoft_SPOT_Hardware_Battery28ReadTemperature___STATIC__I4ER17CLR_RT_StackFrame
08045bec T _ZN60Library_spot_hardware_native_Microsoft_SPOT_Hardware_Battery32IsFullyCharged___STATIC__BOOLEANER17CLR_RT_StackFrame
08045c88 T _ZN60Library_spot_hardware_native_Microsoft_SPOT_Hardware_Battery34WaitForEvent___STATIC__BOOLEAN__I4ER17CLR_RT_StackFrame
080496cc T _ZN60Library_spot_hardware_pwm_native_Microsoft_SPOT_Hardware_PWM11Init___VOIDER17CLR_RT_StackFrame
08049540 T _ZN60Library_spot_hardware_pwm_native_Microsoft_SPOT_Hardware_PWM11Stop___VOIDER17CLR_RT_StackFrame
080494e0 T _ZN60Library_spot_hardware_pwm_native_Microsoft_SPOT_Hardware_PWM12Start___VOIDER17CLR_RT_StackFrame
080495a0 T _ZN60Library_spot_hardware_pwm_native_Microsoft_SPOT_Hardware_PWM13Commit___VOIDER17CLR_RT_StackFrame
08049718 T _ZN60Library_spot_hardware_pwm_native_Microsoft_SPOT_Hardware_PWM13Uninit___VOIDER17CLR_RT_StackFrame
08049854 T _ZN60Library_spot_hardware_pwm_native_Microsoft_SPOT_Hardware_PWM18GetChannelsAndPinsEP22CLR_RT_HeapBlock_ArrayP11PWM_CHANNELPjRj
080497dc T _ZN60Library_spot_hardware_pwm_native_Microsoft_SPOT_Hardware_PWM53Stop___STATIC__VOID__SZARRAY_MicrosoftSPOTHardwarePWMER17CLR_RT_StackFrame
08049764 T _ZN60Library_spot_hardware_pwm_native_Microsoft_SPOT_Hardware_PWM54Start___STATIC__VOID__SZARRAY_MicrosoftSPOTHardwarePWMER17CLR_RT_StackFrame
08048fb4 T _ZN61Library_spot_hardware_native_Microsoft_SPOT_Hardware_Watchdog143GetLastOcurrenceDetails___STATIC__BOOLEAN__BYREF_mscorlibSystemDateTime__BYREF_mscorlibSystemTimeSpan__BYREF_mscorlibSystemReflectionMethodInfoER17CLR_RT_StackFrame
08048d94 T _ZN61Library_spot_hardware_native_Microsoft_SPOT_Hardware_Watchdog29get_Enabled___STATIC__BOOLEANER17CLR_RT_StackFrame
08048dd0 T _ZN61Library_spot_hardware_native_Microsoft_SPOT_Hardware_Watchdog35set_Enabled___STATIC__VOID__BOOLEANER17CLR_RT_StackFrame
08048e38 T _ZN61Library_spot_hardware_native_Microsoft_SPOT_Hardware_Watchdog44get_Timeout___STATIC__mscorlibSystemTimeSpanER17CLR_RT_StackFrame
08048ea8 T _ZN61Library_spot_hardware_native_Microsoft_SPOT_Hardware_Watchdog50set_Timeout___STATIC__VOID__mscorlibSystemTimeSpanER17CLR_RT_StackFrame
08048f74 T _ZN61Library_spot_hardware_native_Microsoft_SPOT_Hardware_Watchdog54get_Log___STATIC__MicrosoftSPOTNativeMicrosoftSPOTILogER17CLR_RT_StackFrame
08048f00 T _ZN61Library_spot_hardware_native_Microsoft_SPOT_Hardware_Watchdog60get_Behavior___STATIC__MicrosoftSPOTHardwareWatchdogBehaviorER17CLR_RT_StackFrame
08048f94 T _ZN61Library_spot_hardware_native_Microsoft_SPOT_Hardware_Watchdog60set_Log___STATIC__VOID__MicrosoftSPOTNativeMicrosoftSPOTILogER17CLR_RT_StackFrame
08048f30 T _ZN61Library_spot_hardware_native_Microsoft_SPOT_Hardware_Watchdog66set_Behavior___STATIC__VOID__MicrosoftSPOTHardwareWatchdogBehaviorER17CLR_RT_StackFrame
0803d0c0 T _ZN62Library_corlib_native_System_Runtime_Remoting_RemotingServices44IsTransparentProxy___STATIC__BOOLEAN__OBJECTER17CLR_RT_StackFrame
08046be0 T _ZN62Library_spot_hardware_native_Microsoft_SPOT_Hardware_I2CDevice17Initialize___VOIDER17CLR_RT_StackFrame
08046c34 T _ZN62Library_spot_hardware_native_Microsoft_SPOT_Hardware_I2CDevice70Execute___I4__SZARRAY_MicrosoftSPOTHardwareI2CDeviceI2CTransaction__I4ER17CLR_RT_StackFrame
080471b0 T _ZN62Library_spot_hardware_native_Microsoft_SPOT_Hardware_InputPort26get_GlitchFilter___BOOLEANER17CLR_RT_StackFrame
080471fc T _ZN62Library_spot_hardware_native_Microsoft_SPOT_Hardware_InputPort32set_GlitchFilter___VOID__BOOLEANER17CLR_RT_StackFrame
080470cc T _ZN62Library_spot_hardware_native_Microsoft_SPOT_Hardware_InputPort52get_Resistor___MicrosoftSPOTHardwarePortResistorModeER17CLR_RT_StackFrame
08047118 T _ZN62Library_spot_hardware_native_Microsoft_SPOT_Hardware_InputPort58set_Resistor___VOID__MicrosoftSPOTHardwarePortResistorModeER17CLR_RT_StackFrame
0804a018 T _ZN62Library_spot_hardware_serial_native_System_IO_Ports_SerialPort12Flush___VOIDER17CLR_RT_StackFrame
0804991c T _ZN62Library_spot_hardware_serial_native_System_IO_Ports_SerialPort19InternalOpen___VOIDER17CLR_RT_StackFrame
08049a44 T _ZN62Library_spot_hardware_serial_native_System_IO_Ports_SerialPort20InternalClose___VOIDER17CLR_RT_StackFrame
08049fa4 T _ZN62Library_spot_hardware_serial_native_System_IO_Ports_SerialPort22InternalDispose___VOIDER17CLR_RT_StackFrame
0804a0ac T _ZN62Library_spot_hardware_serial_native_System_IO_Ports_SerialPort27BytesInBuffer___I4__BOOLEANER17CLR_RT_StackFrame
0804a178 T _ZN62Library_spot_hardware_serial_native_System_IO_Ports_SerialPort29DiscardBuffer___VOID__BOOLEANER17CLR_RT_StackFrame
08049b08 T _ZN62Library_spot_hardware_serial_native_System_IO_Ports_SerialPort29Read___I4__SZARRAY_U1__I4__I4ER17CLR_RT_StackFrame
08049d58 T _ZN62Library_spot_hardware_serial_native_System_IO_Ports_SerialPort32Write___VOID__SZARRAY_U1__I4__I4ER17CLR_RT_StackFrame
080476cc T _ZN63Library_spot_hardware_native_Microsoft_SPOT_Hardware_OutputPort21Write___VOID__BOOLEANER17CLR_RT_StackFrame
08047788 T _ZN63Library_spot_hardware_native_Microsoft_SPOT_Hardware_OutputPort26get_InitialState___BOOLEANER17CLR_RT_StackFrame
080480c0 T _ZN63Library_spot_hardware_native_Microsoft_SPOT_Hardware_PowerState30Reboot___STATIC__VOID__BOOLEANER17CLR_RT_StackFrame
08048108 T _ZN63Library_spot_hardware_native_Microsoft_SPOT_Hardware_PowerState40WaitForIdleCPU___STATIC__BOOLEAN__I4__I4ER17CLR_RT_StackFrame
08048278 T _ZN63Library_spot_hardware_native_Microsoft_SPOT_Hardware_PowerState43get_Uptime___STATIC__mscorlibSystemTimeSpanER17CLR_RT_StackFrame
08048204 T _ZN63Library_spot_hardware_native_Microsoft_SPOT_Hardware_PowerState56get_MaximumTimeToActive___STATIC__mscorlibSystemTimeSpanER17CLR_RT_StackFrame
080482ac T _ZN63Library_spot_hardware_native_Microsoft_SPOT_Hardware_PowerState61get_WakeupEvents___STATIC__MicrosoftSPOTHardwareHardwareEventER17CLR_RT_StackFrame
0804823c T _ZN63Library_spot_hardware_native_Microsoft_SPOT_Hardware_PowerState62set_MaximumTimeToActive___STATIC__VOID__mscorlibSystemTimeSpanER17CLR_RT_StackFrame
080482dc T _ZN63Library_spot_hardware_native_Microsoft_SPOT_Hardware_PowerState67set_WakeupEvents___STATIC__VOID__MicrosoftSPOTHardwareHardwareEventER17CLR_RT_StackFrame
08048400 T _ZN63Library_spot_hardware_native_Microsoft_SPOT_Hardware_PowerState72InternalChangePowerLevel___STATIC__VOID__MicrosoftSPOTHardwarePowerLevelER17CLR_RT_StackFrame
08048328 T _ZN63Library_spot_hardware_native_Microsoft_SPOT_Hardware_PowerState97InternalSleep___STATIC__VOID__MicrosoftSPOTHardwareSleepLevel__MicrosoftSPOTHardwareHardwareEventER17CLR_RT_StackFrame
0804f36c T _ZN63Library_spot_native_Samraksh_SPOT_Hardware_EmoteDotNow_EmoteLCD159Write___BOOLEAN__SamrakshSPOTHardwareEmoteDotNowLCD__SamrakshSPOTHardwareEmoteDotNowLCD__SamrakshSPOTHardwareEmoteDotNowLCD__SamrakshSPOTHardwareEmoteDotNowLCDER17CLR_RT_StackFrame
0804f780 T _ZN63Library_spot_native_Samraksh_SPOT_Hardware_EmoteDotNow_EmoteLCD15Clear___BOOLEANER17CLR_RT_StackFrame
0804f29c T _ZN63Library_spot_native_Samraksh_SPOT_Hardware_EmoteDotNow_EmoteLCD20Initialize___BOOLEANER17CLR_RT_StackFrame
0804f304 T _ZN63Library_spot_native_Samraksh_SPOT_Hardware_EmoteDotNow_EmoteLCD22Uninitialize___BOOLEANER17CLR_RT_StackFrame
0804f600 T _ZN63Library_spot_native_Samraksh_SPOT_Hardware_EmoteDotNow_EmoteLCD39WriteRawBytes___BOOLEAN__I4__I4__I4__I4ER17CLR_RT_StackFrame
0804f460 T _ZN63Library_spot_native_Samraksh_SPOT_Hardware_EmoteDotNow_EmoteLCD51SetDP___BOOLEAN__BOOLEAN__BOOLEAN__BOOLEAN__BOOLEANER17CLR_RT_StackFrame
0804f6f4 T _ZN63Library_spot_native_Samraksh_SPOT_Hardware_EmoteDotNow_EmoteLCD53Blink___BOOLEAN__SamrakshSPOTHardwareEmoteDotNowBlinkER17CLR_RT_StackFrame
0804f558 T _ZN63Library_spot_native_Samraksh_SPOT_Hardware_EmoteDotNow_EmoteLCD56WriteN___BOOLEAN__I4__SamrakshSPOTHardwareEmoteDotNowLCDER17CLR_RT_StackFrame
0804eaac T _ZN64Library_Samraksh_SPOT_Net_Samraksh_SPOT_Net_Radio_Radio_802_15_4108InternalInitialize___STATIC__SamrakshSPOTNetDeviceStatus__SamrakshSPOTNetRadioRadioConfiguration__SZARRAY_U1ER17CLR_RT_StackFrame
0804e5d0 T _ZN64Library_Samraksh_SPOT_Net_Samraksh_SPOT_Net_Radio_Radio_802_15_410GetID___U1ER17CLR_RT_StackFrame
0804e9b8 T _ZN64Library_Samraksh_SPOT_Net_Samraksh_SPOT_Net_Radio_Radio_802_15_431ClearChannelAssesment___BOOLEANER17CLR_RT_StackFrame
0804ea20 T _ZN64Library_Samraksh_SPOT_Net_Samraksh_SPOT_Net_Radio_Radio_802_15_435ClearChannelAssesment___BOOLEAN__U2ER17CLR_RT_StackFrame
0804e634 T _ZN64Library_Samraksh_SPOT_Net_Samraksh_SPOT_Net_Radio_Radio_802_15_436TurnOn___SamrakshSPOTNetDeviceStatusER17CLR_RT_StackFrame
0804e7cc T _ZN64Library_Samraksh_SPOT_Net_Samraksh_SPOT_Net_Radio_Radio_802_15_439SendStrobe___SamrakshSPOTNetNetOpStatusER17CLR_RT_StackFrame
0804e694 T _ZN64Library_Samraksh_SPOT_Net_Samraksh_SPOT_Net_Radio_Radio_802_15_439Sleep___SamrakshSPOTNetDeviceStatus__U1ER17CLR_RT_StackFrame
0804e570 T _ZN64Library_Samraksh_SPOT_Net_Samraksh_SPOT_Net_Radio_Radio_802_15_442UnInitialize___SamrakshSPOTNetDeviceStatusER17CLR_RT_StackFrame
0804e82c T _ZN64Library_Samraksh_SPOT_Net_Samraksh_SPOT_Net_Radio_Radio_802_15_449Send___SamrakshSPOTNetNetOpStatus__SZARRAY_U1__U2ER17CLR_RT_StackFrame
0804e718 T _ZN64Library_Samraksh_SPOT_Net_Samraksh_SPOT_Net_Radio_Radio_802_15_452PreLoad___SamrakshSPOTNetNetOpStatus__SZARRAY_U1__U2ER17CLR_RT_StackFrame
0804e8e0 T _ZN64Library_Samraksh_SPOT_Net_Samraksh_SPOT_Net_Radio_Radio_802_15_464SendTimeStamped___SamrakshSPOTNetNetOpStatus__SZARRAY_U1__U2__U4ER17CLR_RT_StackFrame
0804e4ec T _ZN64Library_Samraksh_SPOT_Net_Samraksh_SPOT_Net_Radio_Radio_802_15_479Configure___SamrakshSPOTNetDeviceStatus__SamrakshSPOTNetRadioRadioConfigurationER17CLR_RT_StackFrame
08045930 T _ZN64Library_spot_hardware_native_Microsoft_SPOT_Hardware_AnalogInput12ReadRaw___I4ER17CLR_RT_StackFrame
080459e0 T _ZN64Library_spot_hardware_native_Microsoft_SPOT_Hardware_AnalogInput66Uninitialize___STATIC__VOID__MicrosoftSPOTHardwareCpuAnalogChannelER17CLR_RT_StackFrame
0804597c T _ZN64Library_spot_hardware_native_Microsoft_SPOT_Hardware_AnalogInput68Initialize___STATIC__VOID__MicrosoftSPOTHardwareCpuAnalogChannel__I4ER17CLR_RT_StackFrame
08049148 T _ZN64Library_spot_hardware_native_Microsoft_SPOT_Hardware_LargeBuffer18CreateBufferHelperER16CLR_RT_HeapBlockj
08049260 T _ZN64Library_spot_hardware_native_Microsoft_SPOT_Hardware_LargeBuffer28InternalDestroyBuffer___VOIDER17CLR_RT_StackFrame
08049208 T _ZN64Library_spot_hardware_native_Microsoft_SPOT_Hardware_LargeBuffer31InternalCreateBuffer___VOID__I4ER17CLR_RT_StackFrame
080447a0 T _ZN64Library_spot_native_Microsoft_SPOT_Hardware_SystemInfo__SystemID20get_OEM___STATIC__U1ER17CLR_RT_StackFrame
08044800 T _ZN64Library_spot_native_Microsoft_SPOT_Hardware_SystemInfo__SystemID20get_SKU___STATIC__U2ER17CLR_RT_StackFrame
080447d0 T _ZN64Library_spot_native_Microsoft_SPOT_Hardware_SystemInfo__SystemID22get_Model___STATIC__U1ER17CLR_RT_StackFrame
08045a18 T _ZN65Library_spot_hardware_native_Microsoft_SPOT_Hardware_AnalogOutput19WriteRaw___VOID__I4ER17CLR_RT_StackFrame
08045ad8 T _ZN65Library_spot_hardware_native_Microsoft_SPOT_Hardware_AnalogOutput72Uninitialize___STATIC__VOID__MicrosoftSPOTHardwareCpuAnalogOutputChannelER17CLR_RT_StackFrame
08045a70 T _ZN65Library_spot_hardware_native_Microsoft_SPOT_Hardware_AnalogOutput74Initialize___STATIC__VOID__MicrosoftSPOTHardwareCpuAnalogOutputChannel__I4ER17CLR_RT_StackFrame
08048814 T _ZN65Library_spot_hardware_native_Microsoft_SPOT_Hardware_TristatePort20get_Active___BOOLEANER17CLR_RT_StackFrame
08048994 T _ZN65Library_spot_hardware_native_Microsoft_SPOT_Hardware_TristatePort26get_GlitchFilter___BOOLEANER17CLR_RT_StackFrame
0804886c T _ZN65Library_spot_hardware_native_Microsoft_SPOT_Hardware_TristatePort26set_Active___VOID__BOOLEANER17CLR_RT_StackFrame
0804895c T _ZN65Library_spot_hardware_native_Microsoft_SPOT_Hardware_TristatePort52get_Resistor___MicrosoftSPOTHardwarePortResistorModeER17CLR_RT_StackFrame
08048978 T _ZN65Library_spot_hardware_native_Microsoft_SPOT_Hardware_TristatePort58set_Resistor___VOID__MicrosoftSPOTHardwarePortResistorModeER17CLR_RT_StackFrame
0804751c T _ZN66Library_spot_hardware_native_Microsoft_SPOT_Hardware_InterruptPort21ClearInterrupt___VOIDER17CLR_RT_StackFrame
0804741c T _ZN66Library_spot_hardware_native_Microsoft_SPOT_Hardware_InterruptPort22EnableInterrupt___VOIDER17CLR_RT_StackFrame
0804749c T _ZN66Library_spot_hardware_native_Microsoft_SPOT_Hardware_InterruptPort23DisableInterrupt___VOIDER17CLR_RT_StackFrame
080475c0 T _ZN66Library_spot_hardware_native_Microsoft_SPOT_Hardware_InterruptPort54get_Interrupt___MicrosoftSPOTHardwarePortInterruptModeER17CLR_RT_StackFrame
08047610 T _ZN66Library_spot_hardware_native_Microsoft_SPOT_Hardware_InterruptPort60set_Interrupt___VOID__MicrosoftSPOTHardwarePortInterruptModeER17CLR_RT_StackFrame
0804f000 T _ZN66Library_spot_native_Samraksh_SPOT_Hardware_EmoteDotNow_ADCInternal21Init___STATIC__I4__I4ER17CLR_RT_StackFrame
0804f06c T _ZN66Library_spot_native_Samraksh_SPOT_Hardware_EmoteDotNow_ADCInternal21Read___STATIC__R8__I4ER17CLR_RT_StackFrame
0804f0dc T _ZN66Library_spot_native_Samraksh_SPOT_Hardware_EmoteDotNow_ADCInternal55ConfigureBatchMode___STATIC__I4__SZARRAY_U2__I4__U4__U4ER17CLR_RT_StackFrame
0804f1bc T _ZN66Library_spot_native_Samraksh_SPOT_Hardware_EmoteDotNow_ADCInternal60ConfigureContinuousMode___STATIC__I4__SZARRAY_U2__I4__U4__U4ER17CLR_RT_StackFrame
0803d0a4 T _ZN68Library_corlib_native_System_Runtime_CompilerServices_RuntimeHelpers35get_OffsetToStringData___STATIC__I4ER17CLR_RT_StackFrame
0803cffc T _ZN68Library_corlib_native_System_Runtime_CompilerServices_RuntimeHelpers39GetObjectValue___STATIC__OBJECT__OBJECTER17CLR_RT_StackFrame
0803d088 T _ZN68Library_corlib_native_System_Runtime_CompilerServices_RuntimeHelpers59RunClassConstructor___STATIC__VOID__SystemRuntimeTypeHandleER17CLR_RT_StackFrame
0803cf08 T _ZN68Library_corlib_native_System_Runtime_CompilerServices_RuntimeHelpers69InitializeArray___STATIC__VOID__SystemArray__SystemRuntimeFieldHandleER17CLR_RT_StackFrame
0804670c T _ZN69Library_spot_hardware_native_Microsoft_SPOT_Hardware_HardwareProvider107NativeGetSupportedResistorModes___MicrosoftSPOTHardwareCpuPinValidResistorMode__MicrosoftSPOTHardwareCpuPinER17CLR_RT_StackFrame
08046ab8 T _ZN69Library_spot_hardware_native_Microsoft_SPOT_Hardware_HardwareProvider109NativeGetAnalogOutputPinForChannel___MicrosoftSPOTHardwareCpuPin__MicrosoftSPOTHardwareCpuAnalogOutputChannelER17CLR_RT_StackFrame
08046748 T _ZN69Library_spot_hardware_native_Microsoft_SPOT_Hardware_HardwareProvider109NativeGetSupportedInterruptModes___MicrosoftSPOTHardwareCpuPinValidInterruptMode__MicrosoftSPOTHardwareCpuPinER17CLR_RT_StackFrame
08046b0c T _ZN69Library_spot_hardware_native_Microsoft_SPOT_Hardware_HardwareProvider113NativeGetAvailableAnalogOutputPrecisionInBitsForChannel___SZARRAY_I4__MicrosoftSPOTHardwareCpuAnalogOutputChannelER17CLR_RT_StackFrame
08046474 T _ZN69Library_spot_hardware_native_Microsoft_SPOT_Hardware_HardwareProvider163NativeGetSpiPins___VOID__MicrosoftSPOTHardwareSPISPImodule__BYREF_MicrosoftSPOTHardwareCpuPin__BYREF_MicrosoftSPOTHardwareCpuPin__BYREF_MicrosoftSPOTHardwareCpuPinER17CLR_RT_StackFrame
080460f0 T _ZN69Library_spot_hardware_native_Microsoft_SPOT_Hardware_HardwareProvider170NativeGetSerialPins___VOID__I4__BYREF_MicrosoftSPOTHardwareCpuPin__BYREF_MicrosoftSPOTHardwareCpuPin__BYREF_MicrosoftSPOTHardwareCpuPin__BYREF_MicrosoftSPOTHardwareCpuPinER17CLR_RT_StackFrame
08046654 T _ZN69Library_spot_hardware_native_Microsoft_SPOT_Hardware_HardwareProvider23NativeGetPinsCount___I4ER17CLR_RT_StackFrame
08046588 T _ZN69Library_spot_hardware_native_Microsoft_SPOT_Hardware_HardwareProvider27NativeGetSpiPortsCount___I4ER17CLR_RT_StackFrame
080468d4 T _ZN69Library_spot_hardware_native_Microsoft_SPOT_Hardware_HardwareProvider30NativeGetPWMChannelsCount___I4ER17CLR_RT_StackFrame
0804624c T _ZN69Library_spot_hardware_native_Microsoft_SPOT_Hardware_HardwareProvider30NativeGetSerialPortsCount___I4ER17CLR_RT_StackFrame
08046940 T _ZN69Library_spot_hardware_native_Microsoft_SPOT_Hardware_HardwareProvider33NativeGetAnalogChannelsCount___I4ER17CLR_RT_StackFrame
08046a90 T _ZN69Library_spot_hardware_native_Microsoft_SPOT_Hardware_HardwareProvider39NativeGetAnalogOutputChannelsCount___I4ER17CLR_RT_StackFrame
08046274 T _ZN69Library_spot_hardware_native_Microsoft_SPOT_Hardware_HardwareProvider47NativeSupportsNonStandardBaudRate___BOOLEAN__I4ER17CLR_RT_StackFrame
080463a8 T _ZN69Library_spot_hardware_native_Microsoft_SPOT_Hardware_HardwareProvider49NativeIsSupportedBaudRate___BOOLEAN__I4__BYREF_U4ER17CLR_RT_StackFrame
080462d0 T _ZN69Library_spot_hardware_native_Microsoft_SPOT_Hardware_HardwareProvider56NativeGetBaudRateBoundary___VOID__I4__BYREF_U4__BYREF_U4ER17CLR_RT_StackFrame
0804667c T _ZN69Library_spot_hardware_native_Microsoft_SPOT_Hardware_HardwareProvider65NativeGetPinsMap___VOID__SZARRAY_MicrosoftSPOTHardwareCpuPinUsageER17CLR_RT_StackFrame
080467c0 T _ZN69Library_spot_hardware_native_Microsoft_SPOT_Hardware_HardwareProvider66NativeGetLCDMetrics___VOID__BYREF_I4__BYREF_I4__BYREF_I4__BYREF_I4ER17CLR_RT_StackFrame
08046784 T _ZN69Library_spot_hardware_native_Microsoft_SPOT_Hardware_HardwareProvider78NativeGetButtonPins___MicrosoftSPOTHardwareCpuPin__MicrosoftSPOTHardwareButtonER17CLR_RT_StackFrame
080466d0 T _ZN69Library_spot_hardware_native_Microsoft_SPOT_Hardware_HardwareProvider81NativeGetPinUsage___MicrosoftSPOTHardwareCpuPinUsage__MicrosoftSPOTHardwareCpuPinER17CLR_RT_StackFrame
080468fc T _ZN69Library_spot_hardware_native_Microsoft_SPOT_Hardware_HardwareProvider91NativeGetPWMPinForChannel___MicrosoftSPOTHardwareCpuPin__MicrosoftSPOTHardwareCpuPWMChannelER17CLR_RT_StackFrame
080465b0 T _ZN69Library_spot_hardware_native_Microsoft_SPOT_Hardware_HardwareProvider93NativeGetI2CPins___VOID__BYREF_MicrosoftSPOTHardwareCpuPin__BYREF_MicrosoftSPOTHardwareCpuPinER17CLR_RT_StackFrame
080469bc T _ZN69Library_spot_hardware_native_Microsoft_SPOT_Hardware_HardwareProvider95NativeGetAvailablePrecisionInBitsForChannel___SZARRAY_I4__MicrosoftSPOTHardwareCpuAnalogChannelER17CLR_RT_StackFrame
08046968 T _ZN69Library_spot_hardware_native_Microsoft_SPOT_Hardware_HardwareProvider97NativeGetAnalogPinForChannel___MicrosoftSPOTHardwareCpuPin__MicrosoftSPOTHardwareCpuAnalogChannelER17CLR_RT_StackFrame
200074c8 B _ZN6MAC_ID13Unique_Mac_IDE
08050fb8 W _ZN6MAC_ID14GetUniqueMacIDEv
08043454 T _ZN6System4Math13IEEERemainderEdd
080433fc T _ZN6System4Math3CosEd
08043488 T _ZN6System4Math3ExpEd
08043514 T _ZN6System4Math3LogEd
0804356c T _ZN6System4Math3PowEdd
080435a0 T _ZN6System4Math3SinEd
08043624 T _ZN6System4Math3TanEd
08043318 T _ZN6System4Math4AcosEd
08043344 T _ZN6System4Math4AsinEd
08043370 T _ZN6System4Math4AtanEd
08043428 T _ZN6System4Math4CoshEd
080434e0 T _ZN6System4Math4FmodEdd
080435cc T _ZN6System4Math4SinhEd
080435f8 T _ZN6System4Math4SqrtEd
08043650 T _ZN6System4Math4TanhEd
0804339c T _ZN6System4Math5Atan2Edd
080434b4 T _ZN6System4Math5FloorEd
08043540 T _ZN6System4Math5Log10Ed
080433d0 T _ZN6System4Math7CeilingEd
0804367c T _ZN6System4Math8TruncateEdRd
080431cc T _ZN6System6Double10IsInfinityEd
08043240 T _ZN6System6Double18IsNegativeInfinityEd
080432b0 T _ZN6System6Double18IsPositiveInfinityEd
08043214 T _ZN6System6Double5IsNaNEd
080430bc T _ZN6System6Double9CompareToEdd
080486e0 T _ZN71Library_spot_hardware_native_Microsoft_SPOT_Hardware_SPI__Configuration16GetInitialConfigER16CLR_RT_HeapBlockR17SPI_CONFIGURATION
08045d08 T _ZN74Library_spot_hardware_native_Microsoft_SPOT_Hardware_Battery__ChargerModel12_ctor___VOIDER17CLR_RT_StackFrame
080492b4 T _ZN74Library_spot_hardware_native_Microsoft_SPOT_Hardware_LargeBufferMarshaller54MarshalBuffer___VOID__MicrosoftSPOTHardwareLargeBufferER17CLR_RT_StackFrame
0804934c T _ZN74Library_spot_hardware_native_Microsoft_SPOT_Hardware_LargeBufferMarshaller62UnMarshalBuffer___VOID__BYREF_MicrosoftSPOTHardwareLargeBufferER17CLR_RT_StackFrame
08048d68 T _ZN74Library_spot_hardware_native_Microsoft_SPOT_Hardware_NativeEventDispatcher18GetEventDispatcherER17CLR_RT_StackFrame
08048d30 T _ZN74Library_spot_hardware_native_Microsoft_SPOT_Hardware_NativeEventDispatcher18GetEventDispatcherER17CLR_RT_StackFrameRP38CLR_RT_HeapBlock_NativeEventDispatcher
08048d04 T _ZN74Library_spot_hardware_native_Microsoft_SPOT_Hardware_NativeEventDispatcher21GetEventDispReferenceER17CLR_RT_StackFrame
080489b0 T _ZN74Library_spot_hardware_native_Microsoft_SPOT_Hardware_NativeEventDispatcher22EnableInterrupt___VOIDER17CLR_RT_StackFrame
08048a5c T _ZN74Library_spot_hardware_native_Microsoft_SPOT_Hardware_NativeEventDispatcher23DisableInterrupt___VOIDER17CLR_RT_StackFrame
08048b00 T _ZN74Library_spot_hardware_native_Microsoft_SPOT_Hardware_NativeEventDispatcher23Dispose___VOID__BOOLEANER17CLR_RT_StackFrame
08048b80 T _ZN74Library_spot_hardware_native_Microsoft_SPOT_Hardware_NativeEventDispatcher24_ctor___VOID__STRING__U8ER17CLR_RT_StackFrame
0804c3d8 T _ZN76Library_spot_hardware_usb_native_Microsoft_SPOT_Hardware_UsbClient_UsbStream18nativeClose___VOIDER17CLR_RT_StackFrame
0804c628 T _ZN76Library_spot_hardware_usb_native_Microsoft_SPOT_Hardware_UsbClient_UsbStream18nativeFlush___VOIDER17CLR_RT_StackFrame
0804c30c T _ZN76Library_spot_hardware_usb_native_Microsoft_SPOT_Hardware_UsbClient_UsbStream23nativeOpen___I4__I4__I4ER17CLR_RT_StackFrame
0804c458 T _ZN76Library_spot_hardware_usb_native_Microsoft_SPOT_Hardware_UsbClient_UsbStream35nativeRead___I4__SZARRAY_U1__I4__I4ER17CLR_RT_StackFrame
0804c540 T _ZN76Library_spot_hardware_usb_native_Microsoft_SPOT_Hardware_UsbClient_UsbStream36nativeWrite___I4__SZARRAY_U1__I4__I4ER17CLR_RT_StackFrame
08047044 T _ZN77Library_spot_hardware_native_Microsoft_SPOT_Hardware_I2CDevice__Configuration16GetInitialConfigER16CLR_RT_HeapBlockR22I2C_USER_CONFIGURATION
0804e4b8 W _ZN7MessageI19IEEE802_15_4_HeaderLt113E19IEEE802_15_4_Footer21IEEE802_15_4_MetadataE10GetPayloadEv
08050d38 W _ZN7MessageI19IEEE802_15_4_HeaderLt113E19IEEE802_15_4_Footer21IEEE802_15_4_MetadataE11GetMetaDataEv
08051968 W _ZN7MessageI19IEEE802_15_4_HeaderLt113E19IEEE802_15_4_Footer21IEEE802_15_4_MetadataE14GetMessageSizeEv
0804e4d4 W _ZN7MessageI19IEEE802_15_4_HeaderLt113E19IEEE802_15_4_Footer21IEEE802_15_4_MetadataE9GetHeaderEv
200074fa B _ZN7RadioID13UniqueRadioIdE
0804fff0 W _ZN7RadioID16GetUniqueRadioIdEv
08051104 T _ZN7csmaMAC10InitializeEP15MacEventHandlerPhhP9MacConfig
080513c8 T _ZN7csmaMAC11SendToRadioEv
080516bc T _ZN7csmaMAC13GetBufferSizeEv
080514c0 T _ZN7csmaMAC14ReceiveHandlerEP7MessageI19IEEE802_15_4_HeaderLt113E19IEEE802_15_4_Footer21IEEE802_15_4_MetadataEi
08051664 T _ZN7csmaMAC14SendAckHandlerEPvi11NetOpStatus
0805161c T _ZN7csmaMAC20HandleUnicastMessageEP7MessageI19IEEE802_15_4_HeaderLt113E19IEEE802_15_4_Footer21IEEE802_15_4_MetadataE
08051644 T _ZN7csmaMAC21RadioInterruptHandlerE14RadioInterruptPv
08051608 T _ZN7csmaMAC22HandleBroadcastMessageEP7MessageI19IEEE802_15_4_HeaderLt113E19IEEE802_15_4_Footer21IEEE802_15_4_MetadataE
08051630 T _ZN7csmaMAC23HandlePromiscousMessageEP7MessageI19IEEE802_15_4_HeaderLt113E19IEEE802_15_4_Footer21IEEE802_15_4_MetadataE
08051288 T _ZN7csmaMAC4SendEthPvi
080510a8 T _ZN7csmaMAC9SetConfigEP9MacConfig
0804a608 T _ZN80Library_spot_hardware_usb_native_Microsoft_SPOT_Hardware_UsbClient_UsbController20nativeStop___BOOLEANER17CLR_RT_StackFrame
0804a594 T _ZN80Library_spot_hardware_usb_native_Microsoft_SPOT_Hardware_UsbClient_UsbController21nativeStart___BOOLEANER17CLR_RT_StackFrame
0804a678 T _ZN80Library_spot_hardware_usb_native_Microsoft_SPOT_Hardware_UsbClient_UsbController22get_Count___STATIC__I4ER17CLR_RT_StackFrame
0804a6a4 T _ZN80Library_spot_hardware_usb_native_Microsoft_SPOT_Hardware_UsbClient_UsbController63get_Configuration___MicrosoftSPOTHardwareUsbClientConfigurationER17CLR_RT_StackFrame
0804a528 T _ZN80Library_spot_hardware_usb_native_Microsoft_SPOT_Hardware_UsbClient_UsbController65get_Status___MicrosoftSPOTHardwareUsbClientUsbControllerPortStateER17CLR_RT_StackFrame
0804adb4 T _ZN80Library_spot_hardware_usb_native_Microsoft_SPOT_Hardware_UsbClient_UsbController69set_Configuration___VOID__MicrosoftSPOTHardwareUsbClientConfigurationER17CLR_RT_StackFrame
0804552c T _ZN81Library_spot_native_System_Security_Cryptography_X509Certificates_X509Certificate139ParseCertificate___STATIC__VOID__SZARRAY_U1__STRING__BYREF_STRING__BYREF_STRING__BYREF_mscorlibSystemDateTime__BYREF_mscorlibSystemDateTimeER17CLR_RT_StackFrame
08051b8c W _ZN8HALTimer11get_m_dtimeEv
08051b70 W _ZN8HALTimer11set_m_dtimeEj
08051c28 W _ZN8HALTimer14get_m_callbackEv
08051b3c W _ZN8HALTimer14get_m_timer_idEv
08051c0c W _ZN8HALTimer14set_m_callBackEPFvPvE
08051c40 W _ZN8HALTimer14set_m_reservedEb
08051b20 W _ZN8HALTimer14set_m_timer_idEh
08051bf4 W _ZN8HALTimer16get_m_is_runningEv
08051bd8 W _ZN8HALTimer16set_m_is_runningEj
08051bc0 W _ZN8HALTimer17get_m_is_one_shotEv
08051ba4 W _ZN8HALTimer17set_m_is_one_shotEj
08051b54 W _ZN8HALTimer17set_m_start_timerEj
08051b04 W _ZN8HALTimer21get_m_ticksTillExpireEv
08051ae4 W _ZN8HALTimer21set_m_ticksTillExpireEy
0804d908 T _ZN8Samraksh4SPOT3Net3Mac4CSMA10GetAddressEP16CLR_RT_HeapBlockRi
20006af4 B _ZN8Samraksh4SPOT3Net3Mac4CSMA10ne_ContextE
20006af8 B _ZN8Samraksh4SPOT3Net3Mac4CSMA11ne_userDataE
0804d968 T _ZN8Samraksh4SPOT3Net3Mac4CSMA12GetNeighborsEP16CLR_RT_HeapBlocktRi
0804d9d4 T _ZN8Samraksh4SPOT3Net3Mac4CSMA12RemovePacketEP16CLR_RT_HeapBlock17CLR_RT_TypedArrayIhERi
0804d860 T _ZN8Samraksh4SPOT3Net3Mac4CSMA12UnInitializeEP16CLR_RT_HeapBlockRi
0804d98c T _ZN8Samraksh4SPOT3Net3Mac4CSMA13GetBufferSizeEP16CLR_RT_HeapBlockRi
20006b00 B _ZN8Samraksh4SPOT3Net3Mac4CSMA14managedCSMAMsgE
0804d948 T _ZN8Samraksh4SPOT3Net3Mac4CSMA16GetNeighborTableEP16CLR_RT_HeapBlockRi
20006ae8 B _ZN8Samraksh4SPOT3Net3Mac4CSMA18CSMA_Event_HandlerE
0804d9fc T _ZN8Samraksh4SPOT3Net3Mac4CSMA18InternalInitializeEP16CLR_RT_HeapBlock17CLR_RT_TypedArrayIhERi
0804d9b4 T _ZN8Samraksh4SPOT3Net3Mac4CSMA21GetPendingPacketCountEP16CLR_RT_HeapBlockRi
0804d880 T _ZN8Samraksh4SPOT3Net3Mac4CSMA4SendEP16CLR_RT_HeapBlockt17CLR_RT_TypedArrayIhEttRi
0804d928 T _ZN8Samraksh4SPOT3Net3Mac4CSMA5GetIDEP16CLR_RT_HeapBlockRi
20006af0 B _ZN8Samraksh4SPOT3Net3Mac4CSMA5MacIDE
20006af1 B _ZN8Samraksh4SPOT3Net3Mac4CSMA7MyAppIDE
0804d840 T _ZN8Samraksh4SPOT3Net3Mac4CSMA9ConfigureEP16CLR_RT_HeapBlockS5_Ri
20006cac B _ZN8Samraksh4SPOT3Net5Radio14Radio_802_15_410SendMsgPtrE
0804e244 T _ZN8Samraksh4SPOT3Net5Radio14Radio_802_15_410SendStrobeEP16CLR_RT_HeapBlockRi
20006cb4 B _ZN8Samraksh4SPOT3Net5Radio14Radio_802_15_410ne_ContextE
20006cb8 B _ZN8Samraksh4SPOT3Net5Radio14Radio_802_15_411ne_userDataE
0804e198 T _ZN8Samraksh4SPOT3Net5Radio14Radio_802_15_412UnInitializeEP16CLR_RT_HeapBlockRi
0804e2f8 T _ZN8Samraksh4SPOT3Net5Radio14Radio_802_15_415SendTimeStampedEP16CLR_RT_HeapBlock17CLR_RT_TypedArrayIhEtjRi
20006cc0 B _ZN8Samraksh4SPOT3Net5Radio14Radio_802_15_415managedRadioMsgE
0804e364 T _ZN8Samraksh4SPOT3Net5Radio14Radio_802_15_418InternalInitializeEP16CLR_RT_HeapBlock17CLR_RT_TypedArrayIhERi
20006b88 B _ZN8Samraksh4SPOT3Net5Radio14Radio_802_15_419Radio_Event_HandlerE
0804e320 T _ZN8Samraksh4SPOT3Net5Radio14Radio_802_15_421ClearChannelAssesmentEP16CLR_RT_HeapBlockRi
0804e340 T _ZN8Samraksh4SPOT3Net5Radio14Radio_802_15_421ClearChannelAssesmentEP16CLR_RT_HeapBlocktRi
0804e264 T _ZN8Samraksh4SPOT3Net5Radio14Radio_802_15_44SendEP16CLR_RT_HeapBlock17CLR_RT_TypedArrayIhEtRi
0804e1b8 T _ZN8Samraksh4SPOT3Net5Radio14Radio_802_15_45GetIDEP16CLR_RT_HeapBlockRi
0804e1f8 T _ZN8Samraksh4SPOT3Net5Radio14Radio_802_15_45SleepEP16CLR_RT_HeapBlockhRi
20006c24 B _ZN8Samraksh4SPOT3Net5Radio14Radio_802_15_46RcvMsgE
0804e1d8 T _ZN8Samraksh4SPOT3Net5Radio14Radio_802_15_46TurnOnEP16CLR_RT_HeapBlockRi
0804e21c T _ZN8Samraksh4SPOT3Net5Radio14Radio_802_15_47PreLoadEP16CLR_RT_HeapBlock17CLR_RT_TypedArrayIhEtRi
20006b98 B _ZN8Samraksh4SPOT3Net5Radio14Radio_802_15_47RadioIDE
20006b9c B _ZN8Samraksh4SPOT3Net5Radio14Radio_802_15_47SendMsgE
0804e178 T _ZN8Samraksh4SPOT3Net5Radio14Radio_802_15_49ConfigureEP16CLR_RT_HeapBlockS5_Ri
20006cb0 B _ZN8Samraksh4SPOT3Net5Radio14Radio_802_15_49RcvMsgPtrE
0804ebb4 T _ZN8Samraksh4SPOT8Hardware11EmoteDotNow11ADCInternal18ConfigureBatchModeE17CLR_RT_TypedArrayItEijjRi
0804eca0 T _ZN8Samraksh4SPOT8Hardware11EmoteDotNow11ADCInternal23ConfigureContinuousModeE17CLR_RT_TypedArrayItEijjRi
0804eb44 T _ZN8Samraksh4SPOT8Hardware11EmoteDotNow11ADCInternal4InitEiRi
0804eb70 T _ZN8Samraksh4SPOT8Hardware11EmoteDotNow11ADCInternal4ReadEiRi
08050de8 T _ZN8Samraksh4SPOT8Hardware11EmoteDotNow8EmoteLCD10InitializeEP16CLR_RT_HeapBlockRi
08050e14 T _ZN8Samraksh4SPOT8Hardware11EmoteDotNow8EmoteLCD12UninitializeEP16CLR_RT_HeapBlockRi
08050f14 T _ZN8Samraksh4SPOT8Hardware11EmoteDotNow8EmoteLCD13WriteRawBytesEP16CLR_RT_HeapBlockiiiiRi
08050f4c T _ZN8Samraksh4SPOT8Hardware11EmoteDotNow8EmoteLCD5BlinkEP16CLR_RT_HeapBlockiRi
08050f7c T _ZN8Samraksh4SPOT8Hardware11EmoteDotNow8EmoteLCD5ClearEP16CLR_RT_HeapBlockRi
08050e78 T _ZN8Samraksh4SPOT8Hardware11EmoteDotNow8EmoteLCD5SetDPEP16CLR_RT_HeapBlockaaaaRi
08050e40 T _ZN8Samraksh4SPOT8Hardware11EmoteDotNow8EmoteLCD5WriteEP16CLR_RT_HeapBlockiiiiRi
08050ee0 T _ZN8Samraksh4SPOT8Hardware11EmoteDotNow8EmoteLCD6WriteNEP16CLR_RT_HeapBlockiiRi
0804ff3c T _ZN8Samraksh4SPOT8RealTime5Timer17GenerateInterruptERi
0804ff18 T _ZN8Samraksh4SPOT8RealTime5Timer6ChangeEjjRi
0804ff04 T _ZN8Samraksh4SPOT8RealTime5Timer7DisposeERi
080004dc W _ZN8Settings10InitializeE12CLR_SETTINGS
08000580 W _ZN8Settings12LoadAssemblyEPK19CLR_RECORD_ASSEMBLYRP15CLR_RT_Assembly
08000814 W _ZN8Settings19LoadKnownAssembliesEPcS0_
08000a98 W _ZN8Settings24LoadDeploymentAssembliesEj
080008f8 W _ZN8Settings25ContiguousBlockAssembliesE18BlockStorageStreamj
0800073c W _ZN8Settings29CheckKnownAssembliesForNonXIPEPPcS1_
08000674 W _ZN8Settings4LoadEv
08000b38 W _ZN8Settings7CleanupEv
08007360 T _ZN9CLR_Debug4EmitEPKci
080075d0 T _ZN9CLR_Debug6PrintfEPKcz
08007550 T _ZN9CLR_Debug7PrintfVEPKcSt9__va_list
08000d1c W _ZN9MFVersion4InitERS_tttt
08000da4 W _ZNK10BlockRange12IsDeploymentEv
08000dc8 W _ZNK10BlockRange13GetBlockCountEv
08008b60 W _ZNK10BlockRange13GetBlockUsageEv
08000d70 W _ZNK10BlockRange8IsConfigEv
08010c50 W _ZNK12HAL_CALLBACK13GetEntryPointEv
08010c68 W _ZNK12HAL_CALLBACK7ExecuteEv
08032a80 T _ZNK13CLR_RECORD_EH8GetTokenEv
0801a230 W _ZNK13CLR_RT_Thread10FirstFrameEv
08001710 W _ZNK13CLR_RT_Thread12CurrentFrameEv
0801a2a8 W _ZNK13CLR_RT_Thread15GetQuantumDebitEv
0801a250 W _ZNK13CLR_RT_Thread16CurrentAppDomainEv
08001730 W _ZNK13CLR_RT_Thread16CurrentSubThreadEv
08001750 W _ZNK13CLR_RT_Thread17GetThreadPriorityEv
0801a284 W _ZNK13CLR_RT_Thread19GetExecutionCounterEv
08009850 T _ZNK15BlockDeviceInfo17FindForBlockUsageEjRjS0_S0_
08009894 T _ZNK15BlockDeviceInfo18FindNextUsageBlockEjRjS0_S0_
08009750 T _ZNK15BlockDeviceInfo21FindRegionFromAddressEjRjS0_
08000dec W _ZNK15BlockRegionInfo12BlockAddressEj
08000e14 W _ZNK15BlockRegionInfo15OffsetFromBlockEj
08000e44 W _ZNK15BlockRegionInfo21BlockIndexFromAddressEj
08032bc4 T _ZNK15CLR_RT_Assembly14IsSameAssemblyERKS_
08001480 W _ZNK16CLR_RT_HeapBlock10ArrayIndexEv
080196a4 W _ZNK16CLR_RT_HeapBlock10ObjectLockEv
08019604 W _ZNK16CLR_RT_HeapBlock10SameHeaderERKS_
08001418 W _ZNK16CLR_RT_HeapBlock10StringTextEv
08001498 W _ZNK16CLR_RT_HeapBlock11DereferenceEv
08001370 W _ZNK16CLR_RT_HeapBlock12IsAValueTypeEv
08019290 W _ZNK16CLR_RT_HeapBlock13IsForcedAliveEv
080071f8 W _ZNK16CLR_RT_HeapBlock13RecoverStringEv
0801964c W _ZNK16CLR_RT_HeapBlock14DataByRefConstEv
0801968c W _ZNK16CLR_RT_HeapBlock14StringAssemblyEv
080014b0 W _ZNK16CLR_RT_HeapBlock16DereferenceArrayEv
0801972c W _ZNK16CLR_RT_HeapBlock17DereferenceStringEv
080013fc W _ZNK16CLR_RT_HeapBlock17NumericByRefConstEv
080012e4 W _ZNK16CLR_RT_HeapBlock18Debug_CheckPointerEv
08019540 W _ZNK16CLR_RT_HeapBlock18IsTransparentProxyEv
080014cc W _ZNK16CLR_RT_HeapBlock19DereferenceDelegateEv
0800144c W _ZNK16CLR_RT_HeapBlock19ReflectionDataConstEv
08037770 W _ZNK16CLR_RT_HeapBlock21DereferenceBinaryBlobEv
08022710 T _ZNK16CLR_RT_HeapBlock22GetAtomicDataUsedBytesEv
080195a0 W _ZNK16CLR_RT_HeapBlock22IsAReferenceOfThisTypeE12CLR_DataType
08019748 W _ZNK16CLR_RT_HeapBlock23DereferenceDelegateListEv
080196d8 W _ZNK16CLR_RT_HeapBlock24BinaryBlobMarkingHandlerEv
08023cd8 T _ZNK16CLR_RT_HeapBlock24TransparentProxyValidateEv
0801950c W _ZNK16CLR_RT_HeapBlock25TransparentProxyAppDomainEv
080196f0 W _ZNK16CLR_RT_HeapBlock27BinaryBlobRelocationHandlerEv
08018f84 W _ZNK16CLR_RT_HeapBlock27CLR_RT_HeapBlock_AtomicData7Numeric2R8cvdEv
080011cc W _ZNK16CLR_RT_HeapBlock27CLR_RT_HeapBlock_AtomicData7Numeric2S8cvxEv
08018a28 W _ZNK16CLR_RT_HeapBlock27CLR_RT_HeapBlock_AtomicData7Numeric2U8cvyEv
08019524 W _ZNK16CLR_RT_HeapBlock27TransparentProxyDereferenceEv
08001468 W _ZNK16CLR_RT_HeapBlock5ArrayEv
08022400 T _ZNK16CLR_RT_HeapBlock6IsZeroEv
08019250 W _ZNK16CLR_RT_HeapBlock7IsAliveEv
080012f8 W _ZNK16CLR_RT_HeapBlock7IsBoxedEv
08019270 W _ZNK16CLR_RT_HeapBlock7IsEventEv
08001264 W _ZNK16CLR_RT_HeapBlock8DataSizeEv
08001234 W _ZNK16CLR_RT_HeapBlock8DataTypeEv
080192b0 W _ZNK16CLR_RT_HeapBlock8IsPinnedEv
0800124c W _ZNK16CLR_RT_HeapBlock9DataFlagsEv
080012b4 W _ZNK16CLR_RT_HeapBlock9IsFlagSetEh
08001430 W _ZNK16CLR_RT_HeapBlock9ObjectClsEv
08010c90 W _ZNK16HAL_CONTINUATION13GetEntryPointEv
08010cb0 W _ZNK16HAL_CONTINUATION7ExecuteEv
08019edc W _ZNK17CLR_RT_StackFrame4Arg0Ev
08019ef4 W _ZNK17CLR_RT_StackFrame4Arg1Ev
0803778c W _ZNK17CLR_RT_StackFrame4Arg2Ev
080377a8 W _ZNK17CLR_RT_StackFrame4Arg3Ev
080377c4 W _ZNK17CLR_RT_StackFrame4Arg4Ev
080377e0 W _ZNK17CLR_RT_StackFrame4Arg5Ev
080458f8 W _ZNK17CLR_RT_StackFrame4Arg6Ev
08045914 W _ZNK17CLR_RT_StackFrame4Arg7Ev
08019f10 W _ZNK17CLR_RT_StackFrame4ArgNEi
08019eb8 W _ZNK17CLR_RT_StackFrame4ThisEv
08019ea0 W _ZNK17CLR_RT_StackFrame7ThisRefEv
08011484 W _ZNK17HAL_DblLinkedListI16HAL_CONTINUATIONE14FirstValidNodeEv
080113ec W _ZNK17HAL_DblLinkedListI16HAL_CONTINUATIONE4HeadEv
080113cc W _ZNK17HAL_DblLinkedListI16HAL_CONTINUATIONE4TailEv
08011354 W _ZNK17HAL_DblLinkedListI16HAL_CONTINUATIONE7IsEmptyEv
08011294 W _ZNK17HAL_DblLinkedListI16HAL_CONTINUATIONE9FirstNodeEv
080185f0 W _ZNK17HAL_DblLinkedListI16PalEventListenerE4HeadEv
080185d0 W _ZNK17HAL_DblLinkedListI16PalEventListenerE4TailEv
08009a58 W _ZNK17HAL_DblLinkedListI18BlockStorageDeviceE14FirstValidNodeEv
08009ac0 W _ZNK17HAL_DblLinkedListI18BlockStorageDeviceE4HeadEv
08009aa0 W _ZNK17HAL_DblLinkedListI18BlockStorageDeviceE4TailEv
08009998 W _ZNK17HAL_DblLinkedListI18BlockStorageDeviceE9FirstNodeEv
080112ac W _ZNK17HAL_DblLinkedNodeI16HAL_CONTINUATIONE4NextEv
0801146c W _ZNK17HAL_DblLinkedNodeI16HAL_CONTINUATIONE4PrevEv
080099b0 W _ZNK17HAL_DblLinkedNodeI18BlockStorageDeviceE4NextEv
08009a88 W _ZNK17HAL_DblLinkedNodeI18BlockStorageDeviceE4PrevEv
08000ecc W _ZNK18BlockStorageDevice10EraseBlockEj
0801889c W _ZNK18CLR_RECORD_TYPEDEF10IsDelegateEv
08000f6c W _ZNK18CLR_RECORD_TYPEDEF6IsEnumEv
080328f4 T _ZNK19CLR_RECORD_ASSEMBLY10GoodHeaderEv
08018854 W _ZNK19CLR_RECORD_ASSEMBLY11SizeOfTableE14CLR_TABLESENUM
0803299c T _ZNK19CLR_RECORD_ASSEMBLY12GoodAssemblyEv
080004a4 W _ZNK19CLR_RECORD_ASSEMBLY9TotalSizeEv
0801992c W _ZNK20CLR_RT_DblLinkedList13LastValidNodeEv
08019900 W _ZNK20CLR_RT_DblLinkedList14FirstValidNodeEv
08006400 W _ZNK20CLR_RT_DblLinkedList4HeadEv
0800641c W _ZNK20CLR_RT_DblLinkedList4TailEv
080198d8 W _ZNK20CLR_RT_DblLinkedList7IsEmptyEv
0800155c W _ZNK20CLR_RT_DblLinkedList8LastNodeEv
08001544 W _ZNK20CLR_RT_DblLinkedList9FirstNodeEv
0800101c W _ZNK20CLR_RT_TypeDef_Index4TypeEv
08000ffc W _ZNK20CLR_RT_TypeDef_Index8AssemblyEv
08000fb4 W _ZNK21CLR_RT_Assembly_Index8AssemblyEv
08001080 W _ZNK21CLR_RT_FieldDef_Index5FieldEv
08001060 W _ZNK21CLR_RT_FieldDef_Index8AssemblyEv
0800152c W _ZNK21CLR_RT_HeapBlock_Node4NextEv
08006340 W _ZNK21CLR_RT_HeapBlock_Node4PrevEv
08018908 W _ZNK21CLR_RT_TypeSpec_Index8AssemblyEv
08018928 W _ZNK21CLR_RT_TypeSpec_Index8TypeSpecEv
0801be90 T _ZNK22CLR_RT_ExecutionEngine30UpdateToLowestExecutionCounterEP13CLR_RT_Thread
0801a3b4 W _ZNK22CLR_RT_ExecutionEngine31ExecutionConstraintCompensation6AdjustEx
08001100 W _ZNK22CLR_RT_MethodDef_Index6MethodEv
080010e0 W _ZNK22CLR_RT_MethodDef_Index8AssemblyEv
080015b8 W _ZNK22CLR_RT_SignatureParser9AvailableEv
0801a1a4 W _ZNK23CLR_RT_ExceptionHandler10IsCatchAllEv
0801a1c8 W _ZNK23CLR_RT_ExceptionHandler8IsFilterEv
0801a1ec W _ZNK23CLR_RT_ExceptionHandler9IsFinallyEv
08031e40 T _ZNK23CLR_RT_TypeDef_Instance12HasFinalizerEv
080015d0 W _ZNK23CLR_RT_TypeDef_Instance14CrossReferenceEv
080015f8 W _ZNK24CLR_RT_FieldDef_Instance14CrossReferenceEv
08007258 W _ZNK25CLR_RT_HeapBlock_Delegate11DelegateFtnEv
08001620 W _ZNK25CLR_RT_MethodDef_Instance13DebuggingInfoEv
08019e60 W _ZNK25CLR_RT_MethodDef_Instance14CrossReferenceEv
08031084 T _ZNK26CLR_RT_ReflectionDef_Index11GetTypeHashEv
080189b4 W _ZNK30CLR_RT_MethodDef_DebuggingInfo13HasBreakpointEv
08018994 W _ZNK30CLR_RT_MethodDef_DebuggingInfo5IsJMCEv
080189f8 W _ZNK30CLR_RT_MethodDef_DebuggingInfo9IsFlagSetEh
0801897c W _ZNK31CLR_RT_MethodDef_CrossReference8GetOwnerEv
08007e28 T _ZNK39CLR_RT_HeapBlock_WeakReference_Identity10ComputeCRCEPKhj
08050cd0 W _ZNK5RadioI7MessageI19IEEE802_15_4_HeaderLt113E19IEEE802_15_4_Footer21IEEE802_15_4_MetadataEE13IsInitializedEv
08067448 V _ZZ16CLR_TkFromStreamRPKhE8c_lookup
08067454 V _ZZ23CLR_UncompressTypeTokenjE8c_lookup
0806744c V _ZZ24CLR_UncompressFieldTokenjE8c_lookup
08067450 V _ZZ25CLR_UncompressMethodTokenjE8c_lookup
20002174 b _ZZN10TimeDriver16DateTimeToStringERKxE8rgBuffer
200021f4 b _ZZN10TimeDriver16TimeSpanToStringERKxE8rgBuffer
20000f14 b _ZZN11CLR_RT_DUMP15GETERRORMESSAGEEiE5s_tmp
08067440 t _ZZN13CLR_RT_Random4NextEvE2IA
0806743c t _ZZN13CLR_RT_Random4NextEvE2IM
08067438 t _ZZN13CLR_RT_Random4NextEvE2IQ
08067434 t _ZZN13CLR_RT_Random4NextEvE2IR
08067430 t _ZZN13CLR_RT_Random4NextEvE4MASK
20002b48 b _ZZN15CLR_HW_Hardware15ProcessActivityEvE10lastStatus
0806742c t _ZZN15CLR_RT_Assembly9GetStringEtE4iMax
200022a8 b _ZZN15Watchdog_Driver16WatchdogCallbackEPvE15iReentrantState
20000478 d _ZZN15Watchdog_Driver16WatchdogCallbackEPvE8lastTime
20000f34 b _ZZN9CLR_Debug4EmitEPKciE7s_chars
20000f38 b _ZZN9CLR_Debug4EmitEPKciE8s_buffer
0800a920 t __DSB
0805eb88 T ___Unwind_Backtrace
0805eb64 T ___Unwind_ForcedUnwind
0805eaf8 T ___Unwind_RaiseException
0805eb1c T ___Unwind_Resume
0805eb40 T ___Unwind_Resume_or_Rethrow
0805ce74 T __adddf3
0805d804 T __addsf3
0805d694 T __aeabi_cdcmpeq
0805d694 T __aeabi_cdcmple
0805d684 T __aeabi_cdrcmple
0805dd28 T __aeabi_cfcmpeq
0805dd28 T __aeabi_cfcmple
0805dd20 T __aeabi_cfrcmple
0805d758 T __aeabi_d2f
0805d708 T __aeabi_d2iz
0805de48 T __aeabi_d2lz
0805ef44 T __aeabi_d2uiz
0805dec8 T __aeabi_d2ulz
0805ce74 T __aeabi_dadd
0805d6a4 T __aeabi_dcmpeq
0805d6e0 T __aeabi_dcmpge
0805d6f4 T __aeabi_dcmpgt
0805d6cc T __aeabi_dcmple
0805d6b8 T __aeabi_dcmplt
0805d42c T __aeabi_ddiv
0805d1d8 T __aeabi_dmul
0805ce68 T __aeabi_drsub
0805ce70 T __aeabi_dsub
0805d130 T __aeabi_f2d
0805dd9c T __aeabi_f2iz
0805de18 T __aeabi_f2lz
0805de80 T __aeabi_f2ulz
0805d804 T __aeabi_fadd
0805dd38 T __aeabi_fcmpeq
0805dd74 T __aeabi_fcmpge
0805dd88 T __aeabi_fcmpgt
0805dd60 T __aeabi_fcmple
0805dd4c T __aeabi_fcmplt
0805db7c T __aeabi_fdiv
0805da14 T __aeabi_fmul
0805d7f8 T __aeabi_frsub
0805d800 T __aeabi_fsub
0805d10c T __aeabi_i2d
0805d96c T __aeabi_i2f
0805cdc0 T __aeabi_idiv
0805ce64 T __aeabi_idiv0
0805ce54 T __aeabi_idivmod
0805d17c T __aeabi_l2d
0805d998 T __aeabi_l2f
0805ce64 T __aeabi_ldiv0
0805dde8 T __aeabi_ldivmod
0805d0ec T __aeabi_ui2d
0805d964 T __aeabi_ui2f
0805cd38 T __aeabi_uidiv
0805cdb0 T __aeabi_uidivmod
0805d16c T __aeabi_ul2d
0805d988 T __aeabi_ul2f
0805de00 T __aeabi_uldivmod
0805e37c T __aeabi_unwind_cpp_pr0
0805e370 W __aeabi_unwind_cpp_pr1
0805e364 W __aeabi_unwind_cpp_pr2
0805c26c T __any_on
0805c0e4 T __b2d
0805d60c T __cmpdf2
0805dcc4 T __cmpsf2
0805c224 T __copybits
         w __cxa_begin_cleanup
         w __cxa_call_unexpected
         w __cxa_type_match
0805c314 T __d2b
0800a914 t __disable_irq
0800a844 t __disable_irq
0805ce64 T __div0
0805d42c T __divdf3
0805ef84 T __divdi3
0805db7c T __divsf3
0805cdc0 T __divsi3
0800a838 t __enable_irq
0805d60c T __eqdf2
0805dcc4 T __eqsf2
08058c84 T __errno
2000a564 B __exidx_end
2000a564 B __exidx_start
0805d130 T __extendsfdf2
20000504 D __fdlib_version
0805de48 T __fixdfdi
0805d708 T __fixdfsi
0805de18 T __fixsfdi
0805dd9c T __fixsfsi
0805dec8 T __fixunsdfdi
0805ef44 T __fixunsdfsi
0805de80 T __fixunssfdi
0805d17c T __floatdidf
0805d998 T __floatdisf
0805d10c T __floatsidf
0805d96c T __floatsisf
0805d16c T __floatundidf
0805d988 T __floatundisf
0805d0ec T __floatunsidf
0805d964 T __floatunsisf
0805d5fc T __gedf2
0805dcb4 T __gesf2
0805e4b4 T __gnu_Unwind_Backtrace
         w __gnu_Unwind_Find_exidx
0805e660 T __gnu_Unwind_ForcedUnwind
0805e6a4 T __gnu_Unwind_RaiseException
0805ea18 T __gnu_Unwind_Restore_VFP
0805ea28 T __gnu_Unwind_Restore_VFP_D
0805ea38 T __gnu_Unwind_Restore_VFP_D_16_to_31
0805ead0 T __gnu_Unwind_Restore_WMMXC
0805ea48 T __gnu_Unwind_Restore_WMMXD
0805e738 T __gnu_Unwind_Resume
0805e720 T __gnu_Unwind_Resume_or_Rethrow
0805ea20 T __gnu_Unwind_Save_VFP
0805ea30 T __gnu_Unwind_Save_VFP_D
0805ea40 T __gnu_Unwind_Save_VFP_D_16_to_31
0805eae4 T __gnu_Unwind_Save_WMMXC
0805ea8c T __gnu_Unwind_Save_WMMXD
0805df3c T __gnu_ldivmod_helper
0805df0c T __gnu_uldivmod_helper
0805ec30 T __gnu_unwind_execute
0805ef18 T __gnu_unwind_frame
0805e094 t __gnu_unwind_pr_common
0805d5fc T __gtdf2
0805dcb4 T __gtsf2
0805bfa0 T __hi0bits
0805c740 T __i2b
080549c0 T __ieee754_acos
08054e60 T __ieee754_asin
080552b0 T __ieee754_atan2
080554b8 T __ieee754_cosh
08055638 T __ieee754_exp
08055940 T __ieee754_fmod
08055bb0 T __ieee754_log
08055fe8 T __ieee754_log10
08056120 T __ieee754_pow
08056c90 T __ieee754_rem_pio2
080570d8 T __ieee754_remainder
08057278 T __ieee754_sinh
08057440 T __ieee754_sqrt
08053810 T __isinfd
08053834 T __isnand
08057618 T __kernel_cos
08057860 T __kernel_rem_pio2
080580d0 T __kernel_sin
08058240 T __kernel_tan
0805d604 T __ledf2
0805dcbc T __lesf2
0805bfec T __lo0bits
0805b978 T __locale_charset
0805c518 T __lshift
0805d604 T __ltdf2
0805dcbc T __ltsf2
20000938 D __malloc_av_
2000a534 B __malloc_current_mallinfo
0805bf7c T __malloc_lock
2000a55c B __malloc_max_sbrked_mem
2000a560 B __malloc_max_total_mem
20000d40 D __malloc_sbrk_base
2000a530 B __malloc_top_pad
20000d44 D __malloc_trim_threshold
0805bf80 T __malloc_unlock
0805c054 T __mcmp
0805c3f8 T __mdiff
08069bd0 T __mprec_bigtens
08069af8 T __mprec_tens
08069bf8 T __mprec_tinytens
0805d1d8 T __muldf3
0805da14 T __mulsf3
0805c758 T __multadd
0805c5dc T __multiply
0805d60c T __nedf2
0805dcc4 T __nesf2
0805c7fc T __pow5mult
0805c180 T __ratio
0805ea00 T __restore_core_regs
0805c8b4 T __s2b
08053a34 T __signbitd
08053a2c T __signbitf
0805f704 T __sigtramp
0805f6ac T __sigtramp_r
08059100 t __sprint_r
0805ce70 T __subdf3
0805d800 T __subsf3
0805d758 T __truncdfsf2
0805f2dc T __udivdi3
0805cd38 T __udivsi3
0805c094 T __ulp
00000000 A __use_no_semihosting_swi
0805ccdc T _calloc_r
0805a89c T _dtoa_r
0807b6d4 T _exit
0805b7cc T _free_r
0807b6d4 T _getpid
0805f77c T _getpid_r
20000508 D _impure_ptr
0805f698 T _init_signal
0805f660 T _init_signal_r
0807b6d4 T _kill
0805f788 T _kill_r
0805b984 T _localeconv_r
0805b9fc T _malloc_r
0805b728 T _malloc_trim_r
0805c1e4 T _mprec_log10
0805f5ec T _raise_r
0805c950 T _realloc_r
0807b6d4 T _sbrk
0805cca4 T _sbrk_r
0805b99c T _setlocale_r
0805f71c T _signal_r
         U _start
08059234 T _svfprintf_r
08059078 T _vsnprintf_r
0805f5dc T abort
08053c78 T acos
20006cf4 B adcBuffer
200074c4 B adcBufferCounter
20006cdc B adcChannel
20006ce0 B adcNumSamples
20006ce4 B adcTicks
08053d40 T asin
08053168 T atan
08053e08 T atan2
080695f0 t atanhi
08069610 t atanlo
20006cf0 B batchModeADC
08069a40 t blanks.3587
080696d0 t bp
08058c24 T bsearch
08061ea4 T c_CLR_RT_DataTypeLookup
080624f0 T c_CLR_RT_LogicalOpcodeLookup
080623cc T c_CLR_RT_OpcodeLookup
08061420 T c_CLR_radians
0805fe98 T c_Debugger_Lookup_Reply
0805fea4 T c_Debugger_Lookup_Reply_count
0805fcd0 T c_Debugger_Lookup_Request
0805fea0 T c_Debugger_Lookup_Request_count
080534b0 T ceil
08069ab0 t charset
08058c08 T copysign
080535f8 T cos
08053e18 T cosh
0800de50 T debug_printf
080696f0 t dp_h
080696e0 t dp_l
20001010 B errno
08053ef0 T exp
08058600 T expm1
080536b0 T fabs
08058ab8 T finite
080536c8 T floor
08054000 T fmod
20006ce8 B gAdcCSharpBuffer
20007688 B gHalTimerManagerObject
0806958c T g_CLR_AssemblyNative_ADC
0806937c T g_CLR_AssemblyNative_CSMACallback
08068808 T g_CLR_AssemblyNative_Microsoft_SPOT_EventSink_DriverProcs
080687f0 T g_CLR_AssemblyNative_Microsoft_SPOT_Hardware
08068d2c T g_CLR_AssemblyNative_Microsoft_SPOT_Hardware_PWM
08068e74 T g_CLR_AssemblyNative_Microsoft_SPOT_Hardware_SerialPort
08068eb8 T g_CLR_AssemblyNative_Microsoft_SPOT_Hardware_UsartError
08068e94 T g_CLR_AssemblyNative_Microsoft_SPOT_Hardware_UsartEvent
08069084 T g_CLR_AssemblyNative_Microsoft_SPOT_Hardware_Usb
08068528 T g_CLR_AssemblyNative_Microsoft_SPOT_Native
08069360 T g_CLR_AssemblyNative_RadioCallback_802_15_4
08069254 T g_CLR_AssemblyNative_RealTimeInteropTimer
08069230 T g_CLR_AssemblyNative_RealTimeTimer
08069508 T g_CLR_AssemblyNative_Samraksh_SPOT_Hardware
0806933c T g_CLR_AssemblyNative_Samraksh_SPOT_Net
08067464 T g_CLR_AssemblyNative_mscorlib
20002a44 B g_CLR_DBG_Debuggers
20002950 B g_CLR_HW_Hardware
200004ac D g_CLR_InteropAssembliesNativeData
20000f10 B g_CLR_Messaging
20002714 B g_CLR_RT_EventCache
200022c8 B g_CLR_RT_ExecutionEngine
20002908 B g_CLR_RT_GarbageCollector
20002a48 B g_CLR_RT_Persistence_Manager
20002604 B g_CLR_RT_TypeSystem
200025fc B g_CLR_RT_WellKnownMethods
20002488 B g_CLR_RT_WellKnownTypes
20002b40 B g_CLR_RT_fBadStack
0809e000 R g_ConfigurationSector
200002d8 D g_DebuggerPortSslConfig
20000fd4 B g_Event_Callback
20000fd8 B g_Event_Callback_Arg
20000fe0 B g_Events_BoolTimerCompletion
200019bc B g_HAL_Completion_List
200019c8 B g_HAL_Continuation_List
200019f4 B g_I2C_Driver
2000a51c B g_LCD_PCF85162_Driver
20002148 B g_TimeDriver
20001f78 B g_Time_Driver
20001f88 B g_Timer_Driver
20002278 B g_Watchdog_Driver
20006cc8 B g_adcContext
200022c0 B g_buildCRC
20001068 B g_fDoNotUninitializeDebuggerPort
200022b0 B g_palEventDriver
20002988 B g_scratchDebugger
20002990 B g_scratchDebuggerMessaging
20005578 B g_scratchInlineBuffer
20005e7c B g_scratchInterruptDispatchingStorage
20000e5c B g_scratchMessaging
20003d74 B g_scratchVirtualMethodPayload
20002b64 B g_scratchVirtualMethodTableLink
2000356c B g_scratchVirtualMethodTableLinkMRU
20007bd8 B gcsmaMacObject
0805e388 t get_eit_entry
2000a508 B glcdObject
20001a08 B gpinIsr
20007500 B grf231Radio
080696b0 t halF
20000510 d impure_data
08069888 t init_jk
20006a90 B interrupt
200074fc B irq_handler
200003d4 D isErased
0800dec4 T lcd_printf
08069ab4 t lconv
08069690 t ln2HI
080696a0 t ln2LO
0805b990 T localeconv
080540e8 T log
080541f8 T log10
08058ad4 T matherr
0805befc T memchr
08058c90 T memcmp
08058ce8 T memcpy
08058dec T memmove
08058e8c T memset
08053854 T modf
00000000 a nFDPROT
00000000 a nFEPROT
00000000 a nFPROT0
00000000 a nFPROT1
00000000 a nFPROT2
00000000 a nFPROT3
08058ad8 T nan
0805ebac t next_unwind_byte
08069700 t npio2_hw
08069bc0 t p05.2435
20001a04 B pinState
08054308 T pow
08027ad0 T private_free
08027ab0 T private_malloc
0805a748 t quorem
200074f1 B radio_hal_CCAMode
200074e0 B radio_hal_CurrentChannel
200074e8 B radio_hal_CurrentPage
200074d8 B radio_hal_IeeeAddress
200074ee B radio_hal_MaxBE
200074d0 B radio_hal_MaxCSMABackoffs
200074ea B radio_hal_MaxFrameDuration
200074ef B radio_hal_MaxFrameRetries
200074d1 B radio_hal_MinBE
200074d2 B radio_hal_PANId
200074f4 B radio_hal_PrivatePanCoordinator
200074ec B radio_hal_SHRDuration
200074d4 B radio_hal_ShortAddress
200074e4 B radio_hal_SupportedChannels
200074ed B radio_hal_SymbolsPerOctet
200074f0 B radio_hal_TransmitPower
200074f8 B radio_hal_state
200074f9 B radio_hal_trx_status
0805f648 T raise
08054738 T remainder
0805ea00 T restore_core_regs
0805e450 t restore_non_core_regs
080538f4 T rint
20002b34 B s_CLR_RT_Heap
20002b44 B s_CLR_RT_fTrace_AssemblyOverhead
20000484 D s_CLR_RT_fTrace_Errors
20000488 D s_CLR_RT_fTrace_Exceptions
2000048c D s_CLR_RT_fTrace_MemoryStats
200004a0 D s_TickMask
20000498 D s_UTCMask
08058ae8 T scalbn
0805e020 t search_EIT_table
0805e00c t selfrel_offset31
0805b9e0 T setlocale
0805f75c T signal
08053a48 T sin
08054800 T sinh
080548f8 T sqrt
08058f1c T strchr
08058ff0 T strcmp
08059004 T strcpy
0805cccc T strlen
08059014 T strncpy
08053b08 T tan
08053b80 T tanh
2000a500 B test
08069780 t two_over_pi
0805ec04 t unwind_UCB_from_context
0805e674 t unwind_phase2
0805e554 t unwind_phase2_forced
080590d8 T vsnprintf
08069a50 t zeroes.3588
08088400 t .LC0
08080000 t .LC0
0807ff08 t .LC0
080891a0 t .LC0
08080c58 t .LC0
08080c70 t .LC0
08080cf8 t .LC0
08080ea0 t .LC0
08080ed0 t .LC0
08081198 t .LC0
080811b8 t .LC0
080812e8 t .LC0
08081330 t .LC0
08080d38 t .LC0
080813b8 t .LC0
080814c0 t .LC0
0807fac0 t .LC0
0807f7c8 t .LC0
0807f768 t .LC0
0807f774 t .LC1
08081334 t .LC1
080812fc t .LC1
080811d8 t .LC1
08080eb0 t .LC1
08080d04 t .LC1
08080c60 t .LC1
0807f7d8 t .LC1
08087420 t .LC1
08080004 t .LC1
08080d4c t .LC1
080814c8 t .LC1
0807fae4 t .LC1
080884e4 t .LC1
0807f958 t .LC10
080815c4 t .LC10
08087464 t .LC10
08080054 t .LC10
08080de0 t .LC10
08080754 t .LC100
0808076c t .LC101
08080780 t .LC102
08080798 t .LC103
08081614 t .LC11
0808746c t .LC11
0807f978 t .LC11
08080058 t .LC11
08080dec t .LC11
0808163c t .LC12
08080e10 t .LC12
0807f994 t .LC12
0808005c t .LC12
08087474 t .LC12
0808164c t .LC13
0807f9c8 t .LC13
0808748c t .LC13
08080060 t .LC13
08080e34 t .LC13
08080064 t .LC14
08080e4c t .LC14
0807f9ec t .LC14
08081660 t .LC14
08081684 t .LC15
0807f9fc t .LC15
08080068 t .LC15
08080e64 t .LC15
0808006c t .LC16
0807fa08 t .LC16
08080e74 t .LC16
080816a4 t .LC16
08080e88 t .LC17
08080070 t .LC17
080816c4 t .LC17
080816d8 t .LC18
08080074 t .LC18
08080080 t .LC19
080816f4 t .LC19
08081204 t .LC2
08080d60 t .LC2
080884ec t .LC2
08081338 t .LC2
080814e8 t .LC2
0807fb04 t .LC2
08087424 t .LC2
08080d14 t .LC2
08080008 t .LC2
0807f7ec t .LC2
08081700 t .LC20
0808008c t .LC20
08080098 t .LC21
08081718 t .LC21
08081738 t .LC22
080800a4 t .LC22
080800b0 t .LC23
08081760 t .LC23
080800bc t .LC24
08081790 t .LC24
080817c0 t .LC25
080800d0 t .LC25
080817f0 t .LC26
080800e0 t .LC26
08081820 t .LC27
080800f4 t .LC27
08081850 t .LC28
080800fc t .LC28
08081880 t .LC29
08080108 t .LC29
08080d20 t .LC3
0808122c t .LC3
08081340 t .LC3
08080010 t .LC3
08081534 t .LC3
0807f838 t .LC3
08080d78 t .LC3
0807fb18 t .LC3
0808742c t .LC3
080818b0 t .LC30
08080114 t .LC30
080818b4 t .LC31
08080120 t .LC31
080818e4 t .LC32
0808012c t .LC32
08081914 t .LC33
0808013c t .LC33
08081944 t .LC34
08080150 t .LC34
08081974 t .LC35
08080168 t .LC35
08080178 t .LC36
08081998 t .LC36
080819bc t .LC37
0808018c t .LC37
080801a0 t .LC38
080819e0 t .LC38
080801a4 t .LC39
08081a04 t .LC39
08080018 t .LC4
0807fb28 t .LC4
0808126c t .LC4
08081348 t .LC4
0807f884 t .LC4
08080d94 t .LC4
08081564 t .LC4
08087434 t .LC4
080801b8 t .LC40
08081a0c t .LC40
08081a28 t .LC41
080801cc t .LC41
080801d0 t .LC42
08081a50 t .LC42
080801e8 t .LC43
08081a70 t .LC43
08081a8c t .LC44
080801f4 t .LC44
08081aac t .LC45
08080208 t .LC45
08080234 t .LC46
08081ad4 t .LC46
08081af4 t .LC47
08080260 t .LC47
08081b18 t .LC48
0808027c t .LC48
08081b24 t .LC49
0808029c t .LC49
0807f8d0 t .LC5
08080034 t .LC5
080812ac t .LC5
0808743c t .LC5
08081350 t .LC5
08081578 t .LC5
0807fb64 t .LC5
08080da0 t .LC5
080802b4 t .LC50
08081b3c t .LC50
08081b7c t .LC51
080802cc t .LC51
08081bac t .LC52
080802e4 t .LC52
08080300 t .LC53
08081bcc t .LC53
08080324 t .LC54
08081bd0 t .LC54
08081bd4 t .LC55
08080338 t .LC55
08080350 t .LC56
08081bd8 t .LC56
08080368 t .LC57
08081bdc t .LC57
08080380 t .LC58
08080394 t .LC59
08081580 t .LC6
08080dac t .LC6
0807fbac t .LC6
0808003c t .LC6
0807f904 t .LC6
08087444 t .LC6
080803ac t .LC60
080803c0 t .LC61
080803d4 t .LC62
080803f4 t .LC63
08080414 t .LC64
0808042c t .LC65
08080438 t .LC66
08080450 t .LC67
08080468 t .LC68
08080490 t .LC69
0807f914 t .LC7
0808744c t .LC7
08080dc8 t .LC7
0807fbb8 t .LC7
08080044 t .LC7
08081588 t .LC7
080804a8 t .LC70
080804cc t .LC71
080804e0 t .LC72
080804f4 t .LC73
08080500 t .LC74
0808051c t .LC75
08080538 t .LC76
08080550 t .LC77
08080560 t .LC78
08080578 t .LC79
0807f938 t .LC8
0808158c t .LC8
08080dcc t .LC8
08087454 t .LC8
0808004c t .LC8
08080594 t .LC80
080805a8 t .LC81
080805c0 t .LC82
080805d0 t .LC83
080805e8 t .LC84
08080600 t .LC85
0808061c t .LC86
08080634 t .LC87
08080648 t .LC88
08080664 t .LC89
0808745c t .LC9
08080dd4 t .LC9
0807f948 t .LC9
08080050 t .LC9
080815a0 t .LC9
08080680 t .LC90
0808069c t .LC91
080806b8 t .LC92
080806cc t .LC93
080806e0 t .LC94
080806f4 t .LC95
0808070c t .LC96
0808071c t .LC97
08080728 t .LC98
0808073c t .LC99
0803572c T ADC1_2_IRQHandler
080360cc T ADC3_IRQHandler
0806ee28 T ADCCallback
2000033c d ADCPrescTable
0806f858 T ADC_Cmd
0806f908 T ADC_GetCalibrationStatus
0806fb48 T ADC_GetConversionValue
0806f8b0 T ADC_GetResetCalibrationStatus
0806f798 T ADC_Init
200004f8 D ADC_MODULE
0806f978 T ADC_RegularChannelConfig
0806f890 T ADC_ResetCalibration
0806f940 T ADC_SoftwareStartConvCmd
0806f8e8 T ADC_StartCalibration
2000032c d APBAHBPrescTable
08020000 T ARM_Vectors
00000000 a BUILD_RTM
00000000 a BUILD_RTM
00000000 a BUILD_RTM
00000000 a BUILD_RTM
00000000 a BUILD_RTM
000000aa a BackDoorK0
00000055 a BackDoorK1
00000011 a BackDoorK2
00000088 a BackDoorK3
000000ff a BackDoorK4
000000ff a BackDoorK5
000000ff a BackDoorK6
000000ff a BackDoorK7
0802dc80 T BootEntry
f1e0f85f a BootRAM
0809b698 T Boot_Vectors
0802b80c T BootstrapCode
08035834 T CAN1_RX1_IRQHandler
0803588c T CAN1_SCE_IRQHandler
00000001 a COMPILE_THUMB2
00000001 a COMPILE_THUMB2
00000001 a COMPILE_THUMB2
00000001 a COMPILE_THUMB2
00000001 a COMPILE_THUMB2
200002f8 D COM_RX_PORT
200002f0 D COM_TX_PORT
200002e8 D COM_USART
20006b08 B CSMAInteropBuffer
080354c4 T DMA1_Channel1_IRQHandler
0803551c T DMA1_Channel2_IRQHandler
08035574 T DMA1_Channel3_IRQHandler
080355cc T DMA1_Channel4_IRQHandler
08035624 T DMA1_Channel5_IRQHandler
0803567c T DMA1_Channel6_IRQHandler
080356d4 T DMA1_Channel7_IRQHandler
080363e4 T DMA2_Channel1_IRQHandler
0803643c T DMA2_Channel2_IRQHandler
08036494 T DMA2_Channel3_IRQHandler
080364ec T DMA2_Channel4_5_IRQHandler
0806fdcc T DefaultRadioInterruptHandler
0806fd98 T DefaultRecieveHandler
0806fdb0 T DefaultSendAckHandler
08032b08 T Default_EXTI_Handler
08035178 T Default_Handler
200004f4 D EMOTE_ADC_CHANNEL
08036544 T EXTI0_IRQHandler
08032aac T EXTI0_IRQ_HANDLER
08035e64 T EXTI15_10_IRQHandler
08032cf4 T EXTI15_10_IRQ_Handler
08035364 T EXTI1_IRQHandler
08032a54 T EXTI1_IRQ_HANDLER
080353bc T EXTI2_IRQHandler
08032b1c T EXTI2_IRQ_HANDLER
08035414 T EXTI3_IRQHandler
08032b4c T EXTI3_IRQ_HANDLER
0803546c T EXTI4_IRQHandler
08032b7c T EXTI4_IRQ_HANDLER
080358e4 T EXTI9_5_IRQHandler
08032bd4 T EXTI9_5_IRQ_HANDLER
2000042c D EXTILines
08036830 T EXTI_ClearITPendingBit
080367d4 T EXTI_GetITStatus
08036688 T EXTI_Init
080201f8 T EntryPoint
000000ff a FDPROT
000000ff a FEPROT
0803529c T FLASH_IRQHandler
0802b820 T FLASH_PrefetchBufferCmd
0802b864 T FLASH_Unlock
000000ff a FOPT
000000ff a FPROT0
000000ff a FPROT1
000000ff a FPROT2
000000ff a FPROT3
000000fe a FSEC
08036124 T FSMC_IRQHandler
080369c4 T FSMC_NORSRAMCmd
08036850 T FSMC_NORSRAMInit
08028ac0 T Fault_Handler_Display
20001930 B FriendlyNameString
0802bc70 T GPIO_EXTILineConfig
0802b8b8 T GPIO_Init
20001d88 B GPIO_Instances
20000410 D GPIO_PORT_ARRAY
0802bb4c T GPIO_PinRemapConfig
0802baa4 T GPIO_ReadInputDataBit
0802bae0 T GPIO_ReadOutputDataBit
20001f48 B GPIO_Reserve
0802ba78 T GPIO_StructInit
0802bb1c T GPIO_WriteBit
20002140 B HALTimerHandlerFPN
0802ab60 T HAL_Time_CurrentTicks
08028b30 T HARD_Breakpoint
08028b40 T HARD_Breakpoint_Handler
08080ce0 T HalName
20000304 D HalSystemConfig
20001880 B Hal_Usart_State
08035080 T HardFault_Handler
08035ba4 T I2C1_ER_IRQHandler
08035b4c T I2C1_EV_IRQHandler
08035c54 T I2C2_ER_IRQHandler
08035bfc T I2C2_EV_IRQHandler
080730a4 T I2C_CheckEvent
08072f78 T I2C_Cmd
08072fc0 T I2C_GenerateSTART
08073008 T I2C_GenerateSTOP
08072db4 T I2C_Init
0807306c T I2C_Send7bitAddress
08073050 T I2C_SendData
0007b688 A Image$$ER_FLASH$$Length
20000000 N Image$$ER_RAM_RO$$Base
00000000 A Image$$ER_RAM_RO$$Length
20000000 D Image$$ER_RAM_RW$$Base
0000a564 A Image$$ER_RAM_RW$$Length
20000d50 B Image$$ER_RAM_RW$$ZI$$Base
00009814 A Image$$ER_RAM_RW$$ZI$$Length
2000c000 a InitStackTop
2000c000 a Initial_spTop
0802c940 T LED_ORANGE_OFF
20001020 B LOAD_IMAGE_CalcCRC
2000101c B LOAD_IMAGE_Length
20001018 B LOAD_IMAGE_Start
08020000 T Load$$ER_FLASH$$Base
0809b870 A Load$$ER_RAM_RO$$Base
0809b870 A Load$$ER_RAM_RW$$Base
200002d0 D MF_NODE_ID
20006acc B ManagedTimerDueTimeMicroSeconds
20006ac8 B ManagedTimerPeriodMicroSeconds
20006ad0 B ManagedTimerTicks
08034c3c T NOR_Init
0806c6d8 t NVIC_EnableIRQ
08038490 T NVIC_PriorityGroupConfig
0806c710 t NVIC_SetPriority
0806c680 t NVIC_SetPriorityGrouping
080384b8 T NVIC_SetVectorTable
0802a930 t NVIC_SystemReset
2000100c B OEM_Model_SKU
08089848 t PIo2
00000001 a PLATFORM_ARM_EmoteDotNow
00000001 a PLATFORM_ARM_EmoteDotNow
00000001 a PLATFORM_ARM_EmoteDotNow
00000001 a PLATFORM_ARM_EmoteDotNow
00000001 a PLATFORM_ARM_EmoteDotNow
00000001 a PLATFORM_ARM_STM32F10x
00000001 a PLATFORM_ARM_STM32F10x
00000001 a PLATFORM_ARM_STM32F10x
00000001 a PLATFORM_ARM_STM32F10x
00000001 a PLATFORM_ARM_STM32F10x
08035188 T PVD_IRQHandler
08020328 T PrepareImageRegions
0809b688 T Prot_Bytes
0802c004 T RCC_ADCCLKConfig
0802c210 T RCC_AHBPeriphClockCmd
0802c2c0 T RCC_APB1PeriphClockCmd
0802c370 T RCC_APB1PeriphResetCmd
0802c268 T RCC_APB2PeriphClockCmd
0802c318 T RCC_APB2PeriphResetCmd
0802bd28 T RCC_DeInit
0802c048 T RCC_GetClocksFreq
0802c3c8 T RCC_GetFlagStatus
0802bf18 T RCC_GetSYSCLKSource
0802bf34 T RCC_HCLKConfig
0802bdc4 T RCC_HSEConfig
0802be48 T RCC_HSICmd
08035300 T RCC_IRQHandler
0802bf78 T RCC_PCLK1Config
0802bfbc T RCC_PCLK2Config
0802beb4 T RCC_PLLCmd
0802be68 T RCC_PLLConfig
0802bed4 T RCC_SYSCLKConfig
08035ebc T RTCAlarm_IRQHandler
08035244 T RTC_IRQHandler
08070bc8 T Radio_Handler
20006ad8 B RealTimeCount
20006ac2 B RealTimeTimerTicks
200019b4 B RequestPacket
20006ae2 B RollOver
20006ae0 B RollOverCount
20006ac4 B RollOverTicks
20001480 B RxBuffer_Com
0803617c T SDIO_IRQHandler
08035cac T SPI1_IRQHandler
08035d04 T SPI2_IRQHandler
0803622c T SPI3_IRQHandler
08036b48 T SPI_Cmd
08036a1c T SPI_I2S_DeInit
08036c10 T SPI_I2S_GetFlagStatus
08036bac T SPI_I2S_ReceiveData
08036b90 T SPI_I2S_SendData
08036aa4 T SPI_Init
20001f58 B SPI_InitStructure
20001f70 B SPI_Initialized
08036bc8 T SPI_SSOutputCmd
20001f6c B SPI_mod
20000370 D STM32F10x_BlockDeviceInfo_ExternalFlash_NOR
20000344 D STM32F10x_BlockDeviceInfo_InternalFlash
200019e4 B STM32F10x_BlockStorageDevice_ExternalFlash_NOR
200019d4 B STM32F10x_BlockStorageDevice_InternalFlash
200003d8 D STM32F10x_IBlockStorageDevice_ExternalFlash_NOR
2000039c D STM32F10x_IBlockStorageDevice_InternalFlash
2000038c D STM32F10x_blConfig_ExternalFlash_NOR
20000360 D STM32F10x_blConfig_InternalFlash
20006ac0 B SingleShot
0809e90c R StackTop
20000fd0 B SystemEvents
0802dee8 T SystemState_ClearNoLock
0802df34 T SystemState_QueryNoLock
0802de9c T SystemState_SetNoLock
2000106c B SystemStates
080351ec T TAMPER_IRQHandler
00000001 a TARGETLOCATION_FLASH
00000001 a TARGETLOCATION_FLASH
00000001 a TARGETLOCATION_FLASH
00000001 a TARGETLOCATION_FLASH
00000001 a TARGETLOCATION_FLASH
0803593c T TIM1_BRK_IRQHandler
08035a44 T TIM1_CC_IRQHandler
080359ec T TIM1_TRG_COM_IRQHandler
08035994 T TIM1_UP_IRQHandler
0803659c T TIM2_IRQHandler
08035a9c T TIM3_IRQHandler
08035af4 T TIM4_IRQHandler
080361d4 T TIM5_IRQHandler
08036334 T TIM6_IRQHandler
0803638c T TIM7_IRQHandler
08035f6c T TIM8_BRK_IRQHandler
08036074 T TIM8_CC_IRQHandler
0803601c T TIM8_TRG_COM_IRQHandler
08035fc4 T TIM8_UP_IRQHandler
08037324 T TIM_ClearFlag
080373ac T TIM_ClearITPendingBit
08037160 T TIM_Cmd
08036c50 T TIM_DeInit
080371f4 T TIM_GenerateEvent
080372c8 T TIM_GetCounter
080372e4 T TIM_GetFlagStatus
08037348 T TIM_GetITStatus
080371a8 T TIM_ITConfig
08037020 T TIM_OC1Init
08037210 T TIM_OC1PreloadConfig
0803724c T TIM_SelectOnePulseMode
080372ac T TIM_SetCompare1
08037290 T TIM_SetCounter
08036f00 T TIM_TimeBaseInit
080895e0 t TWO52
0809b684 T TinyClr_Dat_End
08089bd0 T TinyClr_Dat_Start
20001080 B TxBuffer_Com
08036284 T UART4_IRQHandler
080362dc T UART5_IRQHandler
0802b1c8 T USART1_Handler
08035d5c T USART1_IRQHandler
0802b368 T USART2_Handler
08035db4 T USART2_IRQHandler
08035e0c T USART3_IRQHandler
0802c6f8 T USART_Cmd
0802c458 T USART_DeInit
0802c834 T USART_GetFlagStatus
0802c874 T USART_GetITStatus
0802c744 T USART_ITConfig
0802c530 T USART_Init
0802c810 T USART_ReceiveData
0802c7ec T USART_SendData
08035f14 T USBWakeUp_IRQHandler
08035784 T USB_HP_CAN1_TX_IRQHandler
080357dc T USB_LP_CAN1_RX0_IRQHandler
08080ee8 T UsbDefaultConfiguration
08020430 T VectorRelocate
08089670 t Zero
0807c270 T _Balloc
0807bf38 T _Bfree
0807eb38 T _Unwind_Backtrace
0807e030 T _Unwind_Complete
0807e034 T _Unwind_DeleteException
0807eb14 T _Unwind_ForcedUnwind
0807e02c T _Unwind_GetCFA
0807eb94 T _Unwind_GetDataRelBase
0807eb9c t _Unwind_GetGR
0807df58 t _Unwind_GetGR
0807ebc0 T _Unwind_GetLanguageSpecificData
0807ebd4 T _Unwind_GetRegionStart
0807eb8c T _Unwind_GetTextRelBase
0807eaa8 T _Unwind_RaiseException
0807eacc T _Unwind_Resume
0807eaf0 T _Unwind_Resume_or_Rethrow
0807dfa0 t _Unwind_SetGR
0807df28 T _Unwind_VRS_Get
0807e724 T _Unwind_VRS_Pop
0807df70 T _Unwind_VRS_Set
0807df1c t _Unwind_decode_target2
08020b64 T _Z10ClrStartup12CLR_SETTINGS
0802a40c T _Z10Events_Getj
0802a3a4 T _Z10Events_Setj
08031804 T _Z10I2C_CancelP15I2C_HAL_XACTIONb
08034908 T _Z10Piezo_Tonejj
080338d4 T _Z10RCC_Configv
0806cd84 T _Z10RT_Disposev
0802dff0 T _Z10USART_ReadiPcj
0802cc30 T _Z10hal_printfPKcz
08033868 T _Z11GPIO_ConfigRK17SPI_CONFIGURATION
080322a0 T _Z11GPIO_GetPinj
080317e8 T _Z11I2C_EnqueueP15I2C_HAL_XACTION
0806edcc T _Z11ISR_adcProcP38CLR_RT_HeapBlock_NativeEventDispatcher
080338fc T _Z11NVIC_Configv
0802e014 T _Z11USART_Flushi
0802dfcc T _Z11USART_WriteiPKcj
0802cc88 T _Z11hal_fprintfiPKcz
0802d7c8 T _Z11hal_stricmpPKcS0_
0802cc5c T _Z11hal_vprintfPKcSt9__va_list
0802a46c T _Z12Events_Clearj
080322c4 T _Z12GPIO_GetPortj
0802a908 T _Z12HAL_AssertExv
0803162c T _Z12HeapLocationRPhRj
0802a6f0 T _Z12LCD_GetWidthv
0802b6e8 T _Z12LowLevelInitv
0802b604 T _Z12SOCKETS_ReadiPcj
0802d670 T _Z12hal_snprintfPcjPKcz
0802d6cc T _Z12hal_strcpy_sPcjPKc
0802d788 T _Z12hal_strlen_sPKc
0802ccb8 T _Z12hal_vfprintfiPKcSt9__va_list
0806cab8 T _Z13AD_ADChannelsv
0806c76c T _Z13AD_Initialize14ANALOG_CHANNELi
080314c8 T _Z13BackLight_Setj
0806fbac T _Z13DA_DAChannelsv
0806fb64 T _Z13DA_Initialize10DA_CHANNELi
080315c8 T _Z13FS_AddVolumesv
080315d4 T _Z13FS_Initializev
0802a700 T _Z13LCD_GetHeightv
08063668 T _Z13LinkArraySizev
0802a794 T _Z13MFUpdate_Openi
0802b620 T _Z13SOCKETS_Flushi
0802b5e8 T _Z13SOCKETS_WriteiPKcj
0802f354 T _Z13USB_ConfigureiPK25USB_DYNAMIC_CONFIGURATION
0802f470 T _Z13USB_GetStatusi
0802d724 T _Z13hal_strncpy_sPcjPKcj
0802d6a4 T _Z13hal_vsnprintfPcjPKcSt9__va_list
080385b8 W _Z14CLR_DataFromTkj
0803bef4 T _Z14CLR_SoftRebootv
080385f0 W _Z14CLR_TkFromType14CLR_TABLESENUMj
080385d4 W _Z14CLR_TypeFromTkj
0802a960 T _Z14CPU_Initializev
0806fe1c T _Z14CPU_Radio_SendhPvt
08032e4c T _Z14CPU_SPI_Enablev
080314fc T _Z14Charger_StatusRj
0802db10 T _Z14HAL_Initializev
080317c8 T _Z14I2C_Initializev
08031c50 T _Z14Ink_Initializev
0802a6bc T _Z14LCD_Initializev
0806fd04 T _Z14MAC_InitializeP15MacEventHandlerPhhPv
0806fc00 T _Z14PWM_Initialize11PWM_CHANNEL
08033708 T _Z14SPI_StructInitRK17SPI_CONFIGURATION
08047998 T _Z14SetResult_INT8R17CLR_RT_StackFramea
0802f450 T _Z14USB_ClearEventij
08030314 T _Z14USB_FindRecordP20USB_CONTROLLER_STATEhP16USB_SETUP_PACKET
0802f338 T _Z14USB_Initializei
0802f3ac T _Z14USB_OpenStreamiii
0806c9f8 T _Z15AD_Uninitialize14ANALOG_CHANNEL
08031550 T _Z15Battery_VoltageRi
0802732c T _Z15CLR_SafeSprintfRPcRjPKcz
08032f44 T _Z15CPU_SPI_GetPinsjRjS_S_
0802a9ec T _Z15CPU_SystemClockv
0802aa14 T _Z15CPU_TicksToTimey
08055e78 T _Z15CompareResourcePKvS0_
0806fb80 T _Z15DA_Uninitialize10DA_CHANNEL
08032308 T _Z15GPIO_GetPortPtrj
0806ccec T _Z15InitializeTimerv
0802a7ac T _Z15MFUpdate_Createi
0806fcc0 T _Z15PWM_PWMChannelsv
080479bc T _Z15SetResult_INT32R17CLR_RT_StackFramei
080479dc T _Z15SetResult_UINT8R17CLR_RT_StackFrameh
0802ca48 T _Z15Time_GetUtcTimev
0802ca18 T _Z15Time_Initializev
0802ca64 T _Z15Time_SetUtcTimexb
0802f3d0 T _Z15USB_CloseStreami
0802f48c T _Z15USB_DiscardDataij
0802c958 T _Z15Watchdog_EnablejPFvPvES_
080272b8 T _Z16CLR_SafeSprintfVRPcRjPKcSt9__va_list
080387c8 W _Z16CLR_TkFromStreamRPKh
08033008 T _Z16CPU_SPI_ReadByteRK17SPI_CONFIGURATION
0802c998 T _Z16CPU_USB_GetStatei
0802c9fc T _Z16CPU_USB_RxEnableP20USB_CONTROLLER_STATEi
0802a678 T _Z16FreeManagedEventhhtj
080323d0 T _Z16GPIO_GetCallBackj
080322e0 T _Z16GPIO_GetExtiLinej
0802a2ac T _Z16GetHalSystemInfoR13HalSystemInfo
080720d0 T _Z16HALTimerCallbackPv
0802dbc8 T _Z16HAL_Uninitializev
080317d8 T _Z16I2C_Uninitializev
08031c60 T _Z16Ink_Uninitializev
080636a8 T _Z16InterruptRecordsv
0802a6cc T _Z16LCD_Uninitializev
08063678 T _Z16LinkMRUArraySizev
0802a81c T _Z16MFUpdate_InstalliPhi
0806fc1c T _Z16PWM_Uninitialize11PWM_CHANNEL
08063688 T _Z16PayloadArraySizev
080348f0 T _Z16Piezo_Initializev
08065fa8 T _Z16PostManagedEventhhtj
08047a00 T _Z16SetResult_UINT16R17CLR_RT_StackFramet
08047a24 T _Z16SetResult_doubleR17CLR_RT_StackFramed
0802cb3c T _Z16Time_DaysInMonthiiPi
0802df80 T _Z16USART_Initializeiiiiii
0802f390 T _Z16USB_Uninitializei
0802c974 T _Z16Watchdog_Disablev
08071024 T _Z16csmaMacSchedulerPv
0803bf18 T _Z17CLR_DebuggerBreakv
08032fac T _Z17CPU_SPI_WriteByteRK17SPI_CONFIGURATIONh
0802b13c T _Z17CPU_USART_GetPinsiRjS_S_S_
08029e28 T _Z17DebuggerPort_ReadiPcj
0802a364 T _Z17Events_Initializev
0802a4b4 T _Z17Events_MaskedReadj
08032330 T _Z17GPIO_GetIRQNumberj
0806d1f0 T _Z17GenerateInterruptRi
08063698 T _Z17InlineBufferCountv
0802a800 T _Z17MFUpdate_ValidateiPhi
0806fd74 T _Z17Mac_GetBufferSizeh
0802ca98 T _Z17Time_GetLocalTimev
0802cae8 T _Z17Time_ToSystemTimexP10SYSTEMTIME
0802ca30 T _Z17Time_Uninitializev
0806cd58 T _Z17UnInitializeTimerv
0802c980 T _Z17Watchdog_ResetCpuv
08031530 T _Z18Battery_Initializev
08029b88 T _Z18Buttons_Initializev
080386ec W _Z18CLR_UncompressDataRPKh
08032dd0 T _Z18CPU_SPI_Initializev
08032f9c T _Z18CPU_SPI_PortsCountv
0802aa00 T _Z18CPU_TicksPerSecondv
0802c9b0 T _Z18CPU_USB_Initializei
080314dc T _Z18Charger_Initializev
08034c14 T _Z18CustomHeapLocationRPhRj
08029eac T _Z18DebuggerPort_Flushi
08029d08 T _Z18DebuggerPort_WriteiPKcj
0803160c T _Z18Gesture_Initializev
0806d228 T _Z18ISR_PendSV_HandlerPv
0806d244 T _Z18ISR_REALTIME_TIMERPv
0802a720 T _Z18LCD_GetOrientationv
0802a7e0 T _Z18MFUpdate_AddPacketiiPhiS_i
0802b598 T _Z18Network_Initializev
080348fc T _Z18Piezo_Uninitializev
0802b5b8 T _Z18SOCKETS_Initializei
0802b664 T _Z18SOCKETS_IsUsingSsli
08027cdc T _Z18SUPPORT_ComputeCRCPKvij
0806d618 T _Z18SetResult_UNST_RawR17CLR_RT_StackFrameP16CLR_RT_HeapBlockhh
08034980 T _Z18SimpleHeap_ReleasePv
0802dfb0 T _Z18USART_Uninitializei
0806fcec T _Z18VirtualKey_GetPinsj
08070fa0 T _Z18csmaRecieveHandlerPvt
08070fcc T _Z18csmaSendAckHandlerPvt11NetOpStatus
0802cdc8 T _Z18hal_snprintf_floatPcjPKcf
0806cac8 T _Z19AD_GetPinForChannel14ANALOG_CHANNEL
08031570 T _Z19Battery_TemperatureRi
080325e0 T _Z19CPU_GPIO_Attributesj
080329b0 T _Z19CPU_GPIO_GetPinsMapPhj
0803248c T _Z19CPU_GPIO_Initializev
080328d0 T _Z19CPU_GPIO_ReservePinjj
0802b67c T _Z19CPU_INTC_Initializev
0802c9e0 T _Z19CPU_USB_StartOutputP20USB_CONTROLLER_STATEi
0806fbbc T _Z19DA_GetPinForChannel10DA_CHANNEL
0802a624 T _Z19Events_SetBoolTimerPjj
0802a38c T _Z19Events_Uninitializev
0802d8c4 T _Z19HAL_EnterBooterModev
0802ab50 T _Z19HAL_Time_Initializev
0802abac T _Z19HAL_Time_SetComparey
0802a710 T _Z19LCD_GetBitsPerPixelv
0802a73c T _Z19MFUpdate_InitUpdatePKcR14MFUpdateHeader
0802a730 T _Z19MFUpdate_Initializev
0806dab4 T _Z19ManagedCSMACallbackPvt
080348d0 T _Z19PalEvent_Initializev
08034af4 T _Z19SimpleHeap_Allocatej
0802cb68 T _Z19Time_AccDaysInMonthiiPi
0802cb14 T _Z19Time_FromSystemTimePK10SYSTEMTIME
0802cacc T _Z19Time_GetMachineTimev
0802e080 T _Z19USART_BytesInBufferij
0802e074 T _Z19USART_CloseAllPortsv
0802e0a0 T _Z19USART_DiscardBufferij
0802cbc4 T _Z19Utility_SafeSprintfRPcRjPKcz
0802d1d0 T _Z19hal_snprintf_doublePcjPKcd
080314ac T _Z20BackLight_Initializev
08031540 T _Z20Battery_Uninitializev
08029b98 T _Z20Buttons_Uninitializev
0802a96c T _Z20CPU_ChangePowerLevel11POWER_LEVEL
08032974 T _Z20CPU_GPIO_GetDebouncev
080329a0 T _Z20CPU_GPIO_GetPinCountv
08032804 T _Z20CPU_GPIO_GetPinStatej
08032984 T _Z20CPU_GPIO_SetDebouncex
0803287c T _Z20CPU_GPIO_SetPinStatejj
0806fde4 T _Z20CPU_Radio_InitializeP17RadioEventHandlerPhhh
08032dfc T _Z20CPU_SPI_Uninitializev
080333f0 T _Z20CPU_SPI_Xaction_StopRK17SPI_CONFIGURATION
08033ec8 T _Z20CPU_TIMER_InitializejjjjPFvPvES_
08033f40 T _Z20CPU_TIMER_SetComparejj
0802adc0 T _Z20CPU_USART_Initializeiiiiii
0802b12c T _Z20CPU_USART_PortsCountv
0802c9c8 T _Z20CPU_USB_Uninitializei
080314ec T _Z20Charger_Uninitializev
08020d50 W _Z20Events_WaitForEventsjj
0802a4d8 T _Z20Events_WaitForEventsjjj
0803161c T _Z20Gesture_Uninitializev
0802d884 W _Z20HAL_Init_Custom_Heapv
0802ab98 T _Z20HAL_Time_CurrentTimev
0802ab74 T _Z20HAL_Time_TicksToTimey
08037444 T _Z20I2C_Internal_GetPinsRjS_
08031870 T _Z20I2C_XAction_SetStateP15I2C_HAL_XACTIONh
080478ac T _Z20Interop_Marshal_INT8RK17CLR_RT_StackFramejRa
0802a758 T _Z20MFUpdate_AuthCommandijPhiS_Ri
0802b5a8 T _Z20Network_Uninitializev
0806fcd0 T _Z20PWM_GetPinForChannel11PWM_CHANNEL
0802b5d0 T _Z20SOCKETS_Uninitializei
0802b644 T _Z20SOCKETS_UpgradeToSsliPKhjS0_jPKc
0806cc6c T _Z20SSL_ParseCertificatePKcjS0_P13_X509CertData
0802f374 T _Z20USB_GetConfigurationi
0802cb94 T _Z20Utility_SafeSprintfVRPcRjPKcSt9__va_list
0806cb0c T _Z21ADC_RCC_Configurationv
080203a4 T _Z21ApplicationEntryPointv
080315b8 T _Z21Battery_Configurationv
08031598 T _Z21Battery_StateOfChargeRh
08032514 T _Z21CPU_GPIO_Uninitializev
08033124 T _Z21CPU_SPI_ReadWriteByteRK17SPI_CONFIGURATIONh
08033088 T _Z21CPU_SPI_WriteReadByteRK17SPI_CONFIGURATIONh
0803331c T _Z21CPU_SPI_Xaction_StartRK17SPI_CONFIGURATION
08047c6c T _Z21GetAssemblyNativeDataPKc
0802db88 T _Z21HAL_UnReserveAllGpiosv
080478e0 T _Z21Interop_Marshal_INT32RK17CLR_RT_StackFramejRi
08047810 T _Z21Interop_Marshal_UINT8RK17CLR_RT_StackFramejRh
0802a778 T _Z21MFUpdate_AuthenticateiPhi
080348e0 T _Z21PalEvent_Uninitializev
08034924 T _Z21SimpleHeap_InitializePvj
08030470 T _Z21UsbConfigurationCheckPK25USB_DYNAMIC_CONFIGURATION
0802c98c T _Z21Watchdog_ResetCounterv
0806cb80 T _Z22ADC_GPIO_Configurationv
0806cb34 T _Z22ADC_NVIC_Configurationv
080314bc T _Z22BackLight_Uninitializev
0803326c T _Z22CPU_SPI_nWrite8_nRead8RK17SPI_CONFIGURATIONPhiS2_ii
0802aea0 T _Z22CPU_USART_Uninitializei
0803151c T _Z22Charger_SetTemperatures
080318f0 T _Z22I2C_XActionUnit_IsReadP20I2C_HAL_XACTION_UNIT
08031890 T _Z22I2C_XAction_CheckStateP15I2C_HAL_XACTIONh
08047844 T _Z22Interop_Marshal_UINT16RK17CLR_RT_StackFramejRt
08047878 T _Z22Interop_Marshal_UINT32RK17CLR_RT_StackFramejRj
0802a6dc T _Z22LCD_WriteFormattedCharh
0806fc38 T _Z22PWM_ApplyConfiguration11PWM_CHANNELjRjS0_R16PWM_SCALE_FACTORj
0803814c T _Z22TimeService_Initializev
0802cab4 T _Z22Time_GetTimeZoneOffsetv
0802e0bc T _Z22USART_ConnectEventSinkiiPvPFvS_jEPS_
0802f328 T _Z22USB_GetControllerCountv
08030ae0 T _Z22Watchdog_GetSetEnabledjj
08030b00 T _Z22Watchdog_GetSetTimeoutij
08030b44 T _Z22Watchdog_LastOccurenceRxS_RjS0_j
08031464 T _Z23BlockStorage_AddDevicesv
08038638 W _Z23CLR_UncompressTypeTokenj
08032660 T _Z23CPU_GPIO_EnableInputPinjjPFvjjPvE13GPIO_INT_EDGE13GPIO_RESISTOR
0802ab2c T _Z23CPU_MicrosecondsToTicksj
0802aaf0 T _Z23CPU_MicrosecondsToTicksy
0802aa6c T _Z23CPU_MillisecondsToTicksj
0802aee0 T _Z23CPU_USART_TxBufferEmptyi
0806d778 T _Z23Cleanup_CSMA_MAC_DriverP38CLR_RT_HeapBlock_NativeEventDispatcher
08029ba8 T _Z23DebuggerPort_Initializei
0802a028 T _Z23DebuggerPort_IsUsingSsli
0806d1cc T _Z23GeneratePendSVInterruptv
08033f84 T _Z23HALTimerHardwareHandlerPv
080373e8 T _Z23I2C_Internal_Initializev
0806d66c T _Z23SetResult_UNST_NeighborR17CLR_RT_StackFrameP16CLR_RT_HeapBlock
080203e8 T _Z23Solution_GetReleaseInfoR13MfReleaseInfo
0802cc04 T _Z23Time_TimeSpanToStringExRKxRPcRj
0802e030 T _Z23USART_AddCharToRxBufferic
08030b20 T _Z23Watchdog_GetSetBehavior17Watchdog_Behaviorj
08038674 W _Z24CLR_UncompressFieldTokenj
08032690 T _Z24CPU_GPIO_EnableInputPin2jjPFvjjPvES_13GPIO_INT_EDGE13GPIO_RESISTOR
080325f8 T _Z24CPU_GPIO_EnableOutputPinjj
080373d0 T _Z24CPU_GetUncachableAddressj
080331bc T _Z24CPU_SPI_nWrite16_nRead16RK17SPI_CONFIGURATIONPtiS2_ii
08037420 T _Z24I2C_Internal_XActionStopv
0802b638 T _Z24SOCKETS_CloseConnectionsv
0803815c T _Z24TimeService_UnInitializev
0803bed0 T _Z25CLR_RetrieveCurrentMethodRjS_
080387a4 W _Z25CLR_UncompressElementTypeRPKh
080386b0 W _Z25CLR_UncompressMethodTokenj
08038618 W _Z25CLR_UncompressStringTokenj
0802a9dc T _Z25CPU_IsSoftRebootSupportedv
08029c8c T _Z25DebuggerPort_Uninitializei
08029f50 T _Z25DebuggerPort_UpgradeToSslij
08031824 T _Z25I2C_InitializeTransactionP15I2C_HAL_XACTIONR22I2C_USER_CONFIGURATIONPP20I2C_HAL_XACTION_UNITj
0803742c T _Z25I2C_Internal_GetClockRatejRhS_
080373f8 T _Z25I2C_Internal_Uninitializev
08037408 T _Z25I2C_Internal_XActionStartP15I2C_HAL_XACTIONb
0806213c T _Z25SaveNativeEventToHALQueueP38CLR_RT_HeapBlock_NativeEventDispatcherjj
08070ff8 T _Z25csmaRadioInterruptHandler14RadioInterruptPv
0802b688 T _Z26CPU_INTC_ActivateInterruptjPFvPvES_
080318d0 T _Z26I2C_XActionUnit_CopyBufferP20I2C_HAL_XACTION_UNITPhj
0806d724 T _Z26Initialize_CSMA_MAC_DriverP38CLR_RT_HeapBlock_NativeEventDispatchery
0802a7c4 T _Z26MFUpdate_GetMissingPacketsiPjPi
0806da84 T _Z26ManagedCSMASendAckCallbackPvt11NetOpStatus
0802a060 T _Z27CPU_InitializeCommunicationv
08029f18 T _Z27DebuggerPort_IsSslSupportedi
0802abc8 T _Z27HAL_Time_GetDriftParametersPiS_Px
0802abfc T _Z27HAL_Time_Sleep_MicroSecondsj
080318b4 T _Z27I2C_XAction_TransactedBytesP15I2C_HAL_XACTION
08047938 T _Z27Interop_Marshal_UINT8_ARRAYRK17CLR_RT_StackFramejR17CLR_RT_TypedArrayIhE
0806cc54 T _Z27LargeBuffer_ManagedToNativetPKhj
0806cc3c T _Z27LargeBuffer_NativeToManagedtPhj
0802b6b0 T _Z28CPU_INTC_DeactivateInterruptj
08047968 T _Z28Interop_Marshal_UINT16_ARRAYRK17CLR_RT_StackFramejR17CLR_RT_TypedArrayItE
0806d648 T _Z28SetResult_UNST_NeighborTableR17CLR_RT_StackFrameP16CLR_RT_HeapBlock
080576c4 W _Z28TINYCLR_READ_UNALIGNED_INT16IiEvRT_RPKh
0805716c W _Z28TINYCLR_READ_UNALIGNED_INT32IiEvRT_RPKh
08057214 W _Z28TINYCLR_READ_UNALIGNED_INT64IxEvRT_RPKh
0802e054 T _Z28USART_RemoveCharFromTxBufferiRc
0802b6cc T _Z29CPU_INTC_InterruptEnableStatej
0802b16c T _Z29CPU_USART_GetBaudrateBoundaryiRjS_
0802b194 T _Z29CPU_USART_IsBaudrateSupportediRj
0802af90 T _Z29CPU_USART_WriteCharToTxBufferih
0802a180 T _Z29CPU_UninitializeCommunicationv
0806d75c T _Z29EnableDisable_CSMA_MAC_DriverP38CLR_RT_HeapBlock_NativeEventDispatcherb
08031848 T _Z29I2C_InitializeTransactionUnitP20I2C_HAL_XACTION_UNITPhS1_jj
08056fe0 t _Z29Interop_Marshal_NUMERIC_ARRAYIhEiRK17CLR_RT_StackFramejRPT_Rjj
0805707c t _Z29Interop_Marshal_NUMERIC_ARRAYItEiRK17CLR_RT_StackFramejRPT_Rjj
0806e3f8 T _Z29ManagedRadioCallback_802_15_4Pvt
0805711c W _Z29TINYCLR_READ_UNALIGNED_UINT16IjEvRT_RPKh
08057430 W _Z29TINYCLR_READ_UNALIGNED_UINT32IjEvRT_RPKh
080574c4 W _Z29TINYCLR_READ_UNALIGNED_UINT64IyEvRT_RPKh
080335c0 T _Z30CPU_SPI_Xaction_nWrite8_nRead8R13SPI_XACTION_8
0802af38 T _Z30CPU_USART_TxShiftRegisterEmptyi
0806215c T _Z31CleanupNativeEventsFromHALQueueP38CLR_RT_HeapBlock_NativeEventDispatcher
0806cc20 T _Z31LargeBuffer_GetNativeBufferSizet
0806fe5c T _Z32CPU_Radio_ClearChannelAssesment2hj
0803345c T _Z32CPU_SPI_Xaction_nWrite16_nRead16R14SPI_XACTION_16
08047914 T _Z32Interop_Marshal_UNSUPPORTED_TYPERK17CLR_RT_StackFramejRP16CLR_RT_HeapBlock
0802b114 T _Z33CPU_USART_TxHandshakeEnabledStatei
080329fc T _Z34CPU_GPIO_GetSupportedResistorModesj
0806cae4 T _Z35AD_GetAvailablePrecisionsForChannel14ANALOG_CHANNELPiRj
08032a3c T _Z35CPU_GPIO_GetSupportedInterruptModesj
0806fbd8 T _Z35DA_GetAvailablePrecisionsForChannel10DA_CHANNELPiRj
0802b154 T _Z36CPU_USART_SupportNonStandardBaudRatei
0802b08c T _Z37CPU_USART_RxBufferFullInterruptEnableij
0802b034 T _Z37CPU_USART_TxBufferEmptyInterruptStatei
08047a44 T _Z37Interop_Marshal_RetrieveManagedObjectR17CLR_RT_StackFrame
0802afe0 T _Z38CPU_USART_TxBufferEmptyInterruptEnableij
0802ac14 T _Z44HAL_Time_Sleep_MicroSeconds_InterruptEnabledj
0806ca50 T _Z7AD_Read14ANALOG_CHANNEL
0802ac2c T _Z7COMInitiP17USART_InitTypeDef
0802a9c0 T _Z8CPU_Haltv
0806fb94 T _Z8DA_Write10DA_CHANNELi
0806fd38 T _Z8Mac_SendhthPvt
0806fc74 T _Z8PWM_Stop11PWM_CHANNELj
0806fca8 T _Z8PWM_StopP11PWM_CHANNELPjj
0802f410 T _Z8USB_ReadiPcj
0802a9cc T _Z9CPU_Resetv
0802a9a4 T _Z9CPU_Sleep11SLEEP_LEVELy
0806fc58 T _Z9PWM_Start11PWM_CHANNELj
0806fc8c T _Z9PWM_StartP11PWM_CHANNELPjj
0806cda4 T _Z9RT_Changejj
0802f434 T _Z9USB_Flushi
0802f3ec T _Z9USB_WriteiPKcj
08080cd4 t _ZL10COM_RX_PIN
08080cd0 t _ZL10COM_TX_PIN
08023610 t _ZL10FillValuesP16CLR_RT_HeapBlockRPN16CLR_DBG_Commands15Debugging_ValueEjS0_P23CLR_RT_TypeDef_Instance
08080858 t _ZL10c_CRCTable
20006ab8 b _ZL10g_UserData
08080cdc t _ZL11COM_CTS_PIN
08080cd8 t _ZL11COM_RTS_PIN
0802d8b8 t _ZL12InitCRuntimev
08020210 t _ZL12Prepare_CopyPjS_j
080202ac t _ZL12Prepare_ZeroPjj
08025464 t _ZL13Assign_HelperP16CLR_RT_HeapBlockS0_
08080cb8 t _ZL13COM_USART_CLK
080647e0 t _ZL13ComputeSinCosR17CLR_RT_StackFrameb
080883d4 t _ZL13c_WhiteSpaces
20006cd0 b _ZL13g_adcUserData
0808859c t _ZL13method_lookup
08088f24 t _ZL13method_lookup
0808753c t _ZL13method_lookup
08088874 t _ZL13method_lookup
080892c8 t _ZL13method_lookup
080893a0 t _ZL13method_lookup
08088d94 t _ZL13method_lookup
080894d0 t _ZL13method_lookup
080890ec t _ZL13method_lookup
20000d50 b _ZL13s_ClrSettings
20000d5c b _ZL13s_missingPkts
080825b0 t _ZL14CLR_EmptyIndex
08088e80 t _ZL14CLR_EmptyIndex
0807ff18 t _ZL14CLR_EmptyIndex
080884f8 t _ZL14CLR_EmptyIndex
080887d0 t _ZL14CLR_EmptyIndex
08088418 t _ZL14CLR_EmptyIndex
08089048 t _ZL14CLR_EmptyIndex
08088cf0 t _ZL14CLR_EmptyIndex
0807fa18 t _ZL14CLR_EmptyIndex
0807fe60 t _ZL14CLR_EmptyIndex
08087498 t _ZL14CLR_EmptyIndex
08089218 t _ZL14CLR_EmptyIndex
080807a8 t _ZL14CLR_EmptyIndex
0807fbc8 t _ZL14CLR_EmptyIndex
08089340 t _ZL14CLR_EmptyIndex
08089344 t _ZL14CLR_EmptyToken
0807fa1c t _ZL14CLR_EmptyToken
080807ac t _ZL14CLR_EmptyToken
0808841c t _ZL14CLR_EmptyToken
08088e84 t _ZL14CLR_EmptyToken
080887d4 t _ZL14CLR_EmptyToken
080825b4 t _ZL14CLR_EmptyToken
0807ff1c t _ZL14CLR_EmptyToken
08088cf4 t _ZL14CLR_EmptyToken
0808904c t _ZL14CLR_EmptyToken
0807fe64 t _ZL14CLR_EmptyToken
080884fc t _ZL14CLR_EmptyToken
0808749c t _ZL14CLR_EmptyToken
0808921c t _ZL14CLR_EmptyToken
0807fbcc t _ZL14CLR_EmptyToken
08080800 t _ZL14MAXHOSTNAMELEN
080874f0 t _ZL14MAXHOSTNAMELEN
08088550 t _ZL14MAXHOSTNAMELEN
0807feb8 t _ZL14MAXHOSTNAMELEN
08082608 t _ZL14MAXHOSTNAMELEN
08089270 t _ZL14MAXHOSTNAMELEN
08089398 t _ZL14MAXHOSTNAMELEN
08088470 t _ZL14MAXHOSTNAMELEN
08088ed8 t _ZL14MAXHOSTNAMELEN
0807fa70 t _ZL14MAXHOSTNAMELEN
08088828 t _ZL14MAXHOSTNAMELEN
08088d48 t _ZL14MAXHOSTNAMELEN
0807fc20 t _ZL14MAXHOSTNAMELEN
0807ff70 t _ZL14MAXHOSTNAMELEN
080890a0 t _ZL14MAXHOSTNAMELEN
08088d4c t _ZL14MAXTYPENAMELEN
0808260c t _ZL14MAXTYPENAMELEN
080890a4 t _ZL14MAXTYPENAMELEN
0807fa74 t _ZL14MAXTYPENAMELEN
08089274 t _ZL14MAXTYPENAMELEN
08080804 t _ZL14MAXTYPENAMELEN
0807fc24 t _ZL14MAXTYPENAMELEN
08088edc t _ZL14MAXTYPENAMELEN
0808939c t _ZL14MAXTYPENAMELEN
08088474 t _ZL14MAXTYPENAMELEN
08088554 t _ZL14MAXTYPENAMELEN
0807febc t _ZL14MAXTYPENAMELEN
0808882c t _ZL14MAXTYPENAMELEN
080874f4 t _ZL14MAXTYPENAMELEN
0807ff74 t _ZL14MAXTYPENAMELEN
0806a1d8 t _ZL14PostUsartEventPvj
080246a8 t _ZL14SetBlockHelperP16CLR_RT_HeapBlock12CLR_DataTypePh
08080ec8 t _ZL14XOFF_FLAG_FULL
08080cc8 t _ZL15COM_RX_PORT_CLK
08080cc0 t _ZL15COM_TX_PORT_CLK
20001014 b _ZL15LoggingCallback
08080ec9 t _ZL15XOFF_CLOCK_HALT
0807fff4 t _ZL15c_Messaging_app
0807ffec t _ZL15c_Messaging_phy
20001008 b _ZL15stm_power_state
0806ed8c t _ZL16CleanupADCDriverP38CLR_RT_HeapBlock_NativeEventDispatcher
0806605c t _ZL16CleanupEventSinkP38CLR_RT_HeapBlock_NativeEventDispatcher
08024640 t _ZL16IsBlockEnumMaybeP16CLR_RT_HeapBlock
08080850 t _ZL16MAX_SD_CARD_SIZE
08081100 t _ZL16MAX_SD_CARD_SIZE
08080e98 t _ZL16MAX_SD_CARD_SIZE
08089338 t _ZL16MAX_SD_CARD_SIZE
0807fa10 t _ZL16MAX_SD_CARD_SIZE
0807f7c0 t _ZL16MAX_SD_CARD_SIZE
080807a0 t _ZL16MAX_SD_CARD_SIZE
0807fe58 t _ZL16MAX_SD_CARD_SIZE
080810f8 t _ZL16MAX_SD_CARD_SIZE
08081170 t _ZL16MAX_SD_CARD_SIZE
08081328 t _ZL16MAX_SD_CARD_SIZE
08080cf0 t _ZL16MAX_SD_CARD_SIZE
08087490 t _ZL16MAX_SD_CARD_SIZE
080887c8 t _ZL16MAX_SD_CARD_SIZE
08080c68 t _ZL16MAX_SD_CARD_SIZE
08080cb0 t _ZL16MAX_SD_CARD_SIZE
080812d0 t _ZL16MAX_SD_CARD_SIZE
0807fbc0 t _ZL16MAX_SD_CARD_SIZE
080884f0 t _ZL16MAX_SD_CARD_SIZE
08080ca8 t _ZL16MAX_SD_CARD_SIZE
08089040 t _ZL16MAX_SD_CARD_SIZE
08088e78 t _ZL16MAX_SD_CARD_SIZE
08081378 t _ZL16MAX_SD_CARD_SIZE
080811b0 t _ZL16MAX_SD_CARD_SIZE
08080ee0 t _ZL16MAX_SD_CARD_SIZE
08089210 t _ZL16MAX_SD_CARD_SIZE
08080ec0 t _ZL16MAX_SD_CARD_SIZE
08089548 t _ZL16MAX_SD_CARD_SIZE
080813c8 t _ZL16MAX_SD_CARD_SIZE
0807ff10 t _ZL16MAX_SD_CARD_SIZE
08080d30 t _ZL16MAX_SD_CARD_SIZE
08088410 t _ZL16MAX_SD_CARD_SIZE
08088ce8 t _ZL16MAX_SD_CARD_SIZE
080825a8 t _ZL16MAX_SD_CARD_SIZE
080894c8 t _ZL16MAX_SD_CARD_SIZE
20002144 b _ZL16g_s_FirstCluster
20001028 b _ZL16s_rebootHandlers
0807fc70 t _ZL17AccessMemory_Read
08022c68 t _ZL17GetClrReleaseInfoRN16CLR_DBG_Commands40Debugging_Execution_QueryCLRCapabilities7ClrInfoE
0802b784 t _ZL17RCC_Configurationv
0808831c t _ZL17c_ExceptionLookup
08086f40 t _ZL17c_TypeIndexLookup
0807fc6c t _ZL18AccessMemory_Check
0807fc78 t _ZL18AccessMemory_Erase
0807fc74 t _ZL18AccessMemory_Write
08088478 t _ZL18c_CLR_HW_Button_Up
08088ee0 t _ZL18c_CLR_HW_Button_Up
080874f8 t _ZL18c_CLR_HW_Button_Up
0807fa78 t _ZL18c_CLR_HW_Button_Up
08082610 t _ZL18c_CLR_HW_Button_Up
08088830 t _ZL18c_CLR_HW_Button_Up
0807fec0 t _ZL18c_CLR_HW_Button_Up
080890a8 t _ZL18c_CLR_HW_Button_Up
08088d50 t _ZL18c_CLR_HW_Button_Up
08080808 t _ZL18c_CLR_HW_Button_Up
08088558 t _ZL18c_CLR_HW_Button_Up
08089278 t _ZL18c_CLR_HW_Button_Up
0807fc28 t _ZL18c_CLR_HW_Button_Up
0807ff78 t _ZL18c_CLR_HW_Button_Up
08054f3c t _ZL18local_FindFieldDefP15CLR_RT_AssemblyjjPKcS0_tR21CLR_RT_FieldDef_Index
20002b3c b _ZL18s_PreHeapInitIndex
0806ed2c t _ZL19InitializeADCDriverP38CLR_RT_HeapBlock_NativeEventDispatchery
08066018 t _ZL19InitializeEventSinkP38CLR_RT_HeapBlock_NativeEventDispatchery
080890e8 t _ZL19c_CLR_HW_Button_MAX
0807fab8 t _ZL19c_CLR_HW_Button_MAX
080892b8 t _ZL19c_CLR_HW_Button_MAX
0807fc68 t _ZL19c_CLR_HW_Button_MAX
08088f20 t _ZL19c_CLR_HW_Button_MAX
08080848 t _ZL19c_CLR_HW_Button_MAX
0807ff00 t _ZL19c_CLR_HW_Button_MAX
08088870 t _ZL19c_CLR_HW_Button_MAX
08087538 t _ZL19c_CLR_HW_Button_MAX
08082650 t _ZL19c_CLR_HW_Button_MAX
08088598 t _ZL19c_CLR_HW_Button_MAX
08088d90 t _ZL19c_CLR_HW_Button_MAX
0807ffb8 t _ZL19c_CLR_HW_Button_MAX
080884b8 t _ZL19c_CLR_HW_Button_MAX
0807fc10 t _ZL19c_CLR_RT_Trace_Info
0807fea8 t _ZL19c_CLR_RT_Trace_Info
08089090 t _ZL19c_CLR_RT_Trace_Info
0807fa60 t _ZL19c_CLR_RT_Trace_Info
08088818 t _ZL19c_CLR_RT_Trace_Info
08088ec8 t _ZL19c_CLR_RT_Trace_Info
08089388 t _ZL19c_CLR_RT_Trace_Info
08088460 t _ZL19c_CLR_RT_Trace_Info
08088540 t _ZL19c_CLR_RT_Trace_Info
080874e0 t _ZL19c_CLR_RT_Trace_Info
08089260 t _ZL19c_CLR_RT_Trace_Info
080825f8 t _ZL19c_CLR_RT_Trace_Info
08088d38 t _ZL19c_CLR_RT_Trace_Info
080807f0 t _ZL19c_CLR_RT_Trace_Info
0807ff60 t _ZL19c_CLR_RT_Trace_Info
08088d34 t _ZL19c_CLR_RT_Trace_None
080825f4 t _ZL19c_CLR_RT_Trace_None
0808908c t _ZL19c_CLR_RT_Trace_None
0808925c t _ZL19c_CLR_RT_Trace_None
0807fa5c t _ZL19c_CLR_RT_Trace_None
08088814 t _ZL19c_CLR_RT_Trace_None
0807fc0c t _ZL19c_CLR_RT_Trace_None
08089384 t _ZL19c_CLR_RT_Trace_None
080874dc t _ZL19c_CLR_RT_Trace_None
0807ff5c t _ZL19c_CLR_RT_Trace_None
0808853c t _ZL19c_CLR_RT_Trace_None
080807ec t _ZL19c_CLR_RT_Trace_None
0808845c t _ZL19c_CLR_RT_Trace_None
0807fea4 t _ZL19c_CLR_RT_Trace_None
08088ec4 t _ZL19c_CLR_RT_Trace_None
080873c4 t _ZL19c_MethodIndexLookup
0802530c t _ZL20AnalyzeObject_HelperP16CLR_RT_HeapBlockR13AnalyzeObject
08042a70 t _ZL20FixReflectionForTypeRK16CLR_RT_HeapBlockRS_
080247f4 t _ZL20GetScratchPad_Helperi
0808927c t _ZL20c_CLR_HW_Button_Down
0808847c t _ZL20c_CLR_HW_Button_Down
0807fc2c t _ZL20c_CLR_HW_Button_Down
080890ac t _ZL20c_CLR_HW_Button_Down
0807ff7c t _ZL20c_CLR_HW_Button_Down
08088ee4 t _ZL20c_CLR_HW_Button_Down
08088d54 t _ZL20c_CLR_HW_Button_Down
0808855c t _ZL20c_CLR_HW_Button_Down
080874fc t _ZL20c_CLR_HW_Button_Down
08082614 t _ZL20c_CLR_HW_Button_Down
08088834 t _ZL20c_CLR_HW_Button_Down
0807fa7c t _ZL20c_CLR_HW_Button_Down
0807fec4 t _ZL20c_CLR_HW_Button_Down
0808080c t _ZL20c_CLR_HW_Button_Down
080867e8 t _ZL20c_MARKER_ASSEMBLY_V1
0806a400 t _ZL21CleanupUsartErrorSinkP38CLR_RT_HeapBlock_NativeEventDispatcher
08042bf8 t _ZL21CompareValues_NumericRK16CLR_RT_HeapBlockS1_bi
08042af0 t _ZL21CompareValues_Numericii
08042b28 t _ZL21CompareValues_Numericjj
08042b60 t _ZL21CompareValues_Numericxx
08042bac t _ZL21CompareValues_Numericyy
0806d098 t _ZL21ISR_RealTimeTimerProcP38CLR_RT_HeapBlock_NativeEventDispatcher
0807fc30 t _ZL21c_CLR_HW_Button_Spare
08082618 t _ZL21c_CLR_HW_Button_Spare
08088560 t _ZL21c_CLR_HW_Button_Spare
08088480 t _ZL21c_CLR_HW_Button_Spare
08089280 t _ZL21c_CLR_HW_Button_Spare
080890b0 t _ZL21c_CLR_HW_Button_Spare
08088838 t _ZL21c_CLR_HW_Button_Spare
08080810 t _ZL21c_CLR_HW_Button_Spare
0807fec8 t _ZL21c_CLR_HW_Button_Spare
0807ff80 t _ZL21c_CLR_HW_Button_Spare
0807fa80 t _ZL21c_CLR_HW_Button_Spare
08087500 t _ZL21c_CLR_HW_Button_Spare
08088ee8 t _ZL21c_CLR_HW_Button_Spare
08088d58 t _ZL21c_CLR_HW_Button_Spare
08082658 t _ZL21c_MaximumTimeToActive
20006cd8 b _ZL21g_adcInterruptEnabled
08042d90 t _ZL22CompareValues_PointersPK16CLR_RT_HeapBlockS1_
0806ed64 t _ZL22EnableDisableADCDriverP38CLR_RT_HeapBlock_NativeEventDispatcherb
08066040 t _ZL22EnableDisableEventSinkP38CLR_RT_HeapBlock_NativeEventDispatcherb
0806be48 t _ZL22MarhalConfigDescriptorP16CLR_RT_HeapBlockRPh
08082628 t _ZL22c_CLR_HW_Button_Raw_B0
080890c0 t _ZL22c_CLR_HW_Button_Raw_B0
0807fc40 t _ZL22c_CLR_HW_Button_Raw_B0
08088848 t _ZL22c_CLR_HW_Button_Raw_B0
08080820 t _ZL22c_CLR_HW_Button_Raw_B0
08088490 t _ZL22c_CLR_HW_Button_Raw_B0
08088ef8 t _ZL22c_CLR_HW_Button_Raw_B0
08087510 t _ZL22c_CLR_HW_Button_Raw_B0
0807ff90 t _ZL22c_CLR_HW_Button_Raw_B0
08088570 t _ZL22c_CLR_HW_Button_Raw_B0
08089290 t _ZL22c_CLR_HW_Button_Raw_B0
08088d68 t _ZL22c_CLR_HW_Button_Raw_B0
0807fed8 t _ZL22c_CLR_HW_Button_Raw_B0
0807fa90 t _ZL22c_CLR_HW_Button_Raw_B0
0807fa94 t _ZL22c_CLR_HW_Button_Raw_B1
0808884c t _ZL22c_CLR_HW_Button_Raw_B1
08088d6c t _ZL22c_CLR_HW_Button_Raw_B1
0808262c t _ZL22c_CLR_HW_Button_Raw_B1
0807fedc t _ZL22c_CLR_HW_Button_Raw_B1
08080824 t _ZL22c_CLR_HW_Button_Raw_B1
08088efc t _ZL22c_CLR_HW_Button_Raw_B1
08087514 t _ZL22c_CLR_HW_Button_Raw_B1
0807fc44 t _ZL22c_CLR_HW_Button_Raw_B1
080890c4 t _ZL22c_CLR_HW_Button_Raw_B1
08089294 t _ZL22c_CLR_HW_Button_Raw_B1
08088574 t _ZL22c_CLR_HW_Button_Raw_B1
08088494 t _ZL22c_CLR_HW_Button_Raw_B1
0807ff94 t _ZL22c_CLR_HW_Button_Raw_B1
0807fee0 t _ZL22c_CLR_HW_Button_Raw_B2
0807ff98 t _ZL22c_CLR_HW_Button_Raw_B2
08088d70 t _ZL22c_CLR_HW_Button_Raw_B2
0807fc48 t _ZL22c_CLR_HW_Button_Raw_B2
0807fa98 t _ZL22c_CLR_HW_Button_Raw_B2
08087518 t _ZL22c_CLR_HW_Button_Raw_B2
08082630 t _ZL22c_CLR_HW_Button_Raw_B2
08088578 t _ZL22c_CLR_HW_Button_Raw_B2
08080828 t _ZL22c_CLR_HW_Button_Raw_B2
080890c8 t _ZL22c_CLR_HW_Button_Raw_B2
08088f00 t _ZL22c_CLR_HW_Button_Raw_B2
08088850 t _ZL22c_CLR_HW_Button_Raw_B2
08088498 t _ZL22c_CLR_HW_Button_Raw_B2
08089298 t _ZL22c_CLR_HW_Button_Raw_B2
08088d74 t _ZL22c_CLR_HW_Button_Raw_B3
080890cc t _ZL22c_CLR_HW_Button_Raw_B3
08088f04 t _ZL22c_CLR_HW_Button_Raw_B3
0808082c t _ZL22c_CLR_HW_Button_Raw_B3
0808857c t _ZL22c_CLR_HW_Button_Raw_B3
0808929c t _ZL22c_CLR_HW_Button_Raw_B3
0807fc4c t _ZL22c_CLR_HW_Button_Raw_B3
0808751c t _ZL22c_CLR_HW_Button_Raw_B3
0807fee4 t _ZL22c_CLR_HW_Button_Raw_B3
08082634 t _ZL22c_CLR_HW_Button_Raw_B3
0807fa9c t _ZL22c_CLR_HW_Button_Raw_B3
0808849c t _ZL22c_CLR_HW_Button_Raw_B3
08088854 t _ZL22c_CLR_HW_Button_Raw_B3
0807ff9c t _ZL22c_CLR_HW_Button_Raw_B3
08087520 t _ZL22c_CLR_HW_Button_Raw_B4
0807faa0 t _ZL22c_CLR_HW_Button_Raw_B4
08088858 t _ZL22c_CLR_HW_Button_Raw_B4
08088580 t _ZL22c_CLR_HW_Button_Raw_B4
0807fee8 t _ZL22c_CLR_HW_Button_Raw_B4
08088d78 t _ZL22c_CLR_HW_Button_Raw_B4
0807ffa0 t _ZL22c_CLR_HW_Button_Raw_B4
080884a0 t _ZL22c_CLR_HW_Button_Raw_B4
08082638 t _ZL22c_CLR_HW_Button_Raw_B4
0807fc50 t _ZL22c_CLR_HW_Button_Raw_B4
080892a0 t _ZL22c_CLR_HW_Button_Raw_B4
08088f08 t _ZL22c_CLR_HW_Button_Raw_B4
08080830 t _ZL22c_CLR_HW_Button_Raw_B4
080890d0 t _ZL22c_CLR_HW_Button_Raw_B4
0808263c t _ZL22c_CLR_HW_Button_Raw_B5
080892a4 t _ZL22c_CLR_HW_Button_Raw_B5
0807feec t _ZL22c_CLR_HW_Button_Raw_B5
08087524 t _ZL22c_CLR_HW_Button_Raw_B5
0808885c t _ZL22c_CLR_HW_Button_Raw_B5
0807ffa4 t _ZL22c_CLR_HW_Button_Raw_B5
080890d4 t _ZL22c_CLR_HW_Button_Raw_B5
080884a4 t _ZL22c_CLR_HW_Button_Raw_B5
08088584 t _ZL22c_CLR_HW_Button_Raw_B5
0807faa4 t _ZL22c_CLR_HW_Button_Raw_B5
08080834 t _ZL22c_CLR_HW_Button_Raw_B5
08088f0c t _ZL22c_CLR_HW_Button_Raw_B5
08088d7c t _ZL22c_CLR_HW_Button_Raw_B5
0807fc54 t _ZL22c_CLR_HW_Button_Raw_B5
08088f10 t _ZL22c_CLR_HW_Button_Raw_B6
0807ffa8 t _ZL22c_CLR_HW_Button_Raw_B6
080884a8 t _ZL22c_CLR_HW_Button_Raw_B6
08088860 t _ZL22c_CLR_HW_Button_Raw_B6
0807fc58 t _ZL22c_CLR_HW_Button_Raw_B6
08080838 t _ZL22c_CLR_HW_Button_Raw_B6
08088d80 t _ZL22c_CLR_HW_Button_Raw_B6
080892a8 t _ZL22c_CLR_HW_Button_Raw_B6
08082640 t _ZL22c_CLR_HW_Button_Raw_B6
08088588 t _ZL22c_CLR_HW_Button_Raw_B6
0807fef0 t _ZL22c_CLR_HW_Button_Raw_B6
080890d8 t _ZL22c_CLR_HW_Button_Raw_B6
08087528 t _ZL22c_CLR_HW_Button_Raw_B6
0807faa8 t _ZL22c_CLR_HW_Button_Raw_B6
08088d84 t _ZL22c_CLR_HW_Button_Raw_B7
080892ac t _ZL22c_CLR_HW_Button_Raw_B7
0808858c t _ZL22c_CLR_HW_Button_Raw_B7
08082644 t _ZL22c_CLR_HW_Button_Raw_B7
080890dc t _ZL22c_CLR_HW_Button_Raw_B7
080884ac t _ZL22c_CLR_HW_Button_Raw_B7
0807fef4 t _ZL22c_CLR_HW_Button_Raw_B7
0808752c t _ZL22c_CLR_HW_Button_Raw_B7
0808083c t _ZL22c_CLR_HW_Button_Raw_B7
08088f14 t _ZL22c_CLR_HW_Button_Raw_B7
08088864 t _ZL22c_CLR_HW_Button_Raw_B7
0807ffac t _ZL22c_CLR_HW_Button_Raw_B7
0807faac t _ZL22c_CLR_HW_Button_Raw_B7
0807fc5c t _ZL22c_CLR_HW_Button_Raw_B7
0807fef8 t _ZL22c_CLR_HW_Button_Raw_B8
08087530 t _ZL22c_CLR_HW_Button_Raw_B8
0807fc60 t _ZL22c_CLR_HW_Button_Raw_B8
08080840 t _ZL22c_CLR_HW_Button_Raw_B8
08088d88 t _ZL22c_CLR_HW_Button_Raw_B8
0807ffb0 t _ZL22c_CLR_HW_Button_Raw_B8
080892b0 t _ZL22c_CLR_HW_Button_Raw_B8
08088868 t _ZL22c_CLR_HW_Button_Raw_B8
08088f18 t _ZL22c_CLR_HW_Button_Raw_B8
08088590 t _ZL22c_CLR_HW_Button_Raw_B8
0807fab0 t _ZL22c_CLR_HW_Button_Raw_B8
08082648 t _ZL22c_CLR_HW_Button_Raw_B8
080890e0 t _ZL22c_CLR_HW_Button_Raw_B8
080884b0 t _ZL22c_CLR_HW_Button_Raw_B8
080890e4 t _ZL22c_CLR_HW_Button_Raw_B9
0807fc64 t _ZL22c_CLR_HW_Button_Raw_B9
08087534 t _ZL22c_CLR_HW_Button_Raw_B9
0807fab4 t _ZL22c_CLR_HW_Button_Raw_B9
0807fefc t _ZL22c_CLR_HW_Button_Raw_B9
08088f1c t _ZL22c_CLR_HW_Button_Raw_B9
0808886c t _ZL22c_CLR_HW_Button_Raw_B9
0807ffb4 t _ZL22c_CLR_HW_Button_Raw_B9
080892b4 t _ZL22c_CLR_HW_Button_Raw_B9
080884b4 t _ZL22c_CLR_HW_Button_Raw_B9
08088d8c t _ZL22c_CLR_HW_Button_Raw_B9
0808264c t _ZL22c_CLR_HW_Button_Raw_B9
08088594 t _ZL22c_CLR_HW_Button_Raw_B9
08080844 t _ZL22c_CLR_HW_Button_Raw_B9
08089284 t _ZL22c_CLR_HW_Button_Select
0807fecc t _ZL22c_CLR_HW_Button_Select
08087504 t _ZL22c_CLR_HW_Button_Select
08080814 t _ZL22c_CLR_HW_Button_Select
0808883c t _ZL22c_CLR_HW_Button_Select
080890b4 t _ZL22c_CLR_HW_Button_Select
0807fa84 t _ZL22c_CLR_HW_Button_Select
08088564 t _ZL22c_CLR_HW_Button_Select
0807fc34 t _ZL22c_CLR_HW_Button_Select
08088eec t _ZL22c_CLR_HW_Button_Select
08088484 t _ZL22c_CLR_HW_Button_Select
08088d5c t _ZL22c_CLR_HW_Button_Select
0808261c t _ZL22c_CLR_HW_Button_Select
0807ff84 t _ZL22c_CLR_HW_Button_Select
08089094 t _ZL22c_CLR_RT_Trace_Verbose
0808938c t _ZL22c_CLR_RT_Trace_Verbose
080807f4 t _ZL22c_CLR_RT_Trace_Verbose
0807fc14 t _ZL22c_CLR_RT_Trace_Verbose
08088464 t _ZL22c_CLR_RT_Trace_Verbose
0807feac t _ZL22c_CLR_RT_Trace_Verbose
0807ff64 t _ZL22c_CLR_RT_Trace_Verbose
0807fa64 t _ZL22c_CLR_RT_Trace_Verbose
08089264 t _ZL22c_CLR_RT_Trace_Verbose
08088ecc t _ZL22c_CLR_RT_Trace_Verbose
080874e4 t _ZL22c_CLR_RT_Trace_Verbose
0808881c t _ZL22c_CLR_RT_Trace_Verbose
080825fc t _ZL22c_CLR_RT_Trace_Verbose
08088d3c t _ZL22c_CLR_RT_Trace_Verbose
08088544 t _ZL22c_CLR_RT_Trace_Verbose
08082ecc t _ZL22c_CLR_StringTable_Data
08082660 t _ZL22c_CLR_StringTable_Size
20006a88 b _ZL22g_RealTimeTimerEnalbed
08081380 t _ZL23CummulativeDaysForMonth
08067acc t _ZL23HWPORT_GPIO_CheckPortIdbj
0807ff88 t _ZL23c_CLR_HW_Button_Channel
08087508 t _ZL23c_CLR_HW_Button_Channel
08088840 t _ZL23c_CLR_HW_Button_Channel
08088488 t _ZL23c_CLR_HW_Button_Channel
08088ef0 t _ZL23c_CLR_HW_Button_Channel
08080818 t _ZL23c_CLR_HW_Button_Channel
08088568 t _ZL23c_CLR_HW_Button_Channel
08082620 t _ZL23c_CLR_HW_Button_Channel
0807fed0 t _ZL23c_CLR_HW_Button_Channel
0807fc38 t _ZL23c_CLR_HW_Button_Channel
08088d60 t _ZL23c_CLR_HW_Button_Channel
0807fa88 t _ZL23c_CLR_HW_Button_Channel
08089288 t _ZL23c_CLR_HW_Button_Channel
080890b8 t _ZL23c_CLR_HW_Button_Channel
080874e8 t _ZL23c_CLR_RT_Trace_Annoying
08088820 t _ZL23c_CLR_RT_Trace_Annoying
0807fa68 t _ZL23c_CLR_RT_Trace_Annoying
08089390 t _ZL23c_CLR_RT_Trace_Annoying
080807f8 t _ZL23c_CLR_RT_Trace_Annoying
0807feb0 t _ZL23c_CLR_RT_Trace_Annoying
08088468 t _ZL23c_CLR_RT_Trace_Annoying
08089098 t _ZL23c_CLR_RT_Trace_Annoying
08082600 t _ZL23c_CLR_RT_Trace_Annoying
08088d40 t _ZL23c_CLR_RT_Trace_Annoying
08088548 t _ZL23c_CLR_RT_Trace_Annoying
08089268 t _ZL23c_CLR_RT_Trace_Annoying
0807ff68 t _ZL23c_CLR_RT_Trace_Annoying
0807fc18 t _ZL23c_CLR_RT_Trace_Annoying
08088ed0 t _ZL23c_CLR_RT_Trace_Annoying
20001024 b _ZL23g_Boot_RAMConstants_CRC
0806a338 t _ZL24InitializeUsartErrorSinkP38CLR_RT_HeapBlock_NativeEventDispatchery
0807fa6c t _ZL24c_CLR_RT_Trace_Obnoxious
0807fc1c t _ZL24c_CLR_RT_Trace_Obnoxious
08088d44 t _ZL24c_CLR_RT_Trace_Obnoxious
080874ec t _ZL24c_CLR_RT_Trace_Obnoxious
0807ff6c t _ZL24c_CLR_RT_Trace_Obnoxious
0808926c t _ZL24c_CLR_RT_Trace_Obnoxious
08088824 t _ZL24c_CLR_RT_Trace_Obnoxious
08089394 t _ZL24c_CLR_RT_Trace_Obnoxious
0807feb4 t _ZL24c_CLR_RT_Trace_Obnoxious
08088ed4 t _ZL24c_CLR_RT_Trace_Obnoxious
0808909c t _ZL24c_CLR_RT_Trace_Obnoxious
080807fc t _ZL24c_CLR_RT_Trace_Obnoxious
08082604 t _ZL24c_CLR_RT_Trace_Obnoxious
0808854c t _ZL24c_CLR_RT_Trace_Obnoxious
0808846c t _ZL24c_CLR_RT_Trace_Obnoxious
08082664 t _ZL24c_CLR_StringTable_Lookup
0807ffd4 t _ZL24c_Messaging_Lookup_Reply
08088804 t _ZL25CLR_MaxStreamSize_Strings
08088d24 t _ZL25CLR_MaxStreamSize_Strings
080825e4 t _ZL25CLR_MaxStreamSize_Strings
08088eb4 t _ZL25CLR_MaxStreamSize_Strings
0807fbfc t _ZL25CLR_MaxStreamSize_Strings
080807dc t _ZL25CLR_MaxStreamSize_Strings
0807ff4c t _ZL25CLR_MaxStreamSize_Strings
0807fe94 t _ZL25CLR_MaxStreamSize_Strings
0808907c t _ZL25CLR_MaxStreamSize_Strings
08089374 t _ZL25CLR_MaxStreamSize_Strings
0807fa4c t _ZL25CLR_MaxStreamSize_Strings
0808924c t _ZL25CLR_MaxStreamSize_Strings
0808844c t _ZL25CLR_MaxStreamSize_Strings
0808852c t _ZL25CLR_MaxStreamSize_Strings
080874cc t _ZL25CLR_MaxStreamSize_Strings
08088430 t _ZL25CLR_MaxStreamSize_TypeDef
080874b0 t _ZL25CLR_MaxStreamSize_TypeDef
080825c8 t _ZL25CLR_MaxStreamSize_TypeDef
0807ff30 t _ZL25CLR_MaxStreamSize_TypeDef
080887e8 t _ZL25CLR_MaxStreamSize_TypeDef
08088510 t _ZL25CLR_MaxStreamSize_TypeDef
0807fe78 t _ZL25CLR_MaxStreamSize_TypeDef
08089358 t _ZL25CLR_MaxStreamSize_TypeDef
08088d08 t _ZL25CLR_MaxStreamSize_TypeDef
0807fa30 t _ZL25CLR_MaxStreamSize_TypeDef
08088e98 t _ZL25CLR_MaxStreamSize_TypeDef
08089230 t _ZL25CLR_MaxStreamSize_TypeDef
0807fbe0 t _ZL25CLR_MaxStreamSize_TypeDef
08089060 t _ZL25CLR_MaxStreamSize_TypeDef
080807c0 t _ZL25CLR_MaxStreamSize_TypeDef
0807fe6c t _ZL25CLR_MaxStreamSize_TypeRef
0807ff24 t _ZL25CLR_MaxStreamSize_TypeRef
08088424 t _ZL25CLR_MaxStreamSize_TypeRef
080874a4 t _ZL25CLR_MaxStreamSize_TypeRef
08089054 t _ZL25CLR_MaxStreamSize_TypeRef
08088504 t _ZL25CLR_MaxStreamSize_TypeRef
0808934c t _ZL25CLR_MaxStreamSize_TypeRef
08088cfc t _ZL25CLR_MaxStreamSize_TypeRef
0807fbd4 t _ZL25CLR_MaxStreamSize_TypeRef
08088e8c t _ZL25CLR_MaxStreamSize_TypeRef
080887dc t _ZL25CLR_MaxStreamSize_TypeRef
0807fa24 t _ZL25CLR_MaxStreamSize_TypeRef
08089224 t _ZL25CLR_MaxStreamSize_TypeRef
080807b4 t _ZL25CLR_MaxStreamSize_TypeRef
080825bc t _ZL25CLR_MaxStreamSize_TypeRef
0806a2e0 t _ZL25CleanupUsartDataEventSinkP38CLR_RT_HeapBlock_NativeEventDispatcher
0806b58c t _ZL25UnmarshalConfigDescriptorP16CLR_RT_HeapBlockPK28USB_CONFIGURATION_DESCRIPTOR
08088d64 t _ZL25c_CLR_HW_Button_Backlight
0808928c t _ZL25c_CLR_HW_Button_Backlight
08088844 t _ZL25c_CLR_HW_Button_Backlight
0808081c t _ZL25c_CLR_HW_Button_Backlight
0807fed4 t _ZL25c_CLR_HW_Button_Backlight
08082624 t _ZL25c_CLR_HW_Button_Backlight
0807fa8c t _ZL25c_CLR_HW_Button_Backlight
08088ef4 t _ZL25c_CLR_HW_Button_Backlight
0808750c t _ZL25c_CLR_HW_Button_Backlight
0808856c t _ZL25c_CLR_HW_Button_Backlight
0808848c t _ZL25c_CLR_HW_Button_Backlight
0807ff8c t _ZL25c_CLR_HW_Button_Backlight
080890bc t _ZL25c_CLR_HW_Button_Backlight
0807fc3c t _ZL25c_CLR_HW_Button_Backlight
08089550 t _ZL25g_AdcInteropDriverMethods
0806ba94 t _ZL26AllocateConfigurationBytesP22CLR_RT_HeapBlock_ArrayP16CLR_RT_HeapBlock
0808937c t _ZL26CLR_MaxStreamSize_ByteCode
0807fe9c t _ZL26CLR_MaxStreamSize_ByteCode
08089254 t _ZL26CLR_MaxStreamSize_ByteCode
08088534 t _ZL26CLR_MaxStreamSize_ByteCode
0807fc04 t _ZL26CLR_MaxStreamSize_ByteCode
0807ff54 t _ZL26CLR_MaxStreamSize_ByteCode
080874d4 t _ZL26CLR_MaxStreamSize_ByteCode
08088ebc t _ZL26CLR_MaxStreamSize_ByteCode
08088d2c t _ZL26CLR_MaxStreamSize_ByteCode
080825ec t _ZL26CLR_MaxStreamSize_ByteCode
0808880c t _ZL26CLR_MaxStreamSize_ByteCode
080807e4 t _ZL26CLR_MaxStreamSize_ByteCode
0807fa54 t _ZL26CLR_MaxStreamSize_ByteCode
08088454 t _ZL26CLR_MaxStreamSize_ByteCode
08089084 t _ZL26CLR_MaxStreamSize_ByteCode
08089234 t _ZL26CLR_MaxStreamSize_FieldDef
080874b4 t _ZL26CLR_MaxStreamSize_FieldDef
0807fa34 t _ZL26CLR_MaxStreamSize_FieldDef
0808935c t _ZL26CLR_MaxStreamSize_FieldDef
08088514 t _ZL26CLR_MaxStreamSize_FieldDef
080825cc t _ZL26CLR_MaxStreamSize_FieldDef
080807c4 t _ZL26CLR_MaxStreamSize_FieldDef
0807fe7c t _ZL26CLR_MaxStreamSize_FieldDef
0807ff34 t _ZL26CLR_MaxStreamSize_FieldDef
08088d0c t _ZL26CLR_MaxStreamSize_FieldDef
0807fbe4 t _ZL26CLR_MaxStreamSize_FieldDef
08088e9c t _ZL26CLR_MaxStreamSize_FieldDef
08088434 t _ZL26CLR_MaxStreamSize_FieldDef
08089064 t _ZL26CLR_MaxStreamSize_FieldDef
080887ec t _ZL26CLR_MaxStreamSize_FieldDef
08088428 t _ZL26CLR_MaxStreamSize_FieldRef
0807fa28 t _ZL26CLR_MaxStreamSize_FieldRef
08089228 t _ZL26CLR_MaxStreamSize_FieldRef
08089350 t _ZL26CLR_MaxStreamSize_FieldRef
080807b8 t _ZL26CLR_MaxStreamSize_FieldRef
080874a8 t _ZL26CLR_MaxStreamSize_FieldRef
08089058 t _ZL26CLR_MaxStreamSize_FieldRef
08088d00 t _ZL26CLR_MaxStreamSize_FieldRef
0807fe70 t _ZL26CLR_MaxStreamSize_FieldRef
08088508 t _ZL26CLR_MaxStreamSize_FieldRef
0807ff28 t _ZL26CLR_MaxStreamSize_FieldRef
0807fbd8 t _ZL26CLR_MaxStreamSize_FieldRef
080887e0 t _ZL26CLR_MaxStreamSize_FieldRef
080825c0 t _ZL26CLR_MaxStreamSize_FieldRef
08088e90 t _ZL26CLR_MaxStreamSize_FieldRef
08089070 t _ZL26CLR_MaxStreamSize_TypeSpec
080887f8 t _ZL26CLR_MaxStreamSize_TypeSpec
08089368 t _ZL26CLR_MaxStreamSize_TypeSpec
080807d0 t _ZL26CLR_MaxStreamSize_TypeSpec
0807fe88 t _ZL26CLR_MaxStreamSize_TypeSpec
08088440 t _ZL26CLR_MaxStreamSize_TypeSpec
0807fa40 t _ZL26CLR_MaxStreamSize_TypeSpec
0807fbf0 t _ZL26CLR_MaxStreamSize_TypeSpec
08088d18 t _ZL26CLR_MaxStreamSize_TypeSpec
08089240 t _ZL26CLR_MaxStreamSize_TypeSpec
080825d8 t _ZL26CLR_MaxStreamSize_TypeSpec
08088ea8 t _ZL26CLR_MaxStreamSize_TypeSpec
0807ff40 t _ZL26CLR_MaxStreamSize_TypeSpec
08088520 t _ZL26CLR_MaxStreamSize_TypeSpec
080874c0 t _ZL26CLR_MaxStreamSize_TypeSpec
0806d058 t _ZL26CleanupRealTimeTimerDriverP38CLR_RT_HeapBlock_NativeEventDispatcher
0802a2c4 t _ZL26DebuggerPort_SSL_GetCACertPPhPj
0807ffbc t _ZL26c_Messaging_Lookup_Request
08089068 t _ZL27CLR_MaxStreamSize_MethodDef
08088518 t _ZL27CLR_MaxStreamSize_MethodDef
0807fe80 t _ZL27CLR_MaxStreamSize_MethodDef
080874b8 t _ZL27CLR_MaxStreamSize_MethodDef
080807c8 t _ZL27CLR_MaxStreamSize_MethodDef
0807fbe8 t _ZL27CLR_MaxStreamSize_MethodDef
08089238 t _ZL27CLR_MaxStreamSize_MethodDef
08088d10 t _ZL27CLR_MaxStreamSize_MethodDef
08088ea0 t _ZL27CLR_MaxStreamSize_MethodDef
080825d0 t _ZL27CLR_MaxStreamSize_MethodDef
08088438 t _ZL27CLR_MaxStreamSize_MethodDef
08089360 t _ZL27CLR_MaxStreamSize_MethodDef
080887f0 t _ZL27CLR_MaxStreamSize_MethodDef
0807ff38 t _ZL27CLR_MaxStreamSize_MethodDef
0807fa38 t _ZL27CLR_MaxStreamSize_MethodDef
08089354 t _ZL27CLR_MaxStreamSize_MethodRef
080807bc t _ZL27CLR_MaxStreamSize_MethodRef
0808922c t _ZL27CLR_MaxStreamSize_MethodRef
080874ac t _ZL27CLR_MaxStreamSize_MethodRef
08088d04 t _ZL27CLR_MaxStreamSize_MethodRef
0808850c t _ZL27CLR_MaxStreamSize_MethodRef
08088e94 t _ZL27CLR_MaxStreamSize_MethodRef
0807fa2c t _ZL27CLR_MaxStreamSize_MethodRef
0808905c t _ZL27CLR_MaxStreamSize_MethodRef
0808842c t _ZL27CLR_MaxStreamSize_MethodRef
0807fbdc t _ZL27CLR_MaxStreamSize_MethodRef
080825c4 t _ZL27CLR_MaxStreamSize_MethodRef
080887e4 t _ZL27CLR_MaxStreamSize_MethodRef
0807ff2c t _ZL27CLR_MaxStreamSize_MethodRef
0807fe74 t _ZL27CLR_MaxStreamSize_MethodRef
08088524 t _ZL27CLR_MaxStreamSize_Resources
0808936c t _ZL27CLR_MaxStreamSize_Resources
0807fbf4 t _ZL27CLR_MaxStreamSize_Resources
0807fe8c t _ZL27CLR_MaxStreamSize_Resources
08088eac t _ZL27CLR_MaxStreamSize_Resources
080825dc t _ZL27CLR_MaxStreamSize_Resources
080874c4 t _ZL27CLR_MaxStreamSize_Resources
0807ff44 t _ZL27CLR_MaxStreamSize_Resources
08088444 t _ZL27CLR_MaxStreamSize_Resources
08089074 t _ZL27CLR_MaxStreamSize_Resources
080807d4 t _ZL27CLR_MaxStreamSize_Resources
0807fa44 t _ZL27CLR_MaxStreamSize_Resources
080887fc t _ZL27CLR_MaxStreamSize_Resources
08089244 t _ZL27CLR_MaxStreamSize_Resources
08088d1c t _ZL27CLR_MaxStreamSize_Resources
0806a39c t _ZL27EnableDisableUsartErrorSinkP38CLR_RT_HeapBlock_NativeEventDispatcherb
0808923c t _ZL28CLR_MaxStreamSize_Attributes
0808906c t _ZL28CLR_MaxStreamSize_Attributes
0807ff3c t _ZL28CLR_MaxStreamSize_Attributes
0808851c t _ZL28CLR_MaxStreamSize_Attributes
0807fbec t _ZL28CLR_MaxStreamSize_Attributes
0807fa3c t _ZL28CLR_MaxStreamSize_Attributes
080887f4 t _ZL28CLR_MaxStreamSize_Attributes
080874bc t _ZL28CLR_MaxStreamSize_Attributes
0807fe84 t _ZL28CLR_MaxStreamSize_Attributes
08089364 t _ZL28CLR_MaxStreamSize_Attributes
08088ea4 t _ZL28CLR_MaxStreamSize_Attributes
080825d4 t _ZL28CLR_MaxStreamSize_Attributes
0808843c t _ZL28CLR_MaxStreamSize_Attributes
08088d14 t _ZL28CLR_MaxStreamSize_Attributes
080807cc t _ZL28CLR_MaxStreamSize_Attributes
08088d28 t _ZL28CLR_MaxStreamSize_Signatures
08088450 t _ZL28CLR_MaxStreamSize_Signatures
080874d0 t _ZL28CLR_MaxStreamSize_Signatures
08088eb8 t _ZL28CLR_MaxStreamSize_Signatures
0807fc00 t _ZL28CLR_MaxStreamSize_Signatures
0807ff50 t _ZL28CLR_MaxStreamSize_Signatures
0807fa50 t _ZL28CLR_MaxStreamSize_Signatures
080807e0 t _ZL28CLR_MaxStreamSize_Signatures
08089080 t _ZL28CLR_MaxStreamSize_Signatures
08089378 t _ZL28CLR_MaxStreamSize_Signatures
08088530 t _ZL28CLR_MaxStreamSize_Signatures
08089250 t _ZL28CLR_MaxStreamSize_Signatures
08088808 t _ZL28CLR_MaxStreamSize_Signatures
080825e8 t _ZL28CLR_MaxStreamSize_Signatures
0807fe98 t _ZL28CLR_MaxStreamSize_Signatures
0806a218 t _ZL28InitializeUsartDataEventSinkP38CLR_RT_HeapBlock_NativeEventDispatchery
08089494 t _ZL28g_CLR_CSMA_MAC_DriverMethods
08089050 t _ZL29CLR_MaxStreamSize_AssemblyRef
080887d8 t _ZL29CLR_MaxStreamSize_AssemblyRef
08088e88 t _ZL29CLR_MaxStreamSize_AssemblyRef
08088500 t _ZL29CLR_MaxStreamSize_AssemblyRef
08089220 t _ZL29CLR_MaxStreamSize_AssemblyRef
08088cf8 t _ZL29CLR_MaxStreamSize_AssemblyRef
0807fa20 t _ZL29CLR_MaxStreamSize_AssemblyRef
0807fbd0 t _ZL29CLR_MaxStreamSize_AssemblyRef
0807fe68 t _ZL29CLR_MaxStreamSize_AssemblyRef
080807b0 t _ZL29CLR_MaxStreamSize_AssemblyRef
0807ff20 t _ZL29CLR_MaxStreamSize_AssemblyRef
080825b8 t _ZL29CLR_MaxStreamSize_AssemblyRef
08088420 t _ZL29CLR_MaxStreamSize_AssemblyRef
08089348 t _ZL29CLR_MaxStreamSize_AssemblyRef
080874a0 t _ZL29CLR_MaxStreamSize_AssemblyRef
0806d6e4 t _ZL29Cleanup_Radio_802_15_4_DriverP38CLR_RT_HeapBlock_NativeEventDispatcher
0806cefc t _ZL29InitializeRealTimeTimerDriverP38CLR_RT_HeapBlock_NativeEventDispatchery
0802a310 t _ZL30DebuggerPort_SSL_GetDeviceCertPPhPj
0802a2f0 t _ZL30DebuggerPort_SSL_GetTargetHostPPKc
08023c84 t _ZL30Debugging_Thread_Create_HelperR22CLR_RT_MethodDef_IndexRP13CLR_RT_Threadj
08047be4 t _ZL30LookUpAssemblyNativeDataByNamePPK25CLR_RT_NativeAssemblyDataPKc
08088528 t _ZL31CLR_MaxStreamSize_ResourcesData
080874c8 t _ZL31CLR_MaxStreamSize_ResourcesData
08089078 t _ZL31CLR_MaxStreamSize_ResourcesData
08088448 t _ZL31CLR_MaxStreamSize_ResourcesData
08089370 t _ZL31CLR_MaxStreamSize_ResourcesData
0807fe90 t _ZL31CLR_MaxStreamSize_ResourcesData
080807d8 t _ZL31CLR_MaxStreamSize_ResourcesData
08088d20 t _ZL31CLR_MaxStreamSize_ResourcesData
08089248 t _ZL31CLR_MaxStreamSize_ResourcesData
0807fa48 t _ZL31CLR_MaxStreamSize_ResourcesData
08088eb0 t _ZL31CLR_MaxStreamSize_ResourcesData
0807ff48 t _ZL31CLR_MaxStreamSize_ResourcesData
080825e0 t _ZL31CLR_MaxStreamSize_ResourcesData
08088800 t _ZL31CLR_MaxStreamSize_ResourcesData
0807fbf8 t _ZL31CLR_MaxStreamSize_ResourcesData
0806a27c t _ZL31EnableDisableUsartDataEventSinkP38CLR_RT_HeapBlock_NativeEventDispatcherb
08088810 t _ZL32CLR_MaxStreamSize_ResourcesFiles
08089258 t _ZL32CLR_MaxStreamSize_ResourcesFiles
08089380 t _ZL32CLR_MaxStreamSize_ResourcesFiles
08088458 t _ZL32CLR_MaxStreamSize_ResourcesFiles
0807fa58 t _ZL32CLR_MaxStreamSize_ResourcesFiles
08088ec0 t _ZL32CLR_MaxStreamSize_ResourcesFiles
0807fea0 t _ZL32CLR_MaxStreamSize_ResourcesFiles
08089088 t _ZL32CLR_MaxStreamSize_ResourcesFiles
080825f0 t _ZL32CLR_MaxStreamSize_ResourcesFiles
080874d8 t _ZL32CLR_MaxStreamSize_ResourcesFiles
08088538 t _ZL32CLR_MaxStreamSize_ResourcesFiles
080807e8 t _ZL32CLR_MaxStreamSize_ResourcesFiles
08088d30 t _ZL32CLR_MaxStreamSize_ResourcesFiles
0807fc08 t _ZL32CLR_MaxStreamSize_ResourcesFiles
0807ff58 t _ZL32CLR_MaxStreamSize_ResourcesFiles
0806d024 t _ZL32EnableDisableRealTimeTimerDriverP38CLR_RT_HeapBlock_NativeEventDispatcherb
0806d690 t _ZL32Initialize_Radio_802_15_4_DriverP38CLR_RT_HeapBlock_NativeEventDispatchery
08081108 t _ZL34STM32F10x_BlockRange_InternalFlash
08089488 t _ZL34g_CLR_Radio_802_15_4_DriverMethods
0802a604 t _ZL34local_Events_SetBoolTimer_CallbackPv
0806d6c8 t _ZL35EnableDisable_Radio_802_15_4_DriverP38CLR_RT_HeapBlock_NativeEventDispatcherb
080892bc t _ZL35g_InteropRealTimeTimerDriverMethods
08067b28 t _ZL38Microsoft_SPOT_Hardware_Port_ConstructP16CLR_RT_HeapBlockjb13GPIO_RESISTOR13GPIO_INT_EDGEbb
08081178 t _ZL38STM32F10x_BlockRange_ExternalFlash_NOR
0808115c t _ZL39STM32F10x_BlockRegionInfo_InternalFlash
08081184 t _ZL43STM32F10x_BlockRegionInfo_ExternalFlash_NOR
08088cb4 t _ZL45g_CLR_AssemblyNative_Microsoft_SPOT_EventSink
08067248 t _ZL53Microsoft_SPOT_Hardware_InterruptPort_EnableInterruptP16CLR_RT_HeapBlockP38CLR_RT_HeapBlock_NativeEventDispatcher
0806731c t _ZL54Microsoft_SPOT_Hardware_InterruptPort_DisableInterruptP16CLR_RT_HeapBlockP38CLR_RT_HeapBlock_NativeEventDispatcher
08089008 t _ZL59g_CLR_AssemblyNative_Microsoft_SPOT_Hardware_UsartErrorSink
08088ffc t _ZL59g_CLR_AssemblyNative_Microsoft_SPOT_Hardware_UsartEventSink
080812dc t _ZL6c_Busy
080812d8 t _ZL6c_Free
08089560 t _ZL7LCD_NUM
080812e0 t _ZL7c_Guard
20006a8c b _ZL9g_Context
20006a80 b _ZL9g_Context
0803a394 W _ZN10CLR_Checks13VerifyStackOKER17CLR_RT_StackFrameP16CLR_RT_HeapBlocki
0803ac7c T _ZN10CLR_Checks20VerifyArrayReferenceER16CLR_RT_HeapBlock
0803acec T _ZN10CLR_Checks24VerifyUnknownInstructionE10CLR_OPCODE
0803ad0c T _ZN10CLR_Checks28VerifyUnsupportedInstructionE10CLR_OPCODE
080319d0 T _ZN10I2C_Driver10InitializeEv
08031a3c T _ZN10I2C_Driver12UninitializeEv
08031bc8 T _ZN10I2C_Driver17CompletedCallbackEPv
08031b1c T _ZN10I2C_Driver6CancelEP15I2C_HAL_XACTIONb
08031aa8 T _ZN10I2C_Driver7EnqueueEP15I2C_HAL_XACTION
08031c14 T _ZN10I2C_Driver9StartNextEv
         U _ZN10RF231Radio10GetRadioIDEv
08070294 T _ZN10RF231Radio10InitializeEP17RadioEventHandlerPhh
08070040 W _ZN10RF231Radio10SlptrClearEv
080707a8 T _ZN10RF231Radio12ReadRegisterEh
0807069c T _ZN10RF231Radio13SpiInitializeEv
080705e8 T _ZN10RF231Radio13WriteRegisterEhh
08070af8 T _ZN10RF231Radio15DownloadMessageEv
080708d0 T _ZN10RF231Radio15HandleInterruptEv
0807065c T _ZN10RF231Radio17GpioPinInitializeEv
08070820 T _ZN10RF231Radio21ClearChannelAssesmentEj
08070078 T _ZN10RF231Radio4SendEPvt
08070700 T _ZN10RF231Radio6TurnOnEv
08070024 W _ZN10RF231Radio7RstnSetEv
0806ffec W _ZN10RF231Radio7SelnSetEv
0807005c W _ZN10RF231Radio8SlptrSetEv
08070008 W _ZN10RF231Radio9RstnClearEv
0806ffd0 W _ZN10RF231Radio9SelnClearEv
08034e6c W _ZN10STM32_AITC11SetPriorityEjj
08034e00 W _ZN10STM32_AITC15EnableInterruptEj
08034dc4 W _ZN10STM32_AITC16DisableInterruptEj
08034e38 W _ZN10STM32_AITC18IsInterruptEnabledEj
08034eb0 W _ZN10STM32_AITC21RemoveForcedInterruptEj
080375a4 T _ZN10TimeDriver10GetUtcTimeEv
08037468 T _ZN10TimeDriver10InitializeEv
080375cc T _ZN10TimeDriver10SetUtcTimeExb
08037da0 T _ZN10TimeDriver11DaysInMonthEiiPi
08038114 T _ZN10TimeDriver11SafeSprintfERPcRjPKcz
08037608 T _ZN10TimeDriver12GetLocalTimeEv
080380a4 T _ZN10TimeDriver12SafeSprintfVERPcRjPKcSt9__va_list
080376d8 T _ZN10TimeDriver12ToSystemTimeExP10SYSTEMTIME
08037570 T _ZN10TimeDriver12UninitializeEv
20002170 B _ZN10TimeDriver13m_initializedE
08037cf8 T _ZN10TimeDriver14AccDaysInMonthEiiPi
08037ad4 T _ZN10TimeDriver14FromSystemTimeEPK10SYSTEMTIME
08037668 T _ZN10TimeDriver14GetMachineTimeEv
08037ecc T _ZN10TimeDriver16TimeSpanToStringERKxRPcRj
08037630 T _ZN10TimeDriver17GetTimeZoneOffsetEv
080301a4 T _ZN10USB_Driver10ClearEventEij
0802f4b8 T _ZN10USB_Driver10InitializeEi
0802f9c0 T _ZN10USB_Driver10OpenStreamEiii
0802fba4 T _ZN10USB_Driver11CloseStreamEi
08030258 T _ZN10USB_Driver11DiscardDataEij
0802f908 T _ZN10USB_Driver12UninitializeEi
0802f804 T _ZN10USB_Driver16GetConfigurationEi
0802f4a8 T _ZN10USB_Driver18GetControllerCountEv
0802fecc T _ZN10USB_Driver4ReadEiPcj
0803007c T _ZN10USB_Driver5FlushEi
0802fca4 T _ZN10USB_Driver5WriteEiPKcj
0802f6d8 T _ZN10USB_Driver9ConfigureEiPK25USB_DYNAMIC_CONFIGURATION
08030214 T _ZN10USB_Driver9GetStatusEi
08028388 T _ZN10WP_Message10InitializeEP13WP_Controller
080284b0 T _ZN10WP_Message12PrepareReplyERK9WP_PacketjjPh
0802859c T _ZN10WP_Message12VerifyHeaderEv
080285e8 T _ZN10WP_Message13VerifyPayloadEv
08028400 T _ZN10WP_Message14PrepareRequestEjjjPh
08028634 T _ZN10WP_Message14ReplyBadPacketEj
080283e4 T _ZN10WP_Message16PrepareReceptionEv
08028690 T _ZN10WP_Message7ProcessEv
08028568 T _ZN10WP_Message7ReleaseEv
0807182c W _ZN11Buffer_15_4ILh8EE10DropOldestEh
080716b4 W _ZN11Buffer_15_4ILh8EE10InitializeEv
0807177c W _ZN11Buffer_15_4ILh8EE12GetOldestPtrEv
080716d0 W _ZN11Buffer_15_4ILh8EE5StoreEPvh
08071a00 W _ZN11Buffer_15_4ILh8EE9GetOldestEv
08027838 T _ZN11CLR_RT_DUMP15GETERRORMESSAGEEi
0802779c T _ZN11CLR_RT_DUMP22POST_PROCESS_EXCEPTIONER16CLR_RT_HeapBlock
080275fc T _ZN11CLR_RT_DUMP4TYPEERK20CLR_RT_TypeDef_Index
0802765c T _ZN11CLR_RT_DUMP6METHODERK22CLR_RT_MethodDef_Index
080276b0 T _ZN11CLR_RT_DUMP9EXCEPTIONER17CLR_RT_StackFrameR16CLR_RT_HeapBlock
08033ad0 T _ZN11Time_Driver10InitializeEv
08033da4 T _ZN11Time_Driver10Sleep_uSecEj
08033d84 T _ZN11Time_Driver11CurrentTimeEv
08033d60 T _ZN11Time_Driver11TicksToTimeEy
08033b44 T _ZN11Time_Driver12CounterValueEv
08033c08 T _ZN11Time_Driver15SetCompareValueEy
08033dec T _ZN11Time_Driver15Sleep_uSec_LoopEj
08033cec T _ZN11Time_Driver3ISREPv
0806183c T _ZN12CLR_GFX_Font14CreateInstanceER16CLR_RT_HeapBlockPKhP15CLR_RT_Assembly
08030bdc W _ZN12HAL_CALLBACK10InitializeEPFvPvES0_
0802b460 T _ZN12SmartPtr_IRQ11WasDisabledEv
0802b54c T _ZN12SmartPtr_IRQ12ForceEnabledEPv
0802b530 T _ZN12SmartPtr_IRQ13ForceDisabledEPv
0802b4e4 T _ZN12SmartPtr_IRQ5ProbeEv
0802b484 T _ZN12SmartPtr_IRQ7AcquireEv
0802b568 T _ZN12SmartPtr_IRQ7DisableEv
0802b4ac T _ZN12SmartPtr_IRQ7ReleaseEv
0802b584 T _ZN12SmartPtr_IRQ7RestoreEv
0802b50c T _ZN12SmartPtr_IRQ8GetStateEPv
0802b420 T _ZN12SmartPtr_IRQC1EPv
0802b444 T _ZN12SmartPtr_IRQD1Ev
080339bc W _ZN12Timer_Driver10GetCounterEj
0803401c T _ZN12Timer_Driver10InitializeEjjjjPFvPvES0_
080347bc T _ZN12Timer_Driver10RCC_DeInitEj
08033960 W _ZN12Timer_Driver10SetCompareEjt
0806cc8c W _ZN12Timer_Driver10SetCounterEjj
08034708 T _ZN12Timer_Driver12UninitializeEj
08033908 W _ZN12Timer_Driver14ForceInterruptEj
08033a14 W _ZN12Timer_Driver15DidTimeOverFlowEj
08033a78 W _ZN12Timer_Driver17ClearTimeOverFlowEj
08033e00 W _ZN12Timer_Driver22EnableCompareInterruptEj
08033e64 W _ZN12Timer_Driver23DisableCompareInterruptEj
08034808 T _ZN12Timer_Driver8RCC_InitEjj
0802e0e8 T _ZN12USART_Driver10InitializeEiiiiii
0802e23c T _ZN12USART_Driver12UninitializeEi
0802ed34 T _ZN12USART_Driver13BytesInBufferEij
0802ecd4 T _ZN12USART_Driver13CloseAllPortsEv
0802ed90 T _ZN12USART_Driver13DiscardBufferEij
0802ee90 T _ZN12USART_Driver16ConnectEventSinkEiiPvPFvS0_jEPS0_
0802e928 T _ZN12USART_Driver17AddCharToRxBufferEic
0802eab4 T _ZN12USART_Driver22RemoveCharFromTxBufferEiRc
0802e4f4 T _ZN12USART_Driver4ReadEiPcj
0802e6b4 T _ZN12USART_Driver5FlushEi
0802e2d0 T _ZN12USART_Driver5WriteEiPKcj
0802ec30 T _ZN12USART_Driver7SendXONEij
0802eb90 T _ZN12USART_Driver8SendXOFFEij
0802ef24 T _ZN12USART_Driver8SetEventEij
08026a44 T _ZN13CLR_Messaging10InitializeEiPK34CLR_Messaging_CommandHandlerLookupjS2_jPv
08026ec0 T _ZN13CLR_Messaging10PurgeCacheER20CLR_RT_DblLinkedListx
08026e70 T _ZN13CLR_Messaging10PurgeCacheEv
08026964 T _ZN13CLR_Messaging11App_ReleaseEPvP10WP_Message
08026c30 T _ZN13CLR_Messaging13ProcessHeaderEP10WP_Message
08026998 T _ZN13CLR_Messaging14CreateInstanceEv
08026b60 T _ZN13CLR_Messaging14DeleteInstanceEv
080266c8 T _ZN13CLR_Messaging14Messaging_SendEP10WP_MessagePv
08026c4c T _ZN13CLR_Messaging14ProcessPayloadEP10WP_Message
080271c8 T _ZN13CLR_Messaging14ReplyToCommandEP10WP_Messagebb
080270f8 T _ZN13CLR_Messaging14ReplyToCommandEP10WP_MessagebbPvi
08026654 T _ZN13CLR_Messaging15Messaging_QueryEP10WP_MessagePv
0802677c T _ZN13CLR_Messaging15Messaging_ReplyEP10WP_MessagePv
08026c08 T _ZN13CLR_Messaging15ProcessCommandsEv
08026f44 T _ZN13CLR_Messaging15TransmitMessageEPK10WP_Messageb
08026830 T _ZN13CLR_Messaging16Phy_ReceiveBytesEPvRPhRj
080268c0 T _ZN13CLR_Messaging17App_ProcessHeaderEPvP10WP_Message
08026928 T _ZN13CLR_Messaging18App_ProcessPayloadEPvP10WP_Message
08061874 W _ZN13CLR_Messaging18InitializeDebuggerEv
08026898 T _ZN13CLR_Messaging19Phy_TransmitMessageEPvPK10WP_Message
08061858 W _ZN13CLR_Messaging21IsDebuggerInitializedEv
0802655c T _ZN13CLR_Messaging23AllocateAndQueueMessageEjjPhN25CLR_RT_HeapBlock_EndPoint4PortENS1_7AddressEj
08026b8c T _ZN13CLR_Messaging7CleanupEv
080270c8 T _ZN13CLR_Messaging9SendEventEjjPhj
080529e4 T _ZN13CLR_RECORD_EH21ExtractEhFromByteCodeEPKhRPKS_Rj
08047bb4 T _ZN13CLR_RT_Memory18Allocate_And_EraseEjj
08047a98 T _ZN13CLR_RT_Memory5ResetEv
08047ab0 T _ZN13CLR_RT_Memory7ReleaseEPv
08047b08 T _ZN13CLR_RT_Memory8AllocateEjj
080204c0 W _ZN13CLR_RT_Memory8ZeroFillEPvj
0804f618 T _ZN13CLR_RT_Random10InitializeEi
0804f5e0 T _ZN13CLR_RT_Random10InitializeEv
0804f6d8 T _ZN13CLR_RT_Random10NextDoubleEv
0804f634 T _ZN13CLR_RT_Random4NextEv
0804f718 T _ZN13CLR_RT_Random9NextBytesEPhj
0804b1fc T _ZN13CLR_RT_Thread10Execute_ILEP17CLR_RT_StackFrame
0804a6d8 T _ZN13CLR_RT_Thread11FindEhBlockEP17CLR_RT_StackFramePKhS3_R23CLR_RT_ExceptionHandlerb
0804a620 T _ZN13CLR_RT_Thread11PopEH_InnerEP17CLR_RT_StackFramePKh
0803a1c0 W _ZN13CLR_RT_Thread11UnwindStack8GetPhaseEv
080216d0 W _ZN13CLR_RT_Thread11UnwindStack8SetPhaseEh
0804adec T _ZN13CLR_RT_Thread13Execute_InnerEv
08050228 T _ZN13CLR_RT_Thread13RecoverFromGCEv
0804fddc T _ZN13CLR_RT_Thread14CreateInstanceEiP25CLR_RT_HeapBlock_DelegateiRPS_j
0804fc08 T _ZN13CLR_RT_Thread14CreateInstanceEiiRPS_j
0804fe3c T _ZN13CLR_RT_Thread15DestroyInstanceEv
08050f14 T _ZN13CLR_RT_Thread16ProcessExceptionEv
0804faa0 T _ZN13CLR_RT_Thread17CanThreadBeReusedEv
0804fa74 T _ZN13CLR_RT_Thread17IsFinalizerThreadEv
0804fe80 T _ZN13CLR_RT_Thread17ReleaseWhenDeadExEv
080577c8 W _ZN13CLR_RT_Thread17SetThreadPriorityEi
080500fc T _ZN13CLR_RT_Thread18OnThreadTerminatedEv
0804ac38 T _ZN13CLR_RT_Thread19RTOS_Thread_ExecuteEv
0804ff50 T _ZN13CLR_RT_Thread21ProtectFromGCCallbackEPv
0804fa44 T _ZN13CLR_RT_Thread22BringExecCounterToDateEii
0804b064 T _ZN13CLR_RT_Thread22Execute_DelegateInvokeEP17CLR_RT_StackFrame
0804fadc T _ZN13CLR_RT_Thread22PushThreadProcDelegateEP25CLR_RT_HeapBlock_Delegate
08050610 T _ZN13CLR_RT_Thread23ProcessException_Phase1Ev
08050ad0 T _ZN13CLR_RT_Thread23ProcessException_Phase2Ev
08050370 T _ZN13CLR_RT_Thread26ProcessException_EndFilterEv
080504dc T _ZN13CLR_RT_Thread27ProcessException_EndFinallyEv
08050304 T _ZN13CLR_RT_Thread42ProcessException_FilterPseudoFrameCopyVarsEP17CLR_RT_StackFrameS1_
08050058 T _ZN13CLR_RT_Thread5AbortEv
0803a280 W _ZN13CLR_RT_Thread5PopEHEP17CLR_RT_StackFramePKh
0804a574 T _ZN13CLR_RT_Thread6PushEHEv
0804ffbc T _ZN13CLR_RT_Thread6ResumeEv
0804aa5c T _ZN13CLR_RT_Thread7ExecuteEv
080500b0 T _ZN13CLR_RT_Thread7RestartEb
0804ff74 T _ZN13CLR_RT_Thread7SuspendEv
08050240 T _ZN13CLR_RT_Thread8RelocateEv
08050140 T _ZN13CLR_RT_Thread9PassivateEv
08050008 T _ZN13CLR_RT_Thread9TerminateEv
08022d24 T _ZN13MfReleaseInfo4InitERS_ttttPKcj
0806d528 T _ZN13NeighborTable14InsertNeighborEt14NeighborStatusy
0806d5ac T _ZN13NeighborTable14UpdateNeighborEt14NeighborStatusy
0806d4c4 T _ZN13NeighborTable9FindIndexEt
080289c8 T _ZN13WP_Controller10InitializeEPKcPK16WP_PhysicalLayerPK19WP_ApplicationLayerPv
08028a30 T _ZN13WP_Controller12AdvanceStateEv
08028a50 T _ZN13WP_Controller19SendProtocolMessageERK10WP_Message
08028a78 T _ZN13WP_Controller19SendProtocolMessageEjjjPh
0806181c T _ZN14CLR_GFX_Bitmap14CreateInstanceER16CLR_RT_HeapBlockPKhjP15CLR_RT_Assembly
08071880 W _ZN14CircularBufferI7MessageI19IEEE802_15_4_HeaderLt113E19IEEE802_15_4_Footer21IEEE802_15_4_MetadataELh8EE10InitializeEv
08071930 W _ZN14CircularBufferI7MessageI19IEEE802_15_4_HeaderLt113E19IEEE802_15_4_Footer21IEEE802_15_4_MetadataELh8EE17GetNextFreeBufferEv
08071a3c W _ZN14CircularBufferI7MessageI19IEEE802_15_4_HeaderLt113E19IEEE802_15_4_Footer21IEEE802_15_4_MetadataELh8EE18GetFirstFullBufferEv
080717b8 W _ZN14CircularBufferI7MessageI19IEEE802_15_4_HeaderLt113E19IEEE802_15_4_Footer21IEEE802_15_4_MetadataELh8EE20GetNextFreeBufferPtrEv
080719a4 W _ZN14CircularBufferI7MessageI19IEEE802_15_4_HeaderLt113E19IEEE802_15_4_Footer21IEEE802_15_4_MetadataELh8EE21GetFirstFullBufferPtrEv
08071868 W _ZN14CircularBufferI7MessageI19IEEE802_15_4_HeaderLt113E19IEEE802_15_4_Footer21IEEE802_15_4_MetadataELh8EE4SizeEv
080718f0 W _ZN14CircularBufferI7MessageI19IEEE802_15_4_HeaderLt113E19IEEE802_15_4_Footer21IEEE802_15_4_MetadataELh8EE6IsFullEv
08071754 W _ZN14CircularBufferI7MessageI19IEEE802_15_4_HeaderLt113E19IEEE802_15_4_Footer21IEEE802_15_4_MetadataELh8EE7IsEmptyEv
08030eb4 T _ZN14HAL_COMPLETION12EnqueueDeltaEj
08030d9c T _ZN14HAL_COMPLETION12EnqueueTicksEy
0803105c T _ZN14HAL_COMPLETION12UninitializeEv
08030ce8 T _ZN14HAL_COMPLETION14DequeueAndExecEv
08030e70 T _ZN14HAL_COMPLETION14EnqueueDelta64Ey
08030cd4 T _ZN14HAL_COMPLETION14InitializeListEv
0802a33c W _ZN14HAL_COMPLETION16InitializeForISREPFvPvES0_
08030f6c T _ZN14HAL_COMPLETION17WaitForInterruptsEyjy
08030ed4 T _ZN14HAL_COMPLETION5AbortEv
08030c7c T _ZN14HAL_COMPLETION7ExecuteEv
080384e8 T _ZN14PalEventDriver10InitializeEv
0803851c T _ZN14PalEventDriver12UninitializeEv
200022bc B _ZN14PalEventDriver13s_initializedE
08061b70 T _ZN15CLR_HW_Hardware12PrepareForGCEv
080618a4 T _ZN15CLR_HW_Hardware14CreateInstanceEv
08061b24 T _ZN15CLR_HW_Hardware14DeleteInstanceEv
08061b84 T _ZN15CLR_HW_Hardware15ProcessActivityEv
08062d84 T _ZN15CLR_HW_Hardware15SpawnDispatcherEv
08061b48 T _ZN15CLR_HW_Hardware16Hardware_CleanupEv
08062f7c T _ZN15CLR_HW_Hardware17ProcessInterruptsEv
08061dd0 W _ZN15CLR_HW_Hardware18HalInterruptRecord10AssignFromERKS0_
080618dc T _ZN15CLR_HW_Hardware19Hardware_InitializeEv
08062d04 T _ZN15CLR_HW_Hardware19SpawnRTOSDispatcherEP27CLR_RT_ApplicationInterrupt
08062e48 T _ZN15CLR_HW_Hardware39TransferAllInterruptsToApplicationQueueEv
08039df8 W _ZN15CLR_RT_Assembly10DumpOpcodeEP17CLR_RT_StackFramePKh
08039c48 W _ZN15CLR_RT_Assembly10GetTypeDefEt
0804f800 T _ZN15CLR_RT_Assembly10InitStringEv
08054d5c T _ZN15CLR_RT_Assembly11FindTypeDefEPKcS1_R20CLR_RT_TypeDef_Index
08054e1c T _ZN15CLR_RT_Assembly11FindTypeDefEPKctR20CLR_RT_TypeDef_Index
08054ebc T _ZN15CLR_RT_Assembly11FindTypeDefEjR20CLR_RT_TypeDef_Index
08039dcc W _ZN15CLR_RT_Assembly11GetByteCodeEt
08039c80 W _ZN15CLR_RT_Assembly11GetFieldDefEt
08039d48 W _ZN15CLR_RT_Assembly11GetResourceEt
08039ce0 W _ZN15CLR_RT_Assembly11GetTypeSpecEt
08055020 T _ZN15CLR_RT_Assembly12FindFieldDefEPK18CLR_RECORD_TYPEDEFPKcPS_tR21CLR_RT_FieldDef_Index
08039cb0 W _ZN15CLR_RT_Assembly12GetMethodDefEt
08039da0 W _ZN15CLR_RT_Assembly12GetSignatureEt
08053908 T _ZN15CLR_RT_Assembly12Resolve_LinkEv
08055588 T _ZN15CLR_RT_Assembly12VerifyEndianEP19CLR_RECORD_ASSEMBLY
080550a0 T _ZN15CLR_RT_Assembly13FindMethodDefEPK18CLR_RECORD_TYPEDEFPKcPS_tR22CLR_RT_MethodDef_Index
08052d84 T _ZN15CLR_RT_Assembly14CreateInstanceEPK19CLR_RECORD_ASSEMBLYRPS_
080636e0 W _ZN15CLR_RT_Assembly14GetAssemblyRefEt
080534fc T _ZN15CLR_RT_Assembly15DestroyInstanceEv
08039d78 W _ZN15CLR_RT_Assembly15GetResourceDataEj
08039d10 W _ZN15CLR_RT_Assembly15GetResourceFileEt
08054970 T _ZN15CLR_RT_Assembly15Resolve_TypeDefEv
0805353c T _ZN15CLR_RT_Assembly15Resolve_TypeRefEv
080536b0 T _ZN15CLR_RT_Assembly16Resolve_FieldRefEv
08054a18 T _ZN15CLR_RT_Assembly17Resolve_MethodDefEv
080537a0 T _ZN15CLR_RT_Assembly17Resolve_MethodRefEv
08055494 T _ZN15CLR_RT_Assembly18ComputeHashForNameERK20CLR_RT_TypeDef_Indexj
0805550c T _ZN15CLR_RT_Assembly18ComputeHashForTypeE12CLR_DataTypej
08052bb4 T _ZN15CLR_RT_Assembly19Assembly_InitializeERNS_7OffsetsE
08054d28 T _ZN15CLR_RT_Assembly19ComputeAssemblyHashEPK22CLR_RECORD_ASSEMBLYREF
08054d00 T _ZN15CLR_RT_Assembly19ComputeAssemblyHashEv
08054be0 T _ZN15CLR_RT_Assembly19PrepareForExecutionEv
080533b0 T _ZN15CLR_RT_Assembly19Resolve_AssemblyRefEb
080551a8 T _ZN15CLR_RT_Assembly20FindMethodBoundariesEtRtS0_
080552c8 T _ZN15CLR_RT_Assembly21Resolve_ComputeHashesEv
08055230 T _ZN15CLR_RT_Assembly25FindNextStaticConstructorER22CLR_RT_MethodDef_Index
08054b34 T _ZN15CLR_RT_Assembly28Resolve_AllocateStaticFieldsEP16CLR_RT_HeapBlock
08039c18 W _ZN15CLR_RT_Assembly8GetTableE14CLR_TABLESENUM
08055548 T _ZN15CLR_RT_Assembly8RelocateEv
0804f80c T _ZN15CLR_RT_Assembly9GetStringEt
08071cf4 T _ZN15HALTimerManager10InitializeEv
08071dc4 T _ZN15HALTimerManager11CreateTimerEhjjjjPFvPvE
08071cbc W _ZN15HALTimerManager11get_m_timerEv
08071c0c W _ZN15HALTimerManager14DoesTimerExistEh
08071c84 W _ZN15HALTimerManager18GetActiveTimerListEv
20007681 B _ZN15HALTimerManager19m_current_timer_id_E
08071cd4 W _ZN15HALTimerManager20get_timer_resolutionEv
08071ca0 W _ZN15HALTimerManager29get_m_number_of_active_timersEv
08031738 W _ZN15I2C_HAL_XACTION10CheckStateEh
08031978 T _ZN15I2C_HAL_XACTION10InitializeER22I2C_USER_CONFIGURATIONPP20I2C_HAL_XACTION_UNITj
080316e4 W _ZN15I2C_HAL_XACTION11SetCallbackEPFvPvE
0803176c W _ZN15I2C_HAL_XACTION15TransactedBytesEv
08031720 W _ZN15I2C_HAL_XACTION8GetStateEv
08031704 W _ZN15I2C_HAL_XACTION8SetStateEh
0806d7b8 W _ZN15MacEventHandler17SetRecieveHandlerEPFvPvtE
0806d7d4 W _ZN15MacEventHandler17SetSendAckHandlerEPFvPvt11NetOpStatusE
080381d8 T _ZN15Watchdog_Driver13GetSetEnabledEjj
08038248 T _ZN15Watchdog_Driver13GetSetTimeoutEij
080382fc T _ZN15Watchdog_Driver13LastOccurenceERNS_13WatchdogEventEj
080381c4 W _ZN15Watchdog_Driver13WatchdogEvent13GetDriverNameEv
0803816c W _ZN15Watchdog_Driver13WatchdogEvent4LoadEv
08038198 W _ZN15Watchdog_Driver13WatchdogEvent6CommitEv
080382b4 T _ZN15Watchdog_Driver14GetSetBehaviorE17Watchdog_Behaviorj
08038330 T _ZN15Watchdog_Driver16WatchdogCallbackEPv
08028c2c T _ZN16BlockStorageList10InitializeEv
20000fb8 B _ZN16BlockStorageList12s_deviceListE
08028fa4 T _ZN16BlockStorageList13GetNextDeviceER18BlockStorageDevice
20000fc8 B _ZN16BlockStorageList13s_InitializedE
08028f78 T _ZN16BlockStorageList14GetFirstDeviceEv
20000fc4 B _ZN16BlockStorageList15s_primaryDeviceE
08028c5c T _ZN16BlockStorageList17InitializeDevicesEv
08028d54 T _ZN16BlockStorageList19UnInitializeDevicesEv
08028e5c T _ZN16BlockStorageList28FindDeviceForPhysicalAddressEPP18BlockStorageDevicejRj
08028de8 T _ZN16BlockStorageList9AddDeviceEP18BlockStorageDeviceP19IBlockStorageDevicePvj
08021ae4 T _ZN16CLR_DBG_Debugger10PurgeCacheEv
0802247c T _ZN16CLR_DBG_Debugger12AccessMemoryEjjPhi
08023ab4 T _ZN16CLR_DBG_Debugger12CheckTypeDefERK20CLR_RT_TypeDef_IndexR23CLR_RT_TypeDef_Instance
08021edc T _ZN16CLR_DBG_Debugger12Monitor_PingEP10WP_MessagePv
08023b14 T _ZN16CLR_DBG_Debugger13CheckFieldDefERK21CLR_RT_FieldDef_IndexR24CLR_RT_FieldDef_Instance
08023b74 T _ZN16CLR_DBG_Debugger14CheckMethodDefERK22CLR_RT_MethodDef_IndexR25CLR_RT_MethodDef_Instance
080218e8 T _ZN16CLR_DBG_Debugger14CreateInstanceEv
08021a7c T _ZN16CLR_DBG_Debugger14DeleteInstanceEv
08023a44 T _ZN16CLR_DBG_Debugger14IsGoodAssemblyEt
08022a04 T _ZN16CLR_DBG_Debugger14Monitor_RebootEP10WP_MessagePv
08022268 T _ZN16CLR_DBG_Debugger15CheckPermissionEji
08023bd4 T _ZN16CLR_DBG_Debugger15CheckStackFrameEjjRb
080229c8 T _ZN16CLR_DBG_Debugger15Monitor_ExecuteEP10WP_MessagePv
08021ac4 T _ZN16CLR_DBG_Debugger15ProcessCommandsEv
08021aa8 T _ZN16CLR_DBG_Debugger16Debugger_CleanupEv
08021b58 T _ZN16CLR_DBG_Debugger16GetThreadFromPidEj
08021cf0 T _ZN16CLR_DBG_Debugger17CreateListOfCallsEjRPN16CLR_DBG_Commands22Debugging_Thread_Stack5ReplyERi
08022ae8 T _ZN16CLR_DBG_Debugger17Monitor_MemoryMapEP10WP_MessagePv
080217e0 T _ZN16CLR_DBG_Debugger18Debugger_DiscoveryEv
08021b00 T _ZN16CLR_DBG_Debugger18GetAppDomainFromIDEj
080227dc T _ZN16CLR_DBG_Debugger18Monitor_ReadMemoryEP10WP_MessagePv
08021bf0 T _ZN16CLR_DBG_Debugger19CreateListOfThreadsERPN16CLR_DBG_Commands21Debugging_Thread_List5ReplyERi
08021a24 T _ZN16CLR_DBG_Debugger19Debugger_InitializeEi
08022904 T _ZN16CLR_DBG_Debugger19Monitor_CheckMemoryEP10WP_MessagePv
08022960 T _ZN16CLR_DBG_Debugger19Monitor_EraseMemoryEP10WP_MessagePv
0802289c T _ZN16CLR_DBG_Debugger19Monitor_WriteMemoryEP10WP_MessagePv
08024444 T _ZN16CLR_DBG_Debugger20Debugging_Stack_InfoEP10WP_MessagePv
08024178 T _ZN16CLR_DBG_Debugger20Debugging_Thread_GetEP10WP_MessagePv
08026234 T _ZN16CLR_DBG_Debugger21Debugging_Info_SetJMCEP10WP_MessagePv
0802456c T _ZN16CLR_DBG_Debugger21Debugging_Stack_SetIPEP10WP_MessagePv
08024054 T _ZN16CLR_DBG_Debugger21Debugging_Thread_KillEP10WP_MessagePv
08023f4c T _ZN16CLR_DBG_Debugger21Debugging_Thread_ListEP10WP_MessagePv
08022b60 T _ZN16CLR_DBG_Debugger21Monitor_DeploymentMapEP10WP_MessagePv
08025aac T _ZN16CLR_DBG_Debugger22Debugging_Resolve_TypeEP10WP_MessagePv
08023fcc T _ZN16CLR_DBG_Debugger22Debugging_Thread_StackEP10WP_MessagePv
08022fdc T _ZN16CLR_DBG_Debugger22Debugging_UpgradeToSslEP10WP_MessagePv
08025620 T _ZN16CLR_DBG_Debugger22Debugging_Value_AssignEP10WP_MessagePv
08022018 T _ZN16CLR_DBG_Debugger22Monitor_FlashSectorMapEP10WP_MessagePv
08025b78 T _ZN16CLR_DBG_Debugger23Debugging_Resolve_FieldEP10WP_MessagePv
0802411c T _ZN16CLR_DBG_Debugger23Debugging_Thread_ResumeEP10WP_MessagePv
0802436c T _ZN16CLR_DBG_Debugger23Debugging_Thread_UnwindEP10WP_MessagePv
0802177c T _ZN16CLR_DBG_Debugger24Debugger_WaitForCommandsEv
08023074 T _ZN16CLR_DBG_Debugger24Debugging_MFUpdate_StartEP10WP_MessagePv
08025c78 T _ZN16CLR_DBG_Debugger24Debugging_Resolve_MethodEP10WP_MessagePv
080240c0 T _ZN16CLR_DBG_Debugger24Debugging_Thread_SuspendEP10WP_MessagePv
08024e94 T _ZN16CLR_DBG_Debugger24Debugging_Value_GetArrayEP10WP_MessagePv
08024fa4 T _ZN16CLR_DBG_Debugger24Debugging_Value_GetBlockEP10WP_MessagePv
08024c50 T _ZN16CLR_DBG_Debugger24Debugging_Value_GetFieldEP10WP_MessagePv
08024954 T _ZN16CLR_DBG_Debugger24Debugging_Value_GetStackEP10WP_MessagePv
08025078 T _ZN16CLR_DBG_Debugger24Debugging_Value_SetArrayEP10WP_MessagePv
08025024 T _ZN16CLR_DBG_Debugger24Debugging_Value_SetBlockEP10WP_MessagePv
08023ecc T _ZN16CLR_DBG_Debugger25Debugging_Thread_CreateExEP10WP_MessagePv
20000d58 B _ZN16CLR_DBG_Debugger25m_deploymentStorageDeviceE
0802618c T _ZN16CLR_DBG_Debugger26Debugging_Info_SetJMC_TypeERK20CLR_RT_TypeDef_Indexb
0802357c T _ZN16CLR_DBG_Debugger26Debugging_MFUpdate_InstallEP10WP_MessagePv
080259c8 T _ZN16CLR_DBG_Debugger26Debugging_Resolve_AssemblyEP10WP_MessagePv
08025e08 T _ZN16CLR_DBG_Debugger27Debugging_Deployment_StatusEP10WP_MessagePv
08022b7c T _ZN16CLR_DBG_Debugger27Debugging_Execution_BasePtrEP10WP_MessagePv
08025834 T _ZN16CLR_DBG_Debugger27Debugging_Resolve_AppDomainEP10WP_MessagePv
08022f7c T _ZN16CLR_DBG_Debugger28Debugging_Execution_AllocateEP10WP_MessagePv
08026128 T _ZN16CLR_DBG_Debugger28Debugging_Info_SetJMC_MethodERK22CLR_RT_MethodDef_Indexb
08023444 T _ZN16CLR_DBG_Debugger28Debugging_MFUpdate_AddPacketEP10WP_MessagePv
08025764 T _ZN16CLR_DBG_Debugger28Debugging_TypeSys_AppDomainsEP10WP_MessagePv
08025688 T _ZN16CLR_DBG_Debugger28Debugging_TypeSys_AssembliesEP10WP_MessagePv
08024314 T _ZN16CLR_DBG_Debugger29Debugging_Thread_GetExceptionEP10WP_MessagePv
08025284 T _ZN16CLR_DBG_Debugger29Debugging_Value_AllocateArrayEP10WP_MessagePv
08024fe0 T _ZN16CLR_DBG_Debugger29Debugging_Value_GetScratchPadEP10WP_MessagePv
08023110 T _ZN16CLR_DBG_Debugger30Debugging_MFUpdate_AuthCommandEP10WP_MessagePv
08025178 T _ZN16CLR_DBG_Debugger30Debugging_Value_AllocateObjectEP10WP_MessagePv
080251f0 T _ZN16CLR_DBG_Debugger30Debugging_Value_AllocateStringEP10WP_MessagePv
08023974 T _ZN16CLR_DBG_Debugger31Debugging_Execution_BreakpointsEP10WP_MessagePv
08023234 T _ZN16CLR_DBG_Debugger31Debugging_MFUpdate_AuthenticateEP10WP_MessagePv
08025d7c T _ZN16CLR_DBG_Debugger31Debugging_Resolve_VirtualMethodEP10WP_MessagePv
08024858 T _ZN16CLR_DBG_Debugger32Debugging_Value_ResizeScratchPadEP10WP_MessagePv
08023344 T _ZN16CLR_DBG_Debugger33Debugging_MFUpdate_GetMissingPktsEP10WP_MessagePv
080239d8 T _ZN16CLR_DBG_Debugger36Debugging_Execution_BreakpointStatusEP10WP_MessagePv
08022bc4 T _ZN16CLR_DBG_Debugger36Debugging_Execution_ChangeConditionsEP10WP_MessagePv
08023910 T _ZN16CLR_DBG_Debugger39Debugging_Execution_SetCurrentAppDomainEP10WP_MessagePv
08022d80 T _ZN16CLR_DBG_Debugger40Debugging_Execution_QueryCLRCapabilitiesEP10WP_MessagePv
08023860 T _ZN16CLR_DBG_Debugger8GetValueEP10WP_MessageP16CLR_RT_HeapBlockS3_P23CLR_RT_TypeDef_Instance
08053d20 T _ZN16CLR_RT_AppDomain12LoadAssemblyEP15CLR_RT_Assembly
08054684 T _ZN16CLR_RT_AppDomain13GetAssembliesER16CLR_RT_HeapBlock
08054118 T _ZN16CLR_RT_AppDomain13MarshalObjectER16CLR_RT_HeapBlockS1_PS_
08053c08 T _ZN16CLR_RT_AppDomain13RecoverFromGCEv
08053adc T _ZN16CLR_RT_AppDomain14CreateInstanceEPKcRPS_
08053cf0 T _ZN16CLR_RT_AppDomain15DestroyInstanceEv
08053e90 T _ZN16CLR_RT_AppDomain16GetManagedObjectER16CLR_RT_HeapBlock
08054484 T _ZN16CLR_RT_AppDomain17MarshalParametersEP16CLR_RT_HeapBlockS1_ibPS_
080540b8 T _ZN16CLR_RT_AppDomain18VerifyTypeIsLoadedERK20CLR_RT_TypeDef_Index
08053c3c T _ZN16CLR_RT_AppDomain20AppDomain_InitializeEv
0805400c T _ZN16CLR_RT_AppDomain21FindAppDomainAssemblyEP15CLR_RT_Assembly
08053ca8 T _ZN16CLR_RT_AppDomain22AppDomain_UninitializeEv
080547ac T _ZN16CLR_RT_AppDomain8IsLoadedEv
08054084 T _ZN16CLR_RT_AppDomain8RelocateEv
08039714 W _ZN16CLR_RT_HeapBlock10AssignDataERKS_
0804a174 T _ZN16CLR_RT_HeapBlock10InitObjectEv
080432fc T _ZN16CLR_RT_HeapBlock10NumericAddERKS_
0804367c T _ZN16CLR_RT_HeapBlock10NumericDivERKS_
0804356c T _ZN16CLR_RT_HeapBlock10NumericMulERKS_
08043b54 T _ZN16CLR_RT_HeapBlock10NumericNegEv
08043804 T _ZN16CLR_RT_HeapBlock10NumericRemERKS_
080439d0 T _ZN16CLR_RT_HeapBlock10NumericShlERKS_
08043a44 T _ZN16CLR_RT_HeapBlock10NumericShrERKS_
08043430 T _ZN16CLR_RT_HeapBlock10NumericSubERKS_
080391a8 W _ZN16CLR_RT_HeapBlock10ResetFlagsEh
08039344 W _ZN16CLR_RT_HeapBlock10SetBooleanEb
0802131c W _ZN16CLR_RT_HeapBlock10SetIntegerERKx
080393f4 W _ZN16CLR_RT_HeapBlock10SetIntegerERKy
0806a458 W _ZN16CLR_RT_HeapBlock10SetIntegerEa
0806a4b0 W _ZN16CLR_RT_HeapBlock10SetIntegerEh
080393a4 W _ZN16CLR_RT_HeapBlock10SetIntegerEi
08039378 W _ZN16CLR_RT_HeapBlock10SetIntegerEih
080393cc W _ZN16CLR_RT_HeapBlock10SetIntegerEj
0806a484 W _ZN16CLR_RT_HeapBlock10SetIntegerEs
080636b8 W _ZN16CLR_RT_HeapBlock10SetIntegerEt
08042524 T _ZN16CLR_RT_HeapBlock11GetHashCodeEPS_bj
080213e4 W _ZN16CLR_RT_HeapBlock12NumericByRefEv
08043764 T _ZN16CLR_RT_HeapBlock12NumericDivUnERKS_
0804393c T _ZN16CLR_RT_HeapBlock12NumericRemUnERKS_
08043ae0 T _ZN16CLR_RT_HeapBlock12NumericShrUnERKS_
08042740 T _ZN16CLR_RT_HeapBlock12ObjectsEqualERKS_S1_b
08043dd0 T _ZN16CLR_RT_HeapBlock12Relocate_ClsEv
08043db4 T _ZN16CLR_RT_HeapBlock12Relocate_ObjEv
08043e08 T _ZN16CLR_RT_HeapBlock12Relocate_RefEv
08041500 T _ZN16CLR_RT_HeapBlock12SetObjectClsERK20CLR_RT_TypeDef_Index
08039510 W _ZN16CLR_RT_HeapBlock12SetReferenceERS_
0804204c T _ZN16CLR_RT_HeapBlock13PerformBoxingERK23CLR_RT_TypeDef_Instance
0803966c W _ZN16CLR_RT_HeapBlock13SetObjectLockEP21CLR_RT_HeapBlock_Lock
08041404 T _ZN16CLR_RT_HeapBlock13SetReflectionERK20CLR_RT_TypeDef_Index
08041368 T _ZN16CLR_RT_HeapBlock13SetReflectionERK21CLR_RT_Assembly_Index
08041448 T _ZN16CLR_RT_HeapBlock13SetReflectionERK21CLR_RT_FieldDef_Index
080413ac T _ZN16CLR_RT_HeapBlock13SetReflectionERK21CLR_RT_TypeSpec_Index
0804148c T _ZN16CLR_RT_HeapBlock13SetReflectionERK22CLR_RT_MethodDef_Index
0804132c T _ZN16CLR_RT_HeapBlock13SetReflectionERK26CLR_RT_ReflectionDef_Index
08039618 W _ZN16CLR_RT_HeapBlock13SetStringTextEPKcP15CLR_RT_Assembly
0802129c W _ZN16CLR_RT_HeapBlock14ChangeDataTypeEj
08042dc8 T _ZN16CLR_RT_HeapBlock14Compare_ValuesERKS_S1_b
0802723c W _ZN16CLR_RT_HeapBlock14ReflectionDataEv
0803918c W _ZN16CLR_RT_HeapBlock15ChangeDataFlagsEj
080392d4 W _ZN16CLR_RT_HeapBlock15MarkForcedAliveEv
080421e0 T _ZN16CLR_RT_HeapBlock15PerformUnboxingERK23CLR_RT_TypeDef_Instance
08043d8c T _ZN16CLR_RT_HeapBlock15Relocate_StringEv
0804a27c T _ZN16CLR_RT_HeapBlock16Convert_InternalE12CLR_DataType
080391d8 W _ZN16CLR_RT_HeapBlock16Debug_ClearBlockEi
080411f4 T _ZN16CLR_RT_HeapBlock16InitializeToZeroEv
0803947c W _ZN16CLR_RT_HeapBlock16SetFloatFromBitsEj
0804188c T _ZN16CLR_RT_HeapBlock16StoreToReferenceERS_i
08041674 T _ZN16CLR_RT_HeapBlock17LoadFromReferenceERS_
08043e24 T _ZN16CLR_RT_HeapBlock17Relocate_ArrayRefEv
0803949c W _ZN16CLR_RT_HeapBlock17SetDoubleFromBitsERKy
080392f0 W _ZN16CLR_RT_HeapBlock17UnmarkForcedAliveEv
080391ec W _ZN16CLR_RT_HeapBlock18Debug_CheckPointerEPv
08042314 T _ZN16CLR_RT_HeapBlock18FixBoxingReferenceEv
0802134c W _ZN16CLR_RT_HeapBlock18SetObjectReferenceEPKS_
08043cf4 T _ZN16CLR_RT_HeapBlock19Relocate__HeapBlockEv
08039754 W _ZN16CLR_RT_HeapBlock21AssignAndPreserveTypeERKS_
0803984c W _ZN16CLR_RT_HeapBlock21Compare_Signed_ValuesERKS_S1_
0804122c T _ZN16CLR_RT_HeapBlock21EnsureObjectReferenceERPS_
08041f50 T _ZN16CLR_RT_HeapBlock21PerformBoxingIfNeededEv
080396b8 W _ZN16CLR_RT_HeapBlock21SetBinaryBlobHandlersEPFvP27CLR_RT_HeapBlock_BinaryBlobES3_
08039828 W _ZN16CLR_RT_HeapBlock23Compare_Unsigned_ValuesERKS_S1_
0804154c T _ZN16CLR_RT_HeapBlock24InitializeArrayReferenceERS_i
08043e40 T _ZN16CLR_RT_HeapBlock25Relocate_TransparentProxyEv
08038fd0 W _ZN16CLR_RT_HeapBlock27CLR_RT_HeapBlock_AtomicData7Numeric2R8aSEd
08039144 W _ZN16CLR_RT_HeapBlock27CLR_RT_HeapBlock_AtomicData7Numeric2R8dvERKS2_
080390b4 W _ZN16CLR_RT_HeapBlock27CLR_RT_HeapBlock_AtomicData7Numeric2R8mIERKS2_
080390fc W _ZN16CLR_RT_HeapBlock27CLR_RT_HeapBlock_AtomicData7Numeric2R8mlERKS2_
0803906c W _ZN16CLR_RT_HeapBlock27CLR_RT_HeapBlock_AtomicData7Numeric2R8pLERKS2_
08021208 W _ZN16CLR_RT_HeapBlock27CLR_RT_HeapBlock_AtomicData7Numeric2S8aSEx
08038e40 W _ZN16CLR_RT_HeapBlock27CLR_RT_HeapBlock_AtomicData7Numeric2S8dvERKS2_
08038da0 W _ZN16CLR_RT_HeapBlock27CLR_RT_HeapBlock_AtomicData7Numeric2S8mIERKS2_
08038de8 W _ZN16CLR_RT_HeapBlock27CLR_RT_HeapBlock_AtomicData7Numeric2S8mlERKS2_
08038d58 W _ZN16CLR_RT_HeapBlock27CLR_RT_HeapBlock_AtomicData7Numeric2S8pLERKS2_
08038e88 W _ZN16CLR_RT_HeapBlock27CLR_RT_HeapBlock_AtomicData7Numeric2S8rMERKS2_
08038ecc W _ZN16CLR_RT_HeapBlock27CLR_RT_HeapBlock_AtomicData7Numeric2S8rSEj
08038be0 W _ZN16CLR_RT_HeapBlock27CLR_RT_HeapBlock_AtomicData7Numeric2U8aNERKS2_
08038a10 W _ZN16CLR_RT_HeapBlock27CLR_RT_HeapBlock_AtomicData7Numeric2U8aSEy
08038b70 W _ZN16CLR_RT_HeapBlock27CLR_RT_HeapBlock_AtomicData7Numeric2U8coEv
08038b28 W _ZN16CLR_RT_HeapBlock27CLR_RT_HeapBlock_AtomicData7Numeric2U8dvERKS2_
08038c50 W _ZN16CLR_RT_HeapBlock27CLR_RT_HeapBlock_AtomicData7Numeric2U8eOERKS2_
08038cf0 W _ZN16CLR_RT_HeapBlock27CLR_RT_HeapBlock_AtomicData7Numeric2U8lSEj
08038a88 W _ZN16CLR_RT_HeapBlock27CLR_RT_HeapBlock_AtomicData7Numeric2U8mIERKS2_
08038ad0 W _ZN16CLR_RT_HeapBlock27CLR_RT_HeapBlock_AtomicData7Numeric2U8mlERKS2_
08038c18 W _ZN16CLR_RT_HeapBlock27CLR_RT_HeapBlock_AtomicData7Numeric2U8oRERKS2_
08038a40 W _ZN16CLR_RT_HeapBlock27CLR_RT_HeapBlock_AtomicData7Numeric2U8pLERKS2_
08038b9c W _ZN16CLR_RT_HeapBlock27CLR_RT_HeapBlock_AtomicData7Numeric2U8rMERKS2_
08038c88 W _ZN16CLR_RT_HeapBlock27CLR_RT_HeapBlock_AtomicData7Numeric2U8rSEj
08041eb0 T _ZN16CLR_RT_HeapBlock28AssignAndPinReferencedObjectERKS_
08043c10 T _ZN16CLR_RT_HeapBlock28SetTransparentProxyReferenceEP16CLR_RT_AppDomainPS_
080397b4 W _ZN16CLR_RT_HeapBlock29AssignPreserveTypeCheckPinnedERKS_
08041614 T _ZN16CLR_RT_HeapBlock30FixArrayReferenceForValueTypesEv
080415e4 T _ZN16CLR_RT_HeapBlock30InitializeArrayReferenceDirectER22CLR_RT_HeapBlock_Arrayi
0803930c W _ZN16CLR_RT_HeapBlock3BoxEv
08039280 W _ZN16CLR_RT_HeapBlock3PinEv
08039328 W _ZN16CLR_RT_HeapBlock5UnboxEv
0803929c W _ZN16CLR_RT_HeapBlock5UnpinEv
080214ec W _ZN16CLR_RT_HeapBlock6AssignERKS_
08039804 W _ZN16CLR_RT_HeapBlock7ConvertE12CLR_DataTypebb
08042494 T _ZN16CLR_RT_HeapBlock7PromoteEv
080392b8 W _ZN16CLR_RT_HeapBlock8MarkDeadEv
08041c8c T _ZN16CLR_RT_HeapBlock8ReassignERKS_
08027d48 W _ZN16CLR_RT_HeapBlock8SetFlagsEh
08039424 W _ZN16CLR_RT_HeapBlock8SetFloatEf
08026320 W _ZN16CLR_RT_HeapBlock9ClearDataEv
08027d70 W _ZN16CLR_RT_HeapBlock9MarkAliveEv
08021280 W _ZN16CLR_RT_HeapBlock9SetDataIdEj
0803944c W _ZN16CLR_RT_HeapBlock9SetDoubleEd
0804f864 T _ZN16CLR_RT_SubThread14CreateInstanceEP13CLR_RT_ThreadP17CLR_RT_StackFrameiRPS_
0804f8f4 T _ZN16CLR_RT_SubThread15DestroyInstanceEP13CLR_RT_ThreadPS_i
0804f9e8 T _ZN16CLR_RT_SubThread22ChangeLockRequestCountEi
0802a270 T _ZN16HAL_CONFIG_BLOCK11ApplyConfigEPKcPvj
0802a28c T _ZN16HAL_CONFIG_BLOCK11ApplyConfigEPKcPvjPS2_
0802a250 T _ZN16HAL_CONFIG_BLOCK19UpdateBlockWithNameEPKcPvjj
080311d4 T _ZN16HAL_CONTINUATION12UninitializeEv
0803109c T _ZN16HAL_CONTINUATION14InitializeListEv
080311a8 T _ZN16HAL_CONTINUATION18InitializeCallbackEPFvPvES0_
0803112c T _ZN16HAL_CONTINUATION19Dequeue_And_ExecuteEv
080310fc T _ZN16HAL_CONTINUATION5AbortEv
080310b0 T _ZN16HAL_CONTINUATION7EnqueueEv
0803a8d0 T _ZN17CLR_RT_EventCache11Append_NodeEP16CLR_RT_HeapBlock
0803ab94 T _ZN17CLR_RT_EventCache12Extract_NodeEjjj
0803ac50 T _ZN17CLR_RT_EventCache16FreeInlineBufferEP19CLR_RT_InlineBuffer
0803aab4 T _ZN17CLR_RT_EventCache17Extract_Node_FastEjjj
0803a944 T _ZN17CLR_RT_EventCache17Extract_Node_SlowEjjj
0803abd8 T _ZN17CLR_RT_EventCache17FindVirtualMethodERK20CLR_RT_TypeDef_IndexRK22CLR_RT_MethodDef_IndexRS3_
0803a818 T _ZN17CLR_RT_EventCache18EventCache_CleanupEv
0803ab58 T _ZN17CLR_RT_EventCache18Extract_Node_BytesEjjj
0803a3b0 T _ZN17CLR_RT_EventCache18VirtualMethodTable10InitializeEv
0803a2a8 W _ZN17CLR_RT_EventCache18VirtualMethodTable11GetNewEntryEv
0803a690 T _ZN17CLR_RT_EventCache18VirtualMethodTable14MoveEntryToTopEPNS_4LinkEjj
0803a4c0 T _ZN17CLR_RT_EventCache18VirtualMethodTable17FindVirtualMethodERK20CLR_RT_TypeDef_IndexRK22CLR_RT_MethodDef_IndexRS4_
0803ac04 T _ZN17CLR_RT_EventCache20GetInlineFrameBufferEPP19CLR_RT_InlineBuffer
0803a724 T _ZN17CLR_RT_EventCache21EventCache_InitializeEv
080577ac W _ZN17CLR_RT_StackFrame10MethodCallEv
080482d4 T _ZN17CLR_RT_StackFrame10PushInlineERPKhRP15CLR_RT_AssemblyRP16CLR_RT_HeapBlockR25CLR_RT_MethodDef_InstanceS7_
08039f70 W _ZN17CLR_RT_StackFrame10ResetStackEv
080698b0 W _ZN17CLR_RT_StackFrame11PushValueI4Ei
080495e8 T _ZN17CLR_RT_StackFrame12NegateResultEv
0804869c T _ZN17CLR_RT_StackFrame12RestoreStackER18CLR_RT_InlineFrame
080494cc T _ZN17CLR_RT_StackFrame12SetResult_I4Ei
080494f0 T _ZN17CLR_RT_StackFrame12SetResult_I8ERx
080494a4 T _ZN17CLR_RT_StackFrame12SetResult_R8Ed
08049514 T _ZN17CLR_RT_StackFrame12SetResult_U4Ej
08049620 T _ZN17CLR_RT_StackFrame12SetupTimeoutER16CLR_RT_HeapBlockRPx
08049560 T _ZN17CLR_RT_StackFrame16SetResult_ObjectEP16CLR_RT_HeapBlock
08049584 T _ZN17CLR_RT_StackFrame16SetResult_StringEPKc
0802164c W _ZN17CLR_RT_StackFrame16TopValuePositionEv
08039f8c W _ZN17CLR_RT_StackFrame17PushValueAndClearEv
08049538 T _ZN17CLR_RT_StackFrame17SetResult_BooleanEb
08048f80 T _ZN17CLR_RT_StackFrame18HandleSynchronizedEbb
08049828 T _ZN17CLR_RT_StackFrame18NotImplementedStubEv
08039fb4 W _ZN17CLR_RT_StackFrame18PushValueAndAssignERK16CLR_RT_HeapBlock
080495b0 T _ZN17CLR_RT_StackFrame22ConvertResultToBooleanEv
08048770 T _ZN17CLR_RT_StackFrame22PopAppDomainTransitionEv
08048618 T _ZN17CLR_RT_StackFrame22RestoreFromInlineStackEv
080489cc T _ZN17CLR_RT_StackFrame23PushAppDomainTransitionEP13CLR_RT_ThreadRK25CLR_RT_MethodDef_InstanceP16CLR_RT_HeapBlockS6_
080490b8 T _ZN17CLR_RT_StackFrame3PopEv
08047f3c T _ZN17CLR_RT_StackFrame4PushEP13CLR_RT_ThreadRK25CLR_RT_MethodDef_Instancei
08039fdc W _ZN17CLR_RT_StackFrame6CallerEv
08048d84 T _ZN17CLR_RT_StackFrame7FixCallEv
08048ae8 T _ZN17CLR_RT_StackFrame8MakeCallE25CLR_RT_MethodDef_InstanceP16CLR_RT_HeapBlockS2_i
08039f3c W _ZN17CLR_RT_StackFrame8PopValueEv
080496a4 T _ZN17CLR_RT_StackFrame8RelocateEv
08039eec W _ZN17CLR_RT_StackFrame8TopValueEv
08048564 T _ZN17CLR_RT_StackFrame9PopInlineEv
08039f08 W _ZN17CLR_RT_StackFrame9PushValueEv
08048718 T _ZN17CLR_RT_StackFrame9SaveStackER18CLR_RT_InlineFrame
08049478 T _ZN17CLR_RT_StackFrame9SetResultEi12CLR_DataType
08056058 T _ZN17CLR_RT_TypeSystem10ResolveAllEv
080559d0 T _ZN17CLR_RT_TypeSystem11FindTypeDefEPKcP15CLR_RT_AssemblyR20CLR_RT_TypeDef_Index
08055bf4 T _ZN17CLR_RT_TypeSystem11FindTypeDefEPKcP15CLR_RT_AssemblyR26CLR_RT_ReflectionDef_Index
08055824 T _ZN17CLR_RT_TypeSystem11FindTypeDefEPKcS1_P15CLR_RT_AssemblyR20CLR_RT_TypeDef_Index
080558d4 T _ZN17CLR_RT_TypeSystem11FindTypeDefEPKcS1_R20CLR_RT_TypeDef_Index
08055954 T _ZN17CLR_RT_TypeSystem11FindTypeDefEjR20CLR_RT_TypeDef_Index
0805576c T _ZN17CLR_RT_TypeSystem12FindAssemblyEPKcPK18CLR_RECORD_VERSIONb
080569d8 T _ZN17CLR_RT_TypeSystem13BuildTypeNameERK20CLR_RT_TypeDef_IndexRPcRj
08056a0c T _ZN17CLR_RT_TypeSystem13BuildTypeNameERK20CLR_RT_TypeDef_IndexRPcRjjj
08056c68 T _ZN17CLR_RT_TypeSystem14BuildFieldNameERK21CLR_RT_FieldDef_IndexRPcRj
08055f44 T _ZN17CLR_RT_TypeSystem14LocateResourceE24CLR_RT_Assembly_InstanceisRPK19CLR_RECORD_RESOURCERj
08056788 T _ZN17CLR_RT_TypeSystem14MatchSignatureER22CLR_RT_SignatureParserS1_
08056bc4 T _ZN17CLR_RT_TypeSystem15BuildMethodNameERK22CLR_RT_MethodDef_IndexRPcRj
08055ea8 T _ZN17CLR_RT_TypeSystem18LocateResourceFileE24CLR_RT_Assembly_InstancePKcRi
08055630 T _ZN17CLR_RT_TypeSystem18TypeSystem_CleanupEv
080566c4 T _ZN17CLR_RT_TypeSystem19PrepareForExecutionEv
0805697c T _ZN17CLR_RT_TypeSystem19QueueStringToBufferERPcRjPKc
08056e58 T _ZN17CLR_RT_TypeSystem20FindVirtualMethodDefERK20CLR_RT_TypeDef_IndexRK22CLR_RT_MethodDef_IndexPKcRS3_
08056d0c T _ZN17CLR_RT_TypeSystem20FindVirtualMethodDefERK20CLR_RT_TypeDef_IndexRK22CLR_RT_MethodDef_IndexRS3_
080567d0 T _ZN17CLR_RT_TypeSystem20MatchSignatureDirectER22CLR_RT_SignatureParserS1_b
0805687c T _ZN17CLR_RT_TypeSystem21MatchSignatureElementERN22CLR_RT_SignatureParser7ElementES2_b
08055718 T _ZN17CLR_RT_TypeSystem21PostLinkageProcessingEP15CLR_RT_Assembly
08055600 T _ZN17CLR_RT_TypeSystem21TypeSystem_InitializeEv
08056fb0 T _ZN17CLR_RT_TypeSystem24MapDataTypeToElementTypeE12CLR_DataType
08056644 T _ZN17CLR_RT_TypeSystem25PrepareForExecutionHelperEPKc
08055694 T _ZN17CLR_RT_TypeSystem4LinkEP15CLR_RT_Assembly
0806db60 W _ZN17CLR_RT_TypedArrayIhE9GetBufferEv
0806db38 W _ZN17CLR_RT_TypedArrayIhEC1Ev
0806ef88 W _ZN17CLR_RT_TypedArrayItE8SetValueEjRt
0806ef60 W _ZN17CLR_RT_TypedArrayItEC1Ev
08031214 W _ZN17HAL_DblLinkedListI16HAL_CONTINUATIONE10InitializeEv
08031358 W _ZN17HAL_DblLinkedListI16HAL_CONTINUATIONE10LinkAtBackEPS0_
0803132c W _ZN17HAL_DblLinkedListI16HAL_CONTINUATIONE16ExtractFirstNodeEv
080312bc W _ZN17HAL_DblLinkedListI16HAL_CONTINUATIONE16InsertBeforeNodeEPS0_S2_
080313ec W _ZN17HAL_DblLinkedListI16HAL_CONTINUATIONE6InsertEPS0_S2_S2_
08038550 W _ZN17HAL_DblLinkedListI16PalEventListenerE10InitializeEv
08029968 W _ZN17HAL_DblLinkedListI18BlockStorageDeviceE10InitializeEv
08029a34 W _ZN17HAL_DblLinkedListI18BlockStorageDeviceE10LinkAtBackEPS0_
08029ad8 W _ZN17HAL_DblLinkedListI18BlockStorageDeviceE16InsertBeforeNodeEPS0_S2_
08029b58 W _ZN17HAL_DblLinkedListI18BlockStorageDeviceE6InsertEPS0_S2_S2_
0802a698 W _ZN17HAL_DblLinkedNodeI16HAL_CONTINUATIONE10InitializeEv
080313b4 W _ZN17HAL_DblLinkedNodeI16HAL_CONTINUATIONE14RemoveFromListEv
08031274 W _ZN17HAL_DblLinkedNodeI16HAL_CONTINUATIONE6UnlinkEv
08029a10 W _ZN17HAL_DblLinkedNodeI18BlockStorageDeviceE10InitializeEv
08029b20 W _ZN17HAL_DblLinkedNodeI18BlockStorageDeviceE14RemoveFromListEv
080299c8 W _ZN17HAL_DblLinkedNodeI18BlockStorageDeviceE6UnlinkEv
0806ff38 W _ZN17RadioEventHandler17GetRecieveHandlerEv
0806ff50 W _ZN17RadioEventHandler17GetSendAckHandlerEv
0806e0f4 W _ZN17RadioEventHandler17SetRecieveHandlerEPFPvS0_tE
0806ff00 W _ZN17RadioEventHandler17SetSendAckHandlerEPFvPvt11NetOpStatusE
0806ff1c W _ZN17RadioEventHandler24SetRadioInterruptHandlerEPFj14RadioInterruptPvE
08034ed8 T _ZN17STM32_AITC_Driver10InitializeEv
20000000 D _ZN17STM32_AITC_Driver10s_IsrTableE
08036618 T _ZN17STM32_AITC_Driver14IRQToIRQVectorEj
08036658 T _ZN17STM32_AITC_Driver14STUB_ISRVectorEPv
08034f9c T _ZN17STM32_AITC_Driver17ActivateInterruptEjjPFvPvES0_
08035010 T _ZN17STM32_AITC_Driver19DeactivateInterruptEj
080365f4 T _ZN17STM32_AITC_Driver20InterruptEnableStateEj
08020454 W _ZN18BlockStorageDevice13GetDeviceInfoEv
08020ea4 W _ZN18BlockStorageDevice13IsBlockErasedEjj
08028b7c W _ZN18BlockStorageDevice16InitializeDeviceEv
08028bc4 W _ZN18BlockStorageDevice17FindForBlockUsageEjRjS0_S0_
08028bf8 W _ZN18BlockStorageDevice18FindNextUsageBlockEjRjS0_S0_
08020f4c W _ZN18BlockStorageDevice18MaxBlockErase_uSecEv
08028ba0 W _ZN18BlockStorageDevice18UninitializeDeviceEv
08020f28 W _ZN18BlockStorageDevice19MaxSectorWrite_uSecEv
08020ef8 W _ZN18BlockStorageDevice21FindRegionFromAddressEjRjS0_
08020478 W _ZN18BlockStorageDevice4ReadEjjPh
08020e70 W _ZN18BlockStorageDevice5WriteEjjPhj
08029000 T _ZN18BlockStorageStream10InitializeEj
08029024 T _ZN18BlockStorageStream10InitializeEjP18BlockStorageDevice
080292dc T _ZN18BlockStorageStream10NextStreamEv
080290f0 T _ZN18BlockStorageStream10PrevStreamEv
080290d0 T _ZN18BlockStorageStream14CurrentAddressEv
08029610 T _ZN18BlockStorageStream4ReadEPPhj
080294e8 T _ZN18BlockStorageStream4SeekEiNS_10SeekOriginE
0804734c T _ZN18CLR_RT_HeapCluster13ExtractBlocksEjjj
080476c8 T _ZN18CLR_RT_HeapCluster13InsertInOrderEP21CLR_RT_HeapBlock_Nodej
0804753c T _ZN18CLR_RT_HeapCluster13RecoverFromGCEv
08039e3c W _ZN18CLR_RT_HeapCluster13ValidateBlockEP16CLR_RT_HeapBlock
08047220 T _ZN18CLR_RT_HeapCluster22HeapCluster_InitializeEjj
08031f40 T _ZN18STM32F10x_blDriver10EraseBlockEPvj
08031ca0 T _ZN18STM32F10x_blDriver13GetDeviceInfoEPv
08031f10 T _ZN18STM32F10x_blDriver13IsBlockErasedEPvjj
08032054 T _ZN18STM32F10x_blDriver13SetPowerStateEPvj
08031c70 T _ZN18STM32F10x_blDriver16InitializeDeviceEPv
08031ed8 T _ZN18STM32F10x_blDriver17GetSectorMetadataEPvjP14SectorMetadata
08031ef4 T _ZN18STM32F10x_blDriver17SetSectorMetadataEPvjP14SectorMetadata
08032088 T _ZN18STM32F10x_blDriver18MaxBlockErase_uSecEPv
08031c88 T _ZN18STM32F10x_blDriver18UninitializeDeviceEPv
08032068 T _ZN18STM32F10x_blDriver19MaxSectorWrite_uSecEPv
08031cbc T _ZN18STM32F10x_blDriver4ReadEPvjjPh
08031ce0 T _ZN18STM32F10x_blDriver5WriteEPvjjPhj
08031e0c T _ZN18STM32F10x_blDriver6MemsetEPvjhj
080529a4 T _ZN19CLR_RECORD_ASSEMBLY19ComputeAssemblyHashEPKcRK18CLR_RECORD_VERSION
08030908 W _ZN19Hal_Queue_KnownSizeI12USB_PACKET64Lj2EE10InitializeEv
08030a60 W _ZN19Hal_Queue_KnownSizeI12USB_PACKET64Lj2EE16NumberOfElementsEv
080309f0 W _ZN19Hal_Queue_KnownSizeI12USB_PACKET64Lj2EE3PopEv
080309a4 W _ZN19Hal_Queue_KnownSizeI12USB_PACKET64Lj2EE4PeekEv
08030934 W _ZN19Hal_Queue_KnownSizeI12USB_PACKET64Lj2EE4PushEv
08030aac W _ZN19Hal_Queue_KnownSizeI12USB_PACKET64Lj2EE7IsEmptyEv
0806e110 W _ZN19IEEE802_15_4_Header9GetLengthEv
0806ff68 W _ZN19IEEE802_15_4_Header9SetLengthEh
08072314 T _ZN19LCD_PCF85162_Driver10InitializeEv
08072438 T _ZN19LCD_PCF85162_Driver12UninitializeEv
08072a48 T _ZN19LCD_PCF85162_Driver13WriteRawBytesEiiii
08072c50 T _ZN19LCD_PCF85162_Driver5BlinkEi
08072720 T _ZN19LCD_PCF85162_Driver5SetDPEbbbb
08072480 T _ZN19LCD_PCF85162_Driver5WriteEiiii
0807276c T _ZN19LCD_PCF85162_Driver6WriteNEii
08026538 W _ZN20CLR_RT_DblLinkedList10LinkAtBackEP21CLR_RT_HeapBlock_Node
0804117c T _ZN20CLR_RT_DblLinkedList10NumOfNodesEv
08026514 W _ZN20CLR_RT_DblLinkedList11LinkAtFrontEP21CLR_RT_HeapBlock_Node
08026440 W _ZN20CLR_RT_DblLinkedList12ValidateListEv
080264cc W _ZN20CLR_RT_DblLinkedList15InsertAfterNodeEP21CLR_RT_HeapBlock_NodeS1_
08039908 W _ZN20CLR_RT_DblLinkedList16ExtractFirstNodeEv
08026484 W _ZN20CLR_RT_DblLinkedList16InsertBeforeNodeEP21CLR_RT_HeapBlock_NodeS1_
0804114c T _ZN20CLR_RT_DblLinkedList21DblLinkedList_ReleaseEv
080410e0 T _ZN20CLR_RT_DblLinkedList24DblLinkedList_InitializeEv
08041110 T _ZN20CLR_RT_DblLinkedList25DblLinkedList_PushToCacheEv
08026454 W _ZN20CLR_RT_DblLinkedList6InsertEP21CLR_RT_HeapBlock_NodeS1_S1_
080411d0 T _ZN20CLR_RT_DblLinkedList8RelocateEv
08039938 W _ZN20CLR_RT_DblLinkedListC1Ev
08021770 W _ZN20CLR_RT_EmulatorHooks28Notify_ExecutionStateChangedEv
0803f294 T _ZN20CLR_RT_ProtectFromGC10InitializeEPPvPFvS0_E
0803f234 T _ZN20CLR_RT_ProtectFromGC10InitializeER16CLR_RT_HeapBlock
0803f310 T _ZN20CLR_RT_ProtectFromGC6InvokeEv
0803f2d8 T _ZN20CLR_RT_ProtectFromGC7CleanupEv
20002b30 B _ZN20CLR_RT_ProtectFromGC7s_firstE
0803f358 T _ZN20CLR_RT_ProtectFromGC9InvokeAllEv
08039ff8 W _ZN20CLR_RT_ProtectFromGCC1EPPvPFvS0_E
08021694 W _ZN20CLR_RT_ProtectFromGCC1ER16CLR_RT_HeapBlock
080216b4 W _ZN20CLR_RT_ProtectFromGCD1Ev
08020fd8 W _ZN20CLR_RT_TypeDef_Index3SetEjj
080388f4 W _ZN20CLR_RT_TypeDef_Index5ClearEv
08039be0 W _ZN20CLR_RT_UnicodeHelper12SetInputUTF8EPKc
08049ebc T _ZN20CLR_RT_UnicodeHelper13ConvertToUTF8Eib
08039bfc W _ZN20CLR_RT_UnicodeHelper13SetInputUTF16EPKt
08049aec T _ZN20CLR_RT_UnicodeHelper15ConvertFromUTF8Eibi
08049a04 T _ZN20CLR_RT_UnicodeHelper18CountNumberOfBytesEi
08049858 T _ZN20CLR_RT_UnicodeHelper23CountNumberOfCharactersEi
080315e0 T _ZN20FileSystemVolumeList10InitializeEv
080315ec T _ZN20FileSystemVolumeList17InitializeVolumesEv
080315fc T _ZN20FileSystemVolumeList19UninitializeVolumesEv
08031654 W _ZN20I2C_HAL_XACTION_UNIT10CopyBufferEPhj
0803190c T _ZN20I2C_HAL_XACTION_UNIT10InitializeEPhS0_jj
080316b4 W _ZN20I2C_HAL_XACTION_UNIT16TransferredBytesEv
080316cc W _ZN20I2C_HAL_XACTION_UNIT17IsReadXActionUnitEv
08020f98 W _ZN21CLR_RT_Assembly_Index3SetEj
0802103c W _ZN21CLR_RT_FieldDef_Index3SetEjj
08038910 W _ZN21CLR_RT_FieldDef_Index5ClearEv
08045798 T _ZN21CLR_RT_HeapBlock_Lock11ChangeOwnerEv
08045720 T _ZN21CLR_RT_HeapBlock_Lock12DestroyOwnerEP16CLR_RT_SubThread
08045634 T _ZN21CLR_RT_HeapBlock_Lock14CreateInstanceERPS_P13CLR_RT_ThreadR16CLR_RT_HeapBlock
08045a94 T _ZN21CLR_RT_HeapBlock_Lock14Relocate_OwnerEv
080459bc T _ZN21CLR_RT_HeapBlock_Lock18DecrementOwnershipEPS_P16CLR_RT_SubThread
080458dc T _ZN21CLR_RT_HeapBlock_Lock18IncrementOwnershipEPS_P16CLR_RT_SubThreadRKxb
08045a78 T _ZN21CLR_RT_HeapBlock_Lock8RelocateEv
08026374 W _ZN21CLR_RT_HeapBlock_Node14RemoveFromListEv
0802635c W _ZN21CLR_RT_HeapBlock_Node22ConsistencyCheck_NodesEPS_S0_
08039870 W _ZN21CLR_RT_HeapBlock_Node22GenericNode_InitializeEv
080263b4 W _ZN21CLR_RT_HeapBlock_Node6UnlinkEv
08027d8c W _ZN21CLR_RT_HeapBlock_Node7SetNextEPS_
08027da8 W _ZN21CLR_RT_HeapBlock_Node7SetPrevEPS_
08045b28 T _ZN21CLR_RT_HeapBlock_Node8RelocateEv
080526d0 T _ZN21CLR_RT_TypeDescriptor14ConvertToArrayEv
0805270c T _ZN21CLR_RT_TypeDescriptor14GetElementTypeERS_
08052278 T _ZN21CLR_RT_TypeDescriptor18InitializeFromTypeERK20CLR_RT_TypeDef_Index
08052470 T _ZN21CLR_RT_TypeDescriptor20InitializeFromObjectERK16CLR_RT_HeapBlock
08052108 T _ZN21CLR_RT_TypeDescriptor22InitializeFromDataTypeE12CLR_DataType
08052220 T _ZN21CLR_RT_TypeDescriptor22InitializeFromTypeSpecERK21CLR_RT_TypeSpec_Index
0805276c T _ZN21CLR_RT_TypeDescriptor24ExtractObjectAndDataTypeERP16CLR_RT_HeapBlockR12CLR_DataType
080521ac T _ZN21CLR_RT_TypeDescriptor24InitializeFromReflectionERK26CLR_RT_ReflectionDef_Index
080527d0 T _ZN21CLR_RT_TypeDescriptor26ExtractTypeIndexFromObjectERK16CLR_RT_HeapBlockR20CLR_RT_TypeDef_Index
080523a8 T _ZN21CLR_RT_TypeDescriptor29InitializeFromFieldDefinitionERK24CLR_RT_FieldDef_Instance
080523e4 T _ZN21CLR_RT_TypeDescriptor29InitializeFromSignatureParserER22CLR_RT_SignatureParser
08038890 W _ZN21CLR_RT_TypeSpec_Index3SetEjj
08038874 W _ZN21CLR_RT_TypeSpec_Index5ClearEv
08061d94 W _ZN21Hal_Queue_UnknownSizeIN15CLR_HW_Hardware18HalInterruptRecordEE10InitializeEPS1_j
080623d8 W _ZN21Hal_Queue_UnknownSizeIN15CLR_HW_Hardware18HalInterruptRecordEE16NumberOfElementsEv
08062428 W _ZN21Hal_Queue_UnknownSizeIN15CLR_HW_Hardware18HalInterruptRecordEE3PopEv
08062fb4 W _ZN21Hal_Queue_UnknownSizeIN15CLR_HW_Hardware18HalInterruptRecordEE4PeekEv
08062498 W _ZN21Hal_Queue_UnknownSizeIN15CLR_HW_Hardware18HalInterruptRecordEE4PushEv
08062ff8 W _ZN21Hal_Queue_UnknownSizeIN15CLR_HW_Hardware18HalInterruptRecordEE7IsEmptyEv
0802f02c W _ZN21Hal_Queue_UnknownSizeIhE10InitializeEPhj
0802f1fc W _ZN21Hal_Queue_UnknownSizeIhE16NumberOfElementsEv
0802f128 W _ZN21Hal_Queue_UnknownSizeIhE3PopERj
0802efc8 W _ZN21Hal_Queue_UnknownSizeIhE3PopEv
0802f068 W _ZN21Hal_Queue_UnknownSizeIhE4PushERj
0802f280 W _ZN21Hal_Queue_UnknownSizeIhE4PushEv
0802f24c W _ZN21Hal_Queue_UnknownSizeIhE7IsEmptyEv
0806ff84 W _ZN21IEEE802_15_4_Metadata7SetRssiEs
0802a8a4 T _ZN21STM32F1x_Power_Driver10High_PowerEv
0802a900 T _ZN21STM32F1x_Power_Driver4HaltEv
0802a850 T _ZN21STM32F1x_Power_Driver9Low_PowerEv
0802f2e4 W _ZN21USB_DESCRIPTOR_HEADER4nextEPKS_
0806304c T _ZN22CLR_RT_BinaryFormatter11DeserializeER16CLR_RT_HeapBlockS1_PS0_Pjj
0806302c T _ZN22CLR_RT_BinaryFormatter9SerializeER16CLR_RT_HeapBlockS1_PS0_j
0803dfbc T _ZN22CLR_RT_ExecutionEngine10CastToTypeER16CLR_RT_HeapBlockjP15CLR_RT_Assemblyb
0803da40 T _ZN22CLR_RT_ExecutionEngine10LockObjectER16CLR_RT_HeapBlockP16CLR_RT_SubThreadRKxb
0803b910 T _ZN22CLR_RT_ExecutionEngine10SpawnTimerEv
0803f0e4 T _ZN22CLR_RT_ExecutionEngine10UpdateTimeEv
0803db10 T _ZN22CLR_RT_ExecutionEngine10WaitEventsEP13CLR_RT_ThreadRKxjRb
0803d710 T _ZN22CLR_RT_ExecutionEngine11CheckTimersERx
0803d0d4 T _ZN22CLR_RT_ExecutionEngine11CloneObjectER16CLR_RT_HeapBlockRKS0_
0803e030 T _ZN22CLR_RT_ExecutionEngine11InitTimeoutERxRKx
0803e0ac T _ZN22CLR_RT_ExecutionEngine11InitTimeoutERxi
0803d7c8 T _ZN22CLR_RT_ExecutionEngine12CheckThreadsERxR20CLR_RT_DblLinkedList
0803e144 T _ZN22CLR_RT_ExecutionEngine12DebuggerLoopEv
0803def0 T _ZN22CLR_RT_ExecutionEngine12IsInstanceOfER16CLR_RT_HeapBlockP15CLR_RT_Assemblyj
0803de8c T _ZN22CLR_RT_ExecutionEngine12IsInstanceOfER16CLR_RT_HeapBlockRK20CLR_RT_TypeDef_Index
0803dc6c T _ZN22CLR_RT_ExecutionEngine12IsInstanceOfER21CLR_RT_TypeDescriptorS1_
0803de28 T _ZN22CLR_RT_ExecutionEngine12IsInstanceOfERK20CLR_RT_TypeDef_IndexS2_
0803d554 T _ZN22CLR_RT_ExecutionEngine12ProcessTimerEv
0803dbb0 T _ZN22CLR_RT_ExecutionEngine12SignalEventsER20CLR_RT_DblLinkedListj
0803dc38 T _ZN22CLR_RT_ExecutionEngine12SignalEventsEj
0803daa4 T _ZN22CLR_RT_ExecutionEngine12UnlockObjectER16CLR_RT_HeapBlockP16CLR_RT_SubThread
0803af50 T _ZN22CLR_RT_ExecutionEngine13AllocateHeapsEv
0803d1f4 T _ZN22CLR_RT_ExecutionEngine13CopyValueTypeEP16CLR_RT_HeapBlockPKS0_
0803d690 T _ZN22CLR_RT_ExecutionEngine13IsTimeExpiredERKxRxb
0803b14c T _ZN22CLR_RT_ExecutionEngine13StartHardwareEv
0803ad2c T _ZN22CLR_RT_ExecutionEngine14CreateInstanceEv
0803b030 T _ZN22CLR_RT_ExecutionEngine14DeleteInstanceEv
0803d374 T _ZN22CLR_RT_ExecutionEngine14FindLockObjectER16CLR_RT_HeapBlock
0803d2c0 T _ZN22CLR_RT_ExecutionEngine14FindLockObjectER20CLR_RT_DblLinkedListR16CLR_RT_HeapBlock
0803bcd0 T _ZN22CLR_RT_ExecutionEngine14SpawnFinalizerEv
20002b18 B _ZN22CLR_RT_ExecutionEngine14s_compensationE
0803c3cc T _ZN22CLR_RT_ExecutionEngine15AbortAllThreadsER20CLR_RT_DblLinkedList
0803c5bc T _ZN22CLR_RT_ExecutionEngine15GetNextThreadIdEv
0803d534 T _ZN22CLR_RT_ExecutionEngine15ProcessHardwareEv
0803c338 T _ZN22CLR_RT_ExecutionEngine15PutInProperListEP13CLR_RT_Thread
0803bf8c T _ZN22CLR_RT_ExecutionEngine15ScheduleThreadsEi
0803f01c T _ZN22CLR_RT_ExecutionEngine15UnloadAppDomainEP16CLR_RT_AppDomainP13CLR_RT_Thread
0803c300 T _ZN22CLR_RT_ExecutionEngine15WaitForActivityEjjx
0803c208 T _ZN22CLR_RT_ExecutionEngine15WaitForActivityEv
0803b59c T _ZN22CLR_RT_ExecutionEngine15WaitForDebuggerEv
0803cb58 T _ZN22CLR_RT_ExecutionEngine16InitializeLocalsEP16CLR_RT_HeapBlockP15CLR_RT_AssemblyPK20CLR_RECORD_METHODDEF
0803e2bc T _ZN22CLR_RT_ExecutionEngine16StopOnBreakpointERN16CLR_DBG_Commands33Debugging_Execution_BreakpointDefEP13CLR_RT_Thread
0803e3c0 T _ZN22CLR_RT_ExecutionEngine16StopOnBreakpointERN16CLR_DBG_Commands33Debugging_Execution_BreakpointDefEP17CLR_RT_StackFramePKh
0803f198 T _ZN22CLR_RT_ExecutionEngine16WaitSystemEventsEjjx
0803c9b4 T _ZN22CLR_RT_ExecutionEngine17AccessStaticFieldERK21CLR_RT_FieldDef_Index
0803c820 T _ZN22CLR_RT_ExecutionEngine17ExtractHeapBlocksER20CLR_RT_DblLinkedListjjj
0803c428 T _ZN22CLR_RT_ExecutionEngine17ReleaseAllThreadsER20CLR_RT_DblLinkedList
0803d3fc T _ZN22CLR_RT_ExecutionEngine18DeleteLockRequestsEP13CLR_RT_ThreadP16CLR_RT_SubThread
0803d450 T _ZN22CLR_RT_ExecutionEngine18DeleteLockRequestsEP13CLR_RT_ThreadP16CLR_RT_SubThreadR20CLR_RT_DblLinkedList
0803b8bc T _ZN22CLR_RT_ExecutionEngine18EnsureSystemThreadERP13CLR_RT_Threadi
0803e210 T _ZN22CLR_RT_ExecutionEngine18InstallBreakpointsEPN16CLR_DBG_Commands33Debugging_Execution_BreakpointDefEj
0803ce08 T _ZN22CLR_RT_ExecutionEngine18NewObjectFromIndexER16CLR_RT_HeapBlockRK20CLR_RT_TypeDef_Index
0803ef18 T _ZN22CLR_RT_ExecutionEngine19GetCurrentAppDomainEv
0803cb1c T _ZN22CLR_RT_ExecutionEngine19InitializeReferenceER16CLR_RT_HeapBlockPK19CLR_RECORD_FIELDDEFP15CLR_RT_Assembly
0803ca3c T _ZN22CLR_RT_ExecutionEngine19InitializeReferenceER16CLR_RT_HeapBlockR22CLR_RT_SignatureParser
0803eef0 T _ZN22CLR_RT_ExecutionEngine19SetCurrentAppDomainEP16CLR_RT_AppDomain
0803ee14 T _ZN22CLR_RT_ExecutionEngine20Breakpoint_ExceptionEP17CLR_RT_StackFramejPKh
0803d674 T _ZN22CLR_RT_ExecutionEngine20InvalidateTimerCacheEv
0803b2c0 T _ZN22CLR_RT_ExecutionEngine21PerformHeapCompactionEv
0803be64 T _ZN22CLR_RT_ExecutionEngine21RetrieveCurrentMethodERjS0_
0803b464 T _ZN22CLR_RT_ExecutionEngine21TryToUnloadAppDomainsEv
0803bddc T _ZN22CLR_RT_ExecutionEngine22AdjustExecutionCounterER20CLR_RT_DblLinkedListi
0803c454 T _ZN22CLR_RT_ExecutionEngine22InsertThreadRoundRobinER20CLR_RT_DblLinkedListP13CLR_RT_Thread
0803badc T _ZN22CLR_RT_ExecutionEngine22SpawnStaticConstructorERP13CLR_RT_Thread
0803e4c8 T _ZN22CLR_RT_ExecutionEngine23Breakpoint_System_EventERN16CLR_DBG_Commands33Debugging_Execution_BreakpointDefEtP13CLR_RT_ThreadP17CLR_RT_StackFramePKh
0803e428 T _ZN22CLR_RT_ExecutionEngine23DequeueActiveBreakpointERN16CLR_DBG_Commands33Debugging_Execution_BreakpointDefE
0803b054 T _ZN22CLR_RT_ExecutionEngine23ExecutionEngine_CleanupEv
0803b250 T _ZN22CLR_RT_ExecutionEngine24PerformGarbageCollectionEv
0803ea88 T _ZN22CLR_RT_ExecutionEngine25Breakpoint_StackFrame_PopEP17CLR_RT_StackFrameb
0803e8a0 T _ZN22CLR_RT_ExecutionEngine25Breakpoint_Thread_CreatedEP13CLR_RT_Thread
0803c5e8 T _ZN22CLR_RT_ExecutionEngine25ExtractHeapBlocksForArrayER23CLR_RT_TypeDef_InstancejRK26CLR_RT_ReflectionDef_Index
0803ece8 T _ZN22CLR_RT_ExecutionEngine26Breakpoint_StackFrame_HardEP17CLR_RT_StackFramePKh
0803e8e0 T _ZN22CLR_RT_ExecutionEngine26Breakpoint_StackFrame_PushEP17CLR_RT_StackFramej
0803ebdc T _ZN22CLR_RT_ExecutionEngine26Breakpoint_StackFrame_StepEP17CLR_RT_StackFramePKh
0803e624 T _ZN22CLR_RT_ExecutionEngine26Breakpoint_Threads_PrepareER20CLR_RT_DblLinkedList
0803b23c T _ZN22CLR_RT_ExecutionEngine26ExecutionConstraint_ResumeEv
0803ad70 T _ZN22CLR_RT_ExecutionEngine26ExecutionEngine_InitializeEv
0803c7c8 T _ZN22CLR_RT_ExecutionEngine26ExtractHeapBlocksForEventsEjjj
0803c728 T _ZN22CLR_RT_ExecutionEngine26ExtractHeapBytesForObjectsEjjj
0803edd4 T _ZN22CLR_RT_ExecutionEngine27Breakpoint_StackFrame_BreakEP17CLR_RT_StackFrame
0803b228 T _ZN22CLR_RT_ExecutionEngine27ExecutionConstraint_SuspendEv
0803c764 T _ZN22CLR_RT_ExecutionEngine27ExtractHeapBlocksForObjectsEjjj
0803e188 T _ZN22CLR_RT_ExecutionEngine27SetDebuggingInfoBreakpointsEb
0803e594 T _ZN22CLR_RT_ExecutionEngine28Breakpoint_Assemblies_LoadedEv
0803e844 T _ZN22CLR_RT_ExecutionEngine28Breakpoint_Thread_TerminatedEP13CLR_RT_Thread
0803bcb4 T _ZN22CLR_RT_ExecutionEngine28FinalizerTerminationCallbackEPv
0803b9c0 T _ZN22CLR_RT_ExecutionEngine28SpawnStaticConstructorHelperEP16CLR_RT_AppDomainP24CLR_RT_AppDomainAssemblyRK22CLR_RT_MethodDef_Index
0803ee58 T _ZN22CLR_RT_ExecutionEngine29Breakpoint_Exception_UncaughtEP13CLR_RT_Thread
0803a308 W _ZN22CLR_RT_ExecutionEngine31ExecutionConstraintCompensation6ResumeEv
0803a2d0 W _ZN22CLR_RT_ExecutionEngine31ExecutionConstraintCompensation7SuspendEv
0803eea4 T _ZN22CLR_RT_ExecutionEngine32Breakpoint_Exception_InterceptedEP17CLR_RT_StackFrame
0803ef34 T _ZN22CLR_RT_ExecutionEngine32PrepareThreadsForAppDomainUnloadEP16CLR_RT_AppDomainR20CLR_RT_DblLinkedList
0803b99c T _ZN22CLR_RT_ExecutionEngine36StaticConstructorTerminationCallbackEPv
0803b360 T _ZN22CLR_RT_ExecutionEngine36TryToUnloadAppDomains_Helper_ThreadsER20CLR_RT_DblLinkedList
0803c6bc T _ZN22CLR_RT_ExecutionEngine37ExtractHeapBlocksForClassOrValueTypesEjjRK20CLR_RT_TypeDef_Indexj
0803b3e8 T _ZN22CLR_RT_ExecutionEngine39TryToUnloadAppDomains_Helper_FinalizersER20CLR_RT_DblLinkedListb
0803dad4 T _ZN22CLR_RT_ExecutionEngine5SleepEP13CLR_RT_ThreadRKx
0803b170 T _ZN22CLR_RT_ExecutionEngine6RebootEb
0803b600 T _ZN22CLR_RT_ExecutionEngine7ExecuteEPwi
0803b320 T _ZN22CLR_RT_ExecutionEngine8RelocateEv
0803b204 T _ZN22CLR_RT_ExecutionEngine9GetUptimeEv
0803ce54 T _ZN22CLR_RT_ExecutionEngine9NewObjectER16CLR_RT_HeapBlockRK23CLR_RT_TypeDef_Instance
0803c52c T _ZN22CLR_RT_ExecutionEngine9NewThreadERP13CLR_RT_ThreadP25CLR_RT_HeapBlock_Delegateiij
08044170 T _ZN22CLR_RT_HeapBlock_Array10CheckRangeEiii
08021594 W _ZN22CLR_RT_HeapBlock_Array10GetElementEj
08044044 T _ZN22CLR_RT_HeapBlock_Array13ClearElementsEii
08043f94 T _ZN22CLR_RT_HeapBlock_Array14CreateInstanceER16CLR_RT_HeapBlockjP15CLR_RT_Assemblyj
08043f58 T _ZN22CLR_RT_HeapBlock_Array14CreateInstanceER16CLR_RT_HeapBlockjRK20CLR_RT_TypeDef_Index
08043e5c T _ZN22CLR_RT_HeapBlock_Array14CreateInstanceER16CLR_RT_HeapBlockjRK26CLR_RT_ReflectionDef_Index
08021578 W _ZN22CLR_RT_HeapBlock_Array15GetFirstElementEv
08044380 T _ZN22CLR_RT_HeapBlock_Array4CopyEPS_iS0_ii
080441c8 T _ZN22CLR_RT_HeapBlock_Array7IndexOfEPS_R16CLR_RT_HeapBlockiibRi
08044140 T _ZN22CLR_RT_HeapBlock_Array8RelocateEv
08045e34 T _ZN22CLR_RT_HeapBlock_Queue14ObjArrayMemcpyEP22CLR_RT_HeapBlock_ArrayiS1_ii
08039a8c W _ZN22CLR_RT_HeapBlock_Queue4HeadEv
08045d08 T _ZN22CLR_RT_HeapBlock_Queue4PeekERP16CLR_RT_HeapBlock
08045d68 T _ZN22CLR_RT_HeapBlock_Queue5ClearEv
08045e84 T _ZN22CLR_RT_HeapBlock_Queue6CopyToEP22CLR_RT_HeapBlock_Arrayi
08045b50 T _ZN22CLR_RT_HeapBlock_Queue7DequeueERP16CLR_RT_HeapBlock
08045be8 T _ZN22CLR_RT_HeapBlock_Queue7EnqueueEP16CLR_RT_HeapBlock
08039a48 W _ZN22CLR_RT_HeapBlock_Queue7GetSizeEv
08039ab0 W _ZN22CLR_RT_HeapBlock_Queue7GetTailEv
08039af8 W _ZN22CLR_RT_HeapBlock_Queue7SetHeadEi
08039b38 W _ZN22CLR_RT_HeapBlock_Queue7SetSizeEi
08039b18 W _ZN22CLR_RT_HeapBlock_Queue7SetTailEi
08039a6c W _ZN22CLR_RT_HeapBlock_Queue8GetArrayEv
08039ad4 W _ZN22CLR_RT_HeapBlock_Queue8SetArrayEP22CLR_RT_HeapBlock_Array
08045f74 T _ZN22CLR_RT_HeapBlock_Stack3PopERP16CLR_RT_HeapBlock
080460f8 T _ZN22CLR_RT_HeapBlock_Stack4PeekERP16CLR_RT_HeapBlock
08045fec T _ZN22CLR_RT_HeapBlock_Stack4PushEP16CLR_RT_HeapBlock
08046158 T _ZN22CLR_RT_HeapBlock_Stack5ClearEv
08039b58 W _ZN22CLR_RT_HeapBlock_Stack7GetSizeEv
08039bc0 W _ZN22CLR_RT_HeapBlock_Stack7SetSizeEi
08039b7c W _ZN22CLR_RT_HeapBlock_Stack8GetArrayEv
08039b9c W _ZN22CLR_RT_HeapBlock_Stack8SetArrayEP22CLR_RT_HeapBlock_Array
080466fc T _ZN22CLR_RT_HeapBlock_Timer10RescheduleEv
08046554 T _ZN22CLR_RT_HeapBlock_Timer10SpawnTimerEP13CLR_RT_Thread
080468d0 T _ZN22CLR_RT_HeapBlock_Timer13CheckDisposedER17CLR_RT_StackFrame
080464f0 T _ZN22CLR_RT_HeapBlock_Timer13RecoverFromGCEv
080463d8 T _ZN22CLR_RT_HeapBlock_Timer14CreateInstanceEjR16CLR_RT_HeapBlockS1_
08046924 T _ZN22CLR_RT_HeapBlock_Timer15ConfigureObjectER17CLR_RT_StackFramej
080464b0 T _ZN22CLR_RT_HeapBlock_Timer15ExtractInstanceER16CLR_RT_HeapBlockRPS_
080467b0 T _ZN22CLR_RT_HeapBlock_Timer21AdjustNextFixedExpireERK10SYSTEMTIMEb
080466c8 T _ZN22CLR_RT_HeapBlock_Timer25ThreadTerminationCallbackEPv
08046510 T _ZN22CLR_RT_HeapBlock_Timer7TriggerEv
080210bc W _ZN22CLR_RT_MethodDef_Index3SetEjj
080210a0 W _ZN22CLR_RT_MethodDef_Index5ClearEv
0805146c T _ZN22CLR_RT_SignatureParser18Initialize_ObjectsEP16CLR_RT_HeapBlockib
08051338 T _ZN22CLR_RT_SignatureParser19Initialize_FieldDefEP15CLR_RT_AssemblyPK19CLR_RECORD_FIELDDEF
08051364 T _ZN22CLR_RT_SignatureParser19Initialize_FieldDefEP15CLR_RT_AssemblyPKh
08051260 T _ZN22CLR_RT_SignatureParser19Initialize_TypeSpecEP15CLR_RT_AssemblyPK19CLR_RECORD_TYPESPEC
0805128c T _ZN22CLR_RT_SignatureParser19Initialize_TypeSpecEP15CLR_RT_AssemblyPKh
080512c8 T _ZN22CLR_RT_SignatureParser21Initialize_InterfacesEP15CLR_RT_AssemblyPK18CLR_RECORD_TYPEDEF
08051424 T _ZN22CLR_RT_SignatureParser23Initialize_MethodLocalsEP15CLR_RT_AssemblyPK20CLR_RECORD_METHODDEF
080513a8 T _ZN22CLR_RT_SignatureParser26Initialize_MethodSignatureEP15CLR_RT_AssemblyPK20CLR_RECORD_METHODDEF
080513d4 T _ZN22CLR_RT_SignatureParser26Initialize_MethodSignatureEP15CLR_RT_AssemblyPKh
080514ac T _ZN22CLR_RT_SignatureParser7AdvanceERNS_7ElementE
08032238 T _ZN22STM32F10x_blDriver_nor10EraseBlockEPvj
080320d4 T _ZN22STM32F10x_blDriver_nor13GetDeviceInfoEPv
08032208 T _ZN22STM32F10x_blDriver_nor13IsBlockErasedEPvjj
0803224c T _ZN22STM32F10x_blDriver_nor13SetPowerStateEPvj
080320a8 T _ZN22STM32F10x_blDriver_nor16InitializeDeviceEPv
080321d0 T _ZN22STM32F10x_blDriver_nor17GetSectorMetadataEPvjP14SectorMetadata
080321ec T _ZN22STM32F10x_blDriver_nor17SetSectorMetadataEPvjP14SectorMetadata
08032280 T _ZN22STM32F10x_blDriver_nor18MaxBlockErase_uSecEPv
080320bc T _ZN22STM32F10x_blDriver_nor18UninitializeDeviceEPv
08032260 T _ZN22STM32F10x_blDriver_nor19MaxSectorWrite_uSecEPv
080320f0 T _ZN22STM32F10x_blDriver_nor4ReadEPvjjPh
08032124 T _ZN22STM32F10x_blDriver_nor5WriteEPvjjPhj
08032168 T _ZN22STM32F10x_blDriver_nor6MemsetEPvjhj
08052a78 T _ZN23CLR_RT_ExceptionHandler13ConvertFromEHERK25CLR_RT_MethodDef_InstancePKhPK13CLR_RECORD_EH
0803fd94 T _ZN23CLR_RT_GarbageCollector11Thread_MarkEP13CLR_RT_Thread
0803ff5c T _ZN23CLR_RT_GarbageCollector11Thread_MarkER20CLR_RT_DblLinkedList
080401e8 T _ZN23CLR_RT_GarbageCollector12Heap_CompactEv
0803a044 W _ZN23CLR_RT_GarbageCollector12ValidateHeapER20CLR_RT_DblLinkedList
0803fd30 T _ZN23CLR_RT_GarbageCollector13Assembly_MarkEv
080409f4 T _ZN23CLR_RT_GarbageCollector13Heap_RelocateEP16CLR_RT_HeapBlockj
08040ab0 T _ZN23CLR_RT_GarbageCollector13Heap_RelocateEPPv
08040834 T _ZN23CLR_RT_GarbageCollector13Heap_RelocateEv
0803fc84 T _ZN23CLR_RT_GarbageCollector14AppDomain_MarkEv
0803a030 W _ZN23CLR_RT_GarbageCollector15ValidateClusterEP18CLR_RT_HeapCluster
0803a094 W _ZN23CLR_RT_GarbageCollector16CheckSingleBlockEPP16CLR_RT_HeapBlock
0803a0b4 W _ZN23CLR_RT_GarbageCollector16CheckSingleBlockEPP22CLR_RT_HeapBlock_Array
0803a0d4 W _ZN23CLR_RT_GarbageCollector16CheckSingleBlockEPP25CLR_RT_HeapBlock_Delegate
0803a01c W _ZN23CLR_RT_GarbageCollector16ValidatePointersEv
0804019c T _ZN23CLR_RT_GarbageCollector17ExecuteCompactionEv
080408dc T _ZN23CLR_RT_GarbageCollector18Heap_Relocate_PassEPFbPPvE
0803a06c W _ZN23CLR_RT_GarbageCollector18TestPointers_RemapEv
0803fa7c T _ZN23CLR_RT_GarbageCollector19CheckMemoryPressureEv
0803a124 W _ZN23CLR_RT_GarbageCollector19CheckMultipleBlocksEP16CLR_RT_HeapBlockj
0803ffa4 T _ZN23CLR_RT_GarbageCollector19RecoverEventsFromGCEv
08040808 T _ZN23CLR_RT_GarbageCollector21Heap_Relocate_PrepareEPNS_16RelocationRegionEj
0803a0f4 W _ZN23CLR_RT_GarbageCollector22CheckSingleBlock_ForceEP16CLR_RT_HeapBlock
0803f390 T _ZN23CLR_RT_GarbageCollector24ExecuteGarbageCollectionEv
0803a080 W _ZN23CLR_RT_GarbageCollector24TestPointers_PopulateNewEv
0803a058 W _ZN23CLR_RT_GarbageCollector24TestPointers_PopulateOldEv
080400d4 T _ZN23CLR_RT_GarbageCollector28Heap_ComputeAliveVsDeadRatioEv
08040ba8 T _ZN23CLR_RT_GarbageCollector38ComputeReachabilityGraphForSingleBlockEPP16CLR_RT_HeapBlock
08040bf4 T _ZN23CLR_RT_GarbageCollector41ComputeReachabilityGraphForMultipleBlocksEP16CLR_RT_HeapBlockj
0803f4d8 T _ZN23CLR_RT_GarbageCollector4MarkEv
0803f970 T _ZN23CLR_RT_GarbageCollector5SweepEv
0803f40c T _ZN23CLR_RT_GarbageCollector8MarkSlowEv
0803f84c T _ZN23CLR_RT_GarbageCollector8MarkWeakEv
08040b64 T _ZN23CLR_RT_GarbageCollector9MarkStack10InitializeEPNS_16MarkStackElementEj
08046224 T _ZN23CLR_RT_HeapBlock_String14CreateInstanceER16CLR_RT_HeapBlockPKc
080462bc T _ZN23CLR_RT_HeapBlock_String14CreateInstanceER16CLR_RT_HeapBlockPKcP15CLR_RT_Assembly
08046260 T _ZN23CLR_RT_HeapBlock_String14CreateInstanceER16CLR_RT_HeapBlockPKcj
0804635c T _ZN23CLR_RT_HeapBlock_String14CreateInstanceER16CLR_RT_HeapBlockPtj
080461b4 T _ZN23CLR_RT_HeapBlock_String14CreateInstanceER16CLR_RT_HeapBlockj
08046324 T _ZN23CLR_RT_HeapBlock_String14CreateInstanceER16CLR_RT_HeapBlockjP15CLR_RT_Assembly
08051ca4 T _ZN23CLR_RT_TypeDef_Instance12ResolveTokenEjP15CLR_RT_Assembly
08051d68 T _ZN23CLR_RT_TypeDef_Instance14SwitchToParentEv
08051b38 T _ZN23CLR_RT_TypeDef_Instance19InitializeFromFieldERK24CLR_RT_FieldDef_Instance
08051a34 T _ZN23CLR_RT_TypeDef_Instance19InitializeFromIndexERK20CLR_RT_TypeDef_Index
08051ab4 T _ZN23CLR_RT_TypeDef_Instance20InitializeFromMethodERK25CLR_RT_MethodDef_Instance
0805199c T _ZN23CLR_RT_TypeDef_Instance24InitializeFromReflectionERK26CLR_RT_ReflectionDef_IndexPj
08051c7c T _ZN23CLR_RT_TypeDef_Instance5ClearEv
080547d0 T _ZN24CLR_RT_AppDomainAssembly14CreateInstanceEP16CLR_RT_AppDomainP15CLR_RT_AssemblyRPS_
08054924 T _ZN24CLR_RT_AppDomainAssembly15DestroyInstanceEv
0805485c T _ZN24CLR_RT_AppDomainAssembly28AppDomainAssembly_InitializeEP16CLR_RT_AppDomainP15CLR_RT_Assembly
0805494c T _ZN24CLR_RT_AppDomainAssembly8RelocateEv
08051804 T _ZN24CLR_RT_Assembly_Instance19InitializeFromIndexERK21CLR_RT_Assembly_Index
08051ed0 T _ZN24CLR_RT_FieldDef_Instance12ResolveTokenEjP15CLR_RT_Assembly
08051e28 T _ZN24CLR_RT_FieldDef_Instance19InitializeFromIndexERK21CLR_RT_FieldDef_Index
08051ea8 T _ZN24CLR_RT_FieldDef_Instance5ClearEv
08051918 T _ZN24CLR_RT_TypeSpec_Instance12ResolveTokenEjP15CLR_RT_Assembly
08051860 T _ZN24CLR_RT_TypeSpec_Instance19InitializeFromIndexERK21CLR_RT_TypeSpec_Index
080518f0 T _ZN24CLR_RT_TypeSpec_Instance5ClearEv
08044e78 T _ZN25CLR_RT_HeapBlock_Delegate14CreateInstanceER16CLR_RT_HeapBlockRK22CLR_RT_MethodDef_IndexP17CLR_RT_StackFrame
08044f24 T _ZN25CLR_RT_HeapBlock_Delegate8RelocateEv
08028370 T _ZN25CLR_RT_HeapBlock_EndPoint12FindEndPointERKNS_4PortE
08028364 T _ZN25CLR_RT_HeapBlock_EndPoint21HandlerMethod_CleanUpEv
0802834c T _ZN25CLR_RT_HeapBlock_EndPoint24HandlerMethod_InitializeEv
08028358 T _ZN25CLR_RT_HeapBlock_EndPoint27HandlerMethod_RecoverFromGCEv
08052040 T _ZN25CLR_RT_MethodDef_Instance12ResolveTokenEjP15CLR_RT_Assembly
08051f98 T _ZN25CLR_RT_MethodDef_Instance19InitializeFromIndexERK22CLR_RT_MethodDef_Index
08052018 T _ZN25CLR_RT_MethodDef_Instance5ClearEv
08044c38 T _ZN26CLR_RT_HeapBlock_ArrayList11SetCapacityEi
08044cf4 T _ZN26CLR_RT_HeapBlock_ArrayList14EnsureCapacityEii
0804493c T _ZN26CLR_RT_HeapBlock_ArrayList3AddEP16CLR_RT_HeapBlockRi
08044a04 T _ZN26CLR_RT_HeapBlock_ArrayList5ClearEv
08044a54 T _ZN26CLR_RT_HeapBlock_ArrayList6InsertEiP16CLR_RT_HeapBlock
08044870 T _ZN26CLR_RT_HeapBlock_ArrayList7GetItemEiRP16CLR_RT_HeapBlock
080399c0 W _ZN26CLR_RT_HeapBlock_ArrayList7GetSizeEv
080448d8 T _ZN26CLR_RT_HeapBlock_ArrayList7SetItemEiP16CLR_RT_HeapBlock
08039a28 W _ZN26CLR_RT_HeapBlock_ArrayList7SetSizeEi
080399e4 W _ZN26CLR_RT_HeapBlock_ArrayList8GetItemsEv
08044b78 T _ZN26CLR_RT_HeapBlock_ArrayList8RemoveAtEi
08039a04 W _ZN26CLR_RT_HeapBlock_ArrayList8SetItemsEP22CLR_RT_HeapBlock_Array
08045478 T _ZN26CLR_RT_HeapBlock_Finalizer14CreateInstanceEP16CLR_RT_HeapBlockRK23CLR_RT_TypeDef_Instance
080455d8 T _ZN26CLR_RT_HeapBlock_Finalizer14RemoveInstanceEP16CLR_RT_HeapBlockR20CLR_RT_DblLinkedList
080455b0 T _ZN26CLR_RT_HeapBlock_Finalizer16SuppressFinalizeEP16CLR_RT_HeapBlock
08045594 T _ZN26CLR_RT_HeapBlock_Finalizer8RelocateEv
08027dd8 T _ZN26CLR_RT_Persistence_Manager10InitializeEv
08027dc4 T _ZN26CLR_RT_Persistence_Manager12UninitializeEv
08027dec T _ZN26CLR_RT_Persistence_Manager15InvalidateEntryEP30CLR_RT_HeapBlock_WeakReference
08027e14 T _ZN26CLR_RT_Persistence_Manager5FlushEv
08027e00 T _ZN26CLR_RT_Persistence_Manager8RelocateEv
080510a0 T _ZN26CLR_RT_ReflectionDef_Index18InitializeFromHashEj
08051114 T _ZN26CLR_RT_ReflectionDef_Index7ConvertER16CLR_RT_HeapBlockR23CLR_RT_TypeDef_InstancePj
080510cc T _ZN26CLR_RT_ReflectionDef_Index7ConvertER16CLR_RT_HeapBlockR24CLR_RT_Assembly_Instance
080511b4 T _ZN26CLR_RT_ReflectionDef_Index7ConvertER16CLR_RT_HeapBlockR24CLR_RT_FieldDef_Instance
0805115c T _ZN26CLR_RT_ReflectionDef_Index7ConvertER16CLR_RT_HeapBlockR25CLR_RT_MethodDef_Instance
0805120c T _ZN26CLR_RT_ReflectionDef_Index7ConvertER16CLR_RT_HeapBlockRj
08044d4c T _ZN27CLR_RT_HeapBlock_BinaryBlob14CreateInstanceER16CLR_RT_HeapBlockjPFvPS_ES4_j
08039988 W _ZN27CLR_RT_HeapBlock_BinaryBlob7GetBlobEPv
0803996c W _ZN27CLR_RT_HeapBlock_BinaryBlob7GetDataEv
08044e14 T _ZN27CLR_RT_HeapBlock_BinaryBlob7ReleaseEb
08044da4 T _ZN27CLR_RT_HeapBlock_BinaryBlob8AllocateEjj
08044e50 T _ZN27CLR_RT_HeapBlock_BinaryBlob8RelocateEv
08062934 T _ZN27CLR_RT_HeapBlock_I2CXAction10CopyBufferEPhjj
20002b58 B _ZN27CLR_RT_HeapBlock_I2CXAction10m_i2cPortsE
08062bd8 T _ZN27CLR_RT_HeapBlock_I2CXAction11IsCompletedEv
08062b9c T _ZN27CLR_RT_HeapBlock_I2CXAction12IsTerminatedEv
08062ca8 T _ZN27CLR_RT_HeapBlock_I2CXAction13RecoverFromGCEv
080625a4 T _ZN27CLR_RT_HeapBlock_I2CXAction14CreateInstanceER16CLR_RT_HeapBlockS1_
080627e4 T _ZN27CLR_RT_HeapBlock_I2CXAction14PrepareXActionER22I2C_USER_CONFIGURATIONj
0806299c T _ZN27CLR_RT_HeapBlock_I2CXAction14ReleaseBuffersEv
080626bc T _ZN27CLR_RT_HeapBlock_I2CXAction15AllocateXActionEj
0806267c T _ZN27CLR_RT_HeapBlock_I2CXAction15ExtractInstanceER16CLR_RT_HeapBlockRPS_
08062c58 T _ZN27CLR_RT_HeapBlock_I2CXAction15TransactedBytesEv
08062c14 T _ZN27CLR_RT_HeapBlock_I2CXAction17IsReadXActionUnitEj
08062cc8 T _ZN27CLR_RT_HeapBlock_I2CXAction17ReleaseWhenDeadExEv
0806284c T _ZN27CLR_RT_HeapBlock_I2CXAction18PrepareXActionUnitEPhjjb
08062564 T _ZN27CLR_RT_HeapBlock_I2CXAction21HandlerMethod_CleanUpEv
08062508 T _ZN27CLR_RT_HeapBlock_I2CXAction24HandlerMethod_InitializeEv
0806251c T _ZN27CLR_RT_HeapBlock_I2CXAction27HandlerMethod_RecoverFromGCEv
08062b30 T _ZN27CLR_RT_HeapBlock_I2CXAction6CancelEb
08062ac8 T _ZN27CLR_RT_HeapBlock_I2CXAction7EnqueueEv
08062b60 T _ZN27CLR_RT_HeapBlock_I2CXAction9IsPendingEv
08047df0 T _ZN27CLR_RT_ObjectToEvent_Source14CreateInstanceEP32CLR_RT_ObjectToEvent_DestinationR16CLR_RT_HeapBlockS3_
08047e64 T _ZN27CLR_RT_ObjectToEvent_Source15ExtractInstanceER16CLR_RT_HeapBlock
08047e9c T _ZN27CLR_RT_ObjectToEvent_Source19EnsureObjectIsAliveEv
08047edc T _ZN27CLR_RT_ObjectToEvent_Source6DetachEv
08047f14 T _ZN27CLR_RT_ObjectToEvent_Source8RelocateEv
08045aa8 T _ZN28CLR_RT_HeapBlock_LockRequest14CreateInstanceEP21CLR_RT_HeapBlock_LockP16CLR_RT_SubThreadRKxb
0802f314 t _ZN3._913GetDriverNameEv
08039950 W _ZN30CLR_RT_HeapBlock_Delegate_List12GetDelegatesEv
08044f40 T _ZN30CLR_RT_HeapBlock_Delegate_List14CreateInstanceERPS_j
08044fc8 T _ZN30CLR_RT_HeapBlock_Delegate_List15CopyAndCompressEP16CLR_RT_HeapBlockS1_j
08045034 T _ZN30CLR_RT_HeapBlock_Delegate_List6ChangeER16CLR_RT_HeapBlockS1_S1_bb
08045424 T _ZN30CLR_RT_HeapBlock_Delegate_List6RemoveER16CLR_RT_HeapBlockS1_S1_
080453f4 T _ZN30CLR_RT_HeapBlock_Delegate_List7CombineER16CLR_RT_HeapBlockS1_S1_b
08045454 T _ZN30CLR_RT_HeapBlock_Delegate_List8RelocateEv
08047060 T _ZN30CLR_RT_HeapBlock_WaitForObject12SignalObjectER16CLR_RT_HeapBlock
080470e8 T _ZN30CLR_RT_HeapBlock_WaitForObject13WaitForSignalER17CLR_RT_StackFrameRKxP16CLR_RT_HeapBlockjb
080471d0 T _ZN30CLR_RT_HeapBlock_WaitForObject13WaitForSignalER17CLR_RT_StackFrameRKxR16CLR_RT_HeapBlock
08046e18 T _ZN30CLR_RT_HeapBlock_WaitForObject14CreateInstanceEP13CLR_RT_ThreadRKxP16CLR_RT_HeapBlockjb
08046ecc T _ZN30CLR_RT_HeapBlock_WaitForObject16TryWaitForSignalEP13CLR_RT_Thread
08046f10 T _ZN30CLR_RT_HeapBlock_WaitForObject16TryWaitForSignalEP13CLR_RT_ThreadP16CLR_RT_HeapBlockjb
080399a4 W _ZN30CLR_RT_HeapBlock_WaitForObject17GetWaitForObjectsEv
080471fc T _ZN30CLR_RT_HeapBlock_WaitForObject8RelocateEv
08027e88 T _ZN30CLR_RT_HeapBlock_WeakReference14CreateInstanceERPS_
080281a8 T _ZN30CLR_RT_HeapBlock_WeakReference14RecoverObjectsER20CLR_RT_DblLinkedList
08027fa0 T _ZN30CLR_RT_HeapBlock_WeakReference18PrepareForRecoveryEP21CLR_RT_HeapBlock_NodeS1_j
08027f48 T _ZN30CLR_RT_HeapBlock_WeakReference21InsertInPriorityOrderEv
08027f70 T _ZN30CLR_RT_HeapBlock_WeakReference8RelocateEv
08027f20 T _ZN30CLR_RT_HeapBlock_WeakReference9GetTargetER16CLR_RT_HeapBlock
08027ed4 T _ZN30CLR_RT_HeapBlock_WeakReference9SetTargetER16CLR_RT_HeapBlock
0802116c W _ZN30CLR_RT_MethodDef_DebuggingInfo10ResetFlagsEh
08038984 W _ZN30CLR_RT_MethodDef_DebuggingInfo13SetBreakpointEb
0802119c W _ZN30CLR_RT_MethodDef_DebuggingInfo13SetResetFlagsEbh
08021120 W _ZN30CLR_RT_MethodDef_DebuggingInfo6SetJMCEb
08021144 W _ZN30CLR_RT_MethodDef_DebuggingInfo8SetFlagsEh
08059934 T _ZN31Library_corlib_native_System_GC38AnyPendingFinalizers___STATIC__BOOLEANER17CLR_RT_StackFrame
080599a4 T _ZN31Library_corlib_native_System_GC39SuppressFinalize___STATIC__VOID__OBJECTER17CLR_RT_StackFrame
080599e4 T _ZN31Library_corlib_native_System_GC44ReRegisterForFinalize___STATIC__VOID__OBJECTER17CLR_RT_StackFrame
08047c90 T _ZN32CLR_RT_ObjectToEvent_Destination10InitializeEv
08047dbc T _ZN32CLR_RT_ObjectToEvent_Destination15ReleaseWhenDeadEv
08047d78 T _ZN32CLR_RT_ObjectToEvent_Destination17IsReadyForReleaseEv
08047cac T _ZN32CLR_RT_ObjectToEvent_Destination8CheckAllEv
08047d48 T _ZN32CLR_RT_ObjectToEvent_Destination9DetachAllEv
08047cf4 T _ZN32CLR_RT_ObjectToEvent_Destination9SignalAllEv
08059d54 T _ZN33Library_corlib_native_System_Math20Cos___STATIC__R8__R8ER17CLR_RT_StackFrame
08059e70 T _ZN33Library_corlib_native_System_Math20Exp___STATIC__R8__R8ER17CLR_RT_StackFrame
08059f18 T _ZN33Library_corlib_native_System_Math20Log___STATIC__R8__R8ER17CLR_RT_StackFrame
0805a1b4 T _ZN33Library_corlib_native_System_Math20Sin___STATIC__R8__R8ER17CLR_RT_StackFrame
0805a2b0 T _ZN33Library_corlib_native_System_Math20Tan___STATIC__R8__R8ER17CLR_RT_StackFrame
08059b90 T _ZN33Library_corlib_native_System_Math21Acos___STATIC__R8__R8ER17CLR_RT_StackFrame
08059be4 T _ZN33Library_corlib_native_System_Math21Asin___STATIC__R8__R8ER17CLR_RT_StackFrame
08059c38 T _ZN33Library_corlib_native_System_Math21Atan___STATIC__R8__R8ER17CLR_RT_StackFrame
08059da8 T _ZN33Library_corlib_native_System_Math21Cosh___STATIC__R8__R8ER17CLR_RT_StackFrame
0805a10c T _ZN33Library_corlib_native_System_Math21Sign___STATIC__I4__R8ER17CLR_RT_StackFrame
0805a208 T _ZN33Library_corlib_native_System_Math21Sinh___STATIC__R8__R8ER17CLR_RT_StackFrame
0805a25c T _ZN33Library_corlib_native_System_Math21Sqrt___STATIC__R8__R8ER17CLR_RT_StackFrame
0805a304 T _ZN33Library_corlib_native_System_Math21Tanh___STATIC__R8__R8ER17CLR_RT_StackFrame
08059ec4 T _ZN33Library_corlib_native_System_Math22Floor___STATIC__R8__R8ER17CLR_RT_StackFrame
08059f6c T _ZN33Library_corlib_native_System_Math22Log10___STATIC__R8__R8ER17CLR_RT_StackFrame
0805a034 T _ZN33Library_corlib_native_System_Math22Round___STATIC__R8__R8ER17CLR_RT_StackFrame
08059d00 T _ZN33Library_corlib_native_System_Math24Ceiling___STATIC__R8__R8ER17CLR_RT_StackFrame
08059fc0 T _ZN33Library_corlib_native_System_Math24Pow___STATIC__R8__R8__R8ER17CLR_RT_StackFrame
0805a358 T _ZN33Library_corlib_native_System_Math25Truncate___STATIC__R8__R8ER17CLR_RT_StackFrame
08059c8c T _ZN33Library_corlib_native_System_Math26Atan2___STATIC__R8__R8__R8ER17CLR_RT_StackFrame
08059dfc T _ZN33Library_corlib_native_System_Math34IEEERemainder___STATIC__R8__R8__R8ER17CLR_RT_StackFrame
08060770 T _ZN33Library_corlib_native_System_Type107InvokeMember___OBJECT__STRING__SystemReflectionBindingFlags__SystemReflectionBinder__OBJECT__SZARRAY_OBJECTER17CLR_RT_StackFrame
08060d28 T _ZN33Library_corlib_native_System_Type10CheckFlagsER17CLR_RT_StackFramejj
080610b0 T _ZN33Library_corlib_native_System_Type10GetMethodsER17CLR_RT_StackFramePKcjP16CLR_RT_HeapBlockib
080609c0 T _ZN33Library_corlib_native_System_Type20get_IsEnum___BOOLEANER17CLR_RT_StackFrame
08060a10 T _ZN33Library_corlib_native_System_Type21get_IsArray___BOOLEANER17CLR_RT_StackFrame
08060920 T _ZN33Library_corlib_native_System_Type21get_IsClass___BOOLEANER17CLR_RT_StackFrame
080608f8 T _ZN33Library_corlib_native_System_Type22get_IsPublic___BOOLEANER17CLR_RT_StackFrame
08060998 T _ZN33Library_corlib_native_System_Type24get_IsAbstract___BOOLEANER17CLR_RT_StackFrame
08060948 T _ZN33Library_corlib_native_System_Type25get_IsInterface___BOOLEANER17CLR_RT_StackFrame
080608d0 T _ZN33Library_corlib_native_System_Type25get_IsNotPublic___BOOLEANER17CLR_RT_StackFrame
08060970 T _ZN33Library_corlib_native_System_Type25get_IsValueType___BOOLEANER17CLR_RT_StackFrame
080609e8 T _ZN33Library_corlib_native_System_Type28get_IsSerializable___BOOLEANER17CLR_RT_StackFrame
080605a8 T _ZN33Library_corlib_native_System_Type30get_DeclaringType___SystemTypeER17CLR_RT_StackFrame
080606c4 T _ZN33Library_corlib_native_System_Type34IsInstanceOfType___BOOLEAN__OBJECTER17CLR_RT_StackFrame
0806087c T _ZN33Library_corlib_native_System_Type46GetMethod___SystemReflectionMethodInfo__STRINGER17CLR_RT_StackFrame
08060cc4 T _ZN33Library_corlib_native_System_Type63GetTypeFromHandle___STATIC__SystemType__SystemRuntimeTypeHandleER17CLR_RT_StackFrame
080607f4 T _ZN33Library_corlib_native_System_Type66GetMethod___SystemReflectionMethodInfo__STRING__SZARRAY_SystemTypeER17CLR_RT_StackFrame
08060790 T _ZN33Library_corlib_native_System_Type68GetConstructor___SystemReflectionConstructorInfo__SZARRAY_SystemTypeER17CLR_RT_StackFrame
08060a78 T _ZN33Library_corlib_native_System_Type73GetTypeInternal___STATIC__SystemType__STRING__STRING__BOOLEAN__SZARRAY_I4ER17CLR_RT_StackFrame
08060660 T _ZN33Library_corlib_native_System_Type76GetMethod___SystemReflectionMethodInfo__STRING__SystemReflectionBindingFlagsER17CLR_RT_StackFrame
08060dc4 T _ZN33Library_corlib_native_System_Type9GetFieldsER17CLR_RT_StackFramePKcjb
08058260 T _ZN34Library_corlib_native_System_Array12TrySZIndexOfER17CLR_RT_StackFrameR16CLR_RT_HeapBlockS3_iibS3_
08057f54 T _ZN34Library_corlib_native_System_Array15get_Length___I4ER17CLR_RT_StackFrame
080580a4 T _ZN34Library_corlib_native_System_Array41Clear___STATIC__VOID__SystemArray__I4__I4ER17CLR_RT_StackFrame
08057e54 T _ZN34Library_corlib_native_System_Array46System_Collections_IList_get_Item___OBJECT__I4ER17CLR_RT_StackFrame
080581e8 T _ZN34Library_corlib_native_System_Array4CopyER17CLR_RT_StackFrameR16CLR_RT_HeapBlockiS3_ii
08057fa8 T _ZN34Library_corlib_native_System_Array52CreateInstance___STATIC__SystemArray__SystemType__I4ER17CLR_RT_StackFrame
08057ee8 T _ZN34Library_corlib_native_System_Array52System_Collections_IList_set_Item___VOID__I4__OBJECTER17CLR_RT_StackFrame
0805802c T _ZN34Library_corlib_native_System_Array57Copy___STATIC__VOID__SystemArray__I4__SystemArray__I4__I4ER17CLR_RT_StackFrame
0805816c T _ZN34Library_corlib_native_System_Array5ClearER17CLR_RT_StackFrameR16CLR_RT_HeapBlockii
080580f4 T _ZN34Library_corlib_native_System_Array69TrySZIndexOf___STATIC__BOOLEAN__SystemArray__I4__I4__OBJECT__BYREF_I4ER17CLR_RT_StackFrame
08059344 T _ZN35Library_corlib_native_System_Double27IsNaN___STATIC__BOOLEAN__R8ER17CLR_RT_StackFrame
0805927c T _ZN35Library_corlib_native_System_Double30CompareTo___STATIC__I4__R8__R8ER17CLR_RT_StackFrame
080592f4 T _ZN35Library_corlib_native_System_Double32IsInfinity___STATIC__BOOLEAN__R8ER17CLR_RT_StackFrame
08059394 T _ZN35Library_corlib_native_System_Double40IsNegativeInfinity___STATIC__BOOLEAN__R8ER17CLR_RT_StackFrame
080593e4 T _ZN35Library_corlib_native_System_Double40IsPositiveInfinity___STATIC__BOOLEAN__R8ER17CLR_RT_StackFrame
0805a3fc T _ZN35Library_corlib_native_System_Number47FormatNative___STATIC__STRING__OBJECT__CHAR__I4ER17CLR_RT_StackFrame
0805a9b4 T _ZN35Library_corlib_native_System_Object16GetHashCode___I4ER17CLR_RT_StackFrame
0805a9f0 T _ZN35Library_corlib_native_System_Object20GetType___SystemTypeER17CLR_RT_StackFrame
0805a974 T _ZN35Library_corlib_native_System_Object24Equals___BOOLEAN__OBJECTER17CLR_RT_StackFrame
0805aac0 T _ZN35Library_corlib_native_System_Object24MemberwiseClone___OBJECTER17CLR_RT_StackFrame
0805aaf8 T _ZN35Library_corlib_native_System_Object49ReferenceEquals___STATIC__BOOLEAN__OBJECT__OBJECTER17CLR_RT_StackFrame
0805accc T _ZN35Library_corlib_native_System_Random12_ctor___VOIDER17CLR_RT_StackFrame
0805ab84 T _ZN35Library_corlib_native_System_Random13Next___I4__I4ER17CLR_RT_StackFrame
0805ac04 T _ZN35Library_corlib_native_System_Random15NextDouble___R8ER17CLR_RT_StackFrame
0805ad10 T _ZN35Library_corlib_native_System_Random16_ctor___VOID__I4ER17CLR_RT_StackFrame
0805ac58 T _ZN35Library_corlib_native_System_Random28NextBytes___VOID__SZARRAY_U1ER17CLR_RT_StackFrame
0805ad68 T _ZN35Library_corlib_native_System_Random9GetRandomER17CLR_RT_StackFrameRP13CLR_RT_Randomb
0805ab38 T _ZN35Library_corlib_native_System_Random9Next___I4ER17CLR_RT_StackFrame
0805dedc T _ZN35Library_corlib_native_System_String10ChangeCaseER17CLR_RT_StackFrameb
0805db30 T _ZN35Library_corlib_native_System_String11ToCharArrayER17CLR_RT_StackFrameii
0805da8c T _ZN35Library_corlib_native_System_String13FromCharArrayER17CLR_RT_StackFrameii
0805d8b0 T _ZN35Library_corlib_native_System_String13Trim___STRINGER17CLR_RT_StackFrame
0805d1f4 T _ZN35Library_corlib_native_System_String15get_Length___I4ER17CLR_RT_StackFrame
0805d868 T _ZN35Library_corlib_native_System_String16ToLower___STRINGER17CLR_RT_StackFrame
0805d88c T _ZN35Library_corlib_native_System_String16ToUpper___STRINGER17CLR_RT_StackFrame
0805e6a4 T _ZN35Library_corlib_native_System_String18ConvertToCharArrayEPKcR16CLR_RT_HeapBlockRP22CLR_RT_HeapBlock_Arrayii
0805e798 T _ZN35Library_corlib_native_System_String18ConvertToCharArrayER17CLR_RT_StackFrameR16CLR_RT_HeapBlockRP22CLR_RT_HeapBlock_Arrayii
0805d5e0 T _ZN35Library_corlib_native_System_String18IndexOf___I4__CHARER17CLR_RT_StackFrame
0805d6b8 T _ZN35Library_corlib_native_System_String20IndexOf___I4__STRINGER17CLR_RT_StackFrame
0805d0b0 T _ZN35Library_corlib_native_System_String20get_Chars___CHAR__I4ER17CLR_RT_StackFrame
0805d580 T _ZN35Library_corlib_native_System_String22CompareTo___I4__OBJECTER17CLR_RT_StackFrame
0805d5a0 T _ZN35Library_corlib_native_System_String22CompareTo___I4__STRINGER17CLR_RT_StackFrame
0805d604 T _ZN35Library_corlib_native_System_String22IndexOf___I4__CHAR__I4ER17CLR_RT_StackFrame
0805d724 T _ZN35Library_corlib_native_System_String22LastIndexOf___I4__CHARER17CLR_RT_StackFrame
0805d2bc T _ZN35Library_corlib_native_System_String22Substring___STRING__I4ER17CLR_RT_StackFrame
0805d464 T _ZN35Library_corlib_native_System_String22_ctor___VOID__CHAR__I4ER17CLR_RT_StackFrame
0805d6dc T _ZN35Library_corlib_native_System_String24IndexOf___I4__STRING__I4ER17CLR_RT_StackFrame
0805d7fc T _ZN35Library_corlib_native_System_String24LastIndexOf___I4__STRINGER17CLR_RT_StackFrame
0805d628 T _ZN35Library_corlib_native_System_String26IndexOf___I4__CHAR__I4__I4ER17CLR_RT_StackFrame
0805d748 T _ZN35Library_corlib_native_System_String26LastIndexOf___I4__CHAR__I4ER17CLR_RT_StackFrame
0805d2f4 T _ZN35Library_corlib_native_System_String26Substring___STRING__I4__I4ER17CLR_RT_StackFrame
0805d184 T _ZN35Library_corlib_native_System_String26ToCharArray___SZARRAY_CHARER17CLR_RT_StackFrame
0805d43c T _ZN35Library_corlib_native_System_String26_ctor___VOID__SZARRAY_CHARER17CLR_RT_StackFrame
0805d34c T _ZN35Library_corlib_native_System_String27Trim___STRING__SZARRAY_CHARER17CLR_RT_StackFrame
0805d700 T _ZN35Library_corlib_native_System_String28IndexOf___I4__STRING__I4__I4ER17CLR_RT_StackFrame
0805d820 T _ZN35Library_corlib_native_System_String28LastIndexOf___I4__STRING__I4ER17CLR_RT_StackFrame
0805d64c T _ZN35Library_corlib_native_System_String29IndexOfAny___I4__SZARRAY_CHARER17CLR_RT_StackFrame
0805d76c T _ZN35Library_corlib_native_System_String30LastIndexOf___I4__CHAR__I4__I4ER17CLR_RT_StackFrame
0805d3bc T _ZN35Library_corlib_native_System_String30TrimEnd___STRING__SZARRAY_CHARER17CLR_RT_StackFrame
0805d844 T _ZN35Library_corlib_native_System_String32LastIndexOf___I4__STRING__I4__I4ER17CLR_RT_StackFrame
0805d384 T _ZN35Library_corlib_native_System_String32TrimStart___STRING__SZARRAY_CHARER17CLR_RT_StackFrame
0805d670 T _ZN35Library_corlib_native_System_String33IndexOfAny___I4__SZARRAY_CHAR__I4ER17CLR_RT_StackFrame
0805d790 T _ZN35Library_corlib_native_System_String33LastIndexOfAny___I4__SZARRAY_CHARER17CLR_RT_StackFrame
0805d1ac T _ZN35Library_corlib_native_System_String34ToCharArray___SZARRAY_CHAR__I4__I4ER17CLR_RT_StackFrame
0805d3f4 T _ZN35Library_corlib_native_System_String34_ctor___VOID__SZARRAY_CHAR__I4__I4ER17CLR_RT_StackFrame
0805d97c T _ZN35Library_corlib_native_System_String36Compare___STATIC__I4__STRING__STRINGER17CLR_RT_StackFrame
0805d254 T _ZN35Library_corlib_native_System_String36Split___SZARRAY_STRING__SZARRAY_CHARER17CLR_RT_StackFrame
0805d694 T _ZN35Library_corlib_native_System_String37IndexOfAny___I4__SZARRAY_CHAR__I4__I4ER17CLR_RT_StackFrame
0805d7b4 T _ZN35Library_corlib_native_System_String37LastIndexOfAny___I4__SZARRAY_CHAR__I4ER17CLR_RT_StackFrame
0805d9b8 T _ZN35Library_corlib_native_System_String39Concat___STATIC__STRING__STRING__STRINGER17CLR_RT_StackFrame
0805da3c T _ZN35Library_corlib_native_System_String39Concat___STATIC__STRING__SZARRAY_STRINGER17CLR_RT_StackFrame
0805d8dc T _ZN35Library_corlib_native_System_String40Equals___STATIC__BOOLEAN__STRING__STRINGER17CLR_RT_StackFrame
0805d280 T _ZN35Library_corlib_native_System_String40Split___SZARRAY_STRING__SZARRAY_CHAR__I4ER17CLR_RT_StackFrame
0805d7d8 T _ZN35Library_corlib_native_System_String41LastIndexOfAny___I4__SZARRAY_CHAR__I4__I4ER17CLR_RT_StackFrame
0805d924 T _ZN35Library_corlib_native_System_String45op_Equality___STATIC__BOOLEAN__STRING__STRINGER17CLR_RT_StackFrame
0805d9e4 T _ZN35Library_corlib_native_System_String47Concat___STATIC__STRING__STRING__STRING__STRINGER17CLR_RT_StackFrame
0805d944 T _ZN35Library_corlib_native_System_String47op_Inequality___STATIC__BOOLEAN__STRING__STRINGER17CLR_RT_StackFrame
0805e0f4 T _ZN35Library_corlib_native_System_String4TrimER17CLR_RT_StackFrameP22CLR_RT_HeapBlock_Arraybb
0805da10 T _ZN35Library_corlib_native_System_String55Concat___STATIC__STRING__STRING__STRING__STRING__STRINGER17CLR_RT_StackFrame
0805e2c0 T _ZN35Library_corlib_native_System_String5SplitER17CLR_RT_StackFrameR16CLR_RT_HeapBlocki
0805e560 T _ZN35Library_corlib_native_System_String6ConcatER17CLR_RT_StackFrameP16CLR_RT_HeapBlocki
0805db68 T _ZN35Library_corlib_native_System_String7IndexOfER17CLR_RT_StackFramei
0805e000 T _ZN35Library_corlib_native_System_String9SubstringER17CLR_RT_StackFrameii
08058e60 T _ZN37Library_corlib_native_System_DateTime11GetValuePtrER16CLR_RT_HeapBlock
08058e3c T _ZN37Library_corlib_native_System_DateTime11GetValuePtrER17CLR_RT_StackFrame
08058958 T _ZN37Library_corlib_native_System_DateTime12get_Day___I4ER17CLR_RT_StackFrame
08058a18 T _ZN37Library_corlib_native_System_DateTime13get_Hour___I4ER17CLR_RT_StackFrame
08058b08 T _ZN37Library_corlib_native_System_DateTime13get_Year___I4ER17CLR_RT_StackFrame
08058aa8 T _ZN37Library_corlib_native_System_DateTime14get_Month___I4ER17CLR_RT_StackFrame
08058a78 T _ZN37Library_corlib_native_System_DateTime15get_Minute___I4ER17CLR_RT_StackFrame
08058ad8 T _ZN37Library_corlib_native_System_DateTime15get_Second___I4ER17CLR_RT_StackFrame
080589b8 T _ZN37Library_corlib_native_System_DateTime18get_DayOfYear___I4ER17CLR_RT_StackFrame
08058a48 T _ZN37Library_corlib_native_System_DateTime20get_Millisecond___I4ER17CLR_RT_StackFrame
08058b38 T _ZN37Library_corlib_native_System_DateTime28ToLocalTime___SystemDateTimeER17CLR_RT_StackFrame
08058988 T _ZN37Library_corlib_native_System_DateTime31get_DayOfWeek___SystemDayOfWeekER17CLR_RT_StackFrame
08058cd4 T _ZN37Library_corlib_native_System_DateTime32DaysInMonth___STATIC__I4__I4__I4ER17CLR_RT_StackFrame
08058c04 T _ZN37Library_corlib_native_System_DateTime32ToUniversalTime___SystemDateTimeER17CLR_RT_StackFrame
08058d34 T _ZN37Library_corlib_native_System_DateTime32get_Now___STATIC__SystemDateTimeER17CLR_RT_StackFrame
08058d9c T _ZN37Library_corlib_native_System_DateTime34get_Today___STATIC__SystemDateTimeER17CLR_RT_StackFrame
08058d68 T _ZN37Library_corlib_native_System_DateTime35get_UtcNow___STATIC__SystemDateTimeER17CLR_RT_StackFrame
08058860 T _ZN37Library_corlib_native_System_DateTime40_ctor___VOID__I4__I4__I4__I4__I4__I4__I4ER17CLR_RT_StackFrame
08058f0c T _ZN37Library_corlib_native_System_DateTime6ExpandER17CLR_RT_StackFrameR10SYSTEMTIME
08058f58 T _ZN37Library_corlib_native_System_DateTime8CompressER17CLR_RT_StackFrameRK10SYSTEMTIME
08058e04 T _ZN37Library_corlib_native_System_DateTime9NewObjectER17CLR_RT_StackFrame
08059188 T _ZN37Library_corlib_native_System_Delegate15GetLastDelegateEP25CLR_RT_HeapBlock_Delegate
08059060 T _ZN37Library_corlib_native_System_Delegate19get_Target___OBJECTER17CLR_RT_StackFrame
08058f8c T _ZN37Library_corlib_native_System_Delegate24Equals___BOOLEAN__OBJECTER17CLR_RT_StackFrame
08058fd4 T _ZN37Library_corlib_native_System_Delegate39get_Method___SystemReflectionMethodInfoER17CLR_RT_StackFrame
08059130 T _ZN37Library_corlib_native_System_Delegate61op_Equality___STATIC__BOOLEAN__SystemDelegate__SystemDelegateER17CLR_RT_StackFrame
080590f4 T _ZN37Library_corlib_native_System_Delegate63Remove___STATIC__SystemDelegate__SystemDelegate__SystemDelegateER17CLR_RT_StackFrame
08059150 T _ZN37Library_corlib_native_System_Delegate63op_Inequality___STATIC__BOOLEAN__SystemDelegate__SystemDelegateER17CLR_RT_StackFrame
080590b4 T _ZN37Library_corlib_native_System_Delegate64Combine___STATIC__SystemDelegate__SystemDelegate__SystemDelegateER17CLR_RT_StackFrame
080604a0 T _ZN37Library_corlib_native_System_TimeSpan11GetValuePtrER16CLR_RT_HeapBlock
0806047c T _ZN37Library_corlib_native_System_TimeSpan11GetValuePtrER17CLR_RT_StackFrame
08060238 T _ZN37Library_corlib_native_System_TimeSpan17ConstructTimeSpanEPxiiiii
08060024 T _ZN37Library_corlib_native_System_TimeSpan17ToString___STRINGER17CLR_RT_StackFrame
08060334 T _ZN37Library_corlib_native_System_TimeSpan22CompareTo___I4__OBJECTER17CLR_RT_StackFrame
0805ffcc T _ZN37Library_corlib_native_System_TimeSpan24Equals___BOOLEAN__OBJECTER17CLR_RT_StackFrame
08060090 T _ZN37Library_corlib_native_System_TimeSpan24_ctor___VOID__I4__I4__I4ER17CLR_RT_StackFrame
0806010c T _ZN37Library_corlib_native_System_TimeSpan28_ctor___VOID__I4__I4__I4__I4ER17CLR_RT_StackFrame
08060198 T _ZN37Library_corlib_native_System_TimeSpan32_ctor___VOID__I4__I4__I4__I4__I4ER17CLR_RT_StackFrame
08060388 T _ZN37Library_corlib_native_System_TimeSpan52Compare___STATIC__I4__SystemTimeSpan__SystemTimeSpanER17CLR_RT_StackFrame
0806040c T _ZN37Library_corlib_native_System_TimeSpan56Equals___STATIC__BOOLEAN__SystemTimeSpan__SystemTimeSpanER17CLR_RT_StackFrame
08060444 T _ZN37Library_corlib_native_System_TimeSpan9NewObjectER17CLR_RT_StackFrame
0806054c T _ZN37Library_corlib_native_System_TimeZone30GetTimeZoneOffset___STATIC__I8ER17CLR_RT_StackFrame
08061f80 T _ZN38CLR_RT_HeapBlock_NativeEventDispatcher13RecoverFromGCEv
08062174 T _ZN38CLR_RT_HeapBlock_NativeEventDispatcher13StartDispatchEP27CLR_RT_ApplicationInterruptP13CLR_RT_Thread
08061eb4 T _ZN38CLR_RT_HeapBlock_NativeEventDispatcher14CreateInstanceER16CLR_RT_HeapBlockS1_
080620b8 T _ZN38CLR_RT_HeapBlock_NativeEventDispatcher14SaveToHALQueueEjj
08061fa0 T _ZN38CLR_RT_HeapBlock_NativeEventDispatcher17ReleaseWhenDeadExEv
08062038 T _ZN38CLR_RT_HeapBlock_NativeEventDispatcher18RemoveFromHALQueueEv
08062368 T _ZN38CLR_RT_HeapBlock_NativeEventDispatcher20RecoverManagedObjectERP16CLR_RT_HeapBlock
08061e64 T _ZN38CLR_RT_HeapBlock_NativeEventDispatcher21HandlerMethod_CleanUpEv
08061e08 T _ZN38CLR_RT_HeapBlock_NativeEventDispatcher24HandlerMethod_InitializeEv
080622b4 T _ZN38CLR_RT_HeapBlock_NativeEventDispatcher25ThreadTerminationCallbackEPv
08061e1c T _ZN38CLR_RT_HeapBlock_NativeEventDispatcher27HandlerMethod_RecoverFromGCEv
08062314 T _ZN38CLR_RT_HeapBlock_NativeEventDispatcher29RTOSThreadTerminationCallbackEPv
20002b4c B _ZN38CLR_RT_HeapBlock_NativeEventDispatcher9m_ioPortsE
08057cd8 T _ZN38Library_corlib_native_System_AppDomain12GetAppDomainER16CLR_RT_HeapBlockRP16CLR_RT_AppDomainS4_b
08057ba0 T _ZN38Library_corlib_native_System_AppDomain38Unload___STATIC__VOID__SystemAppDomainER17CLR_RT_StackFrame
08057a64 T _ZN38Library_corlib_native_System_AppDomain46CreateDomain___STATIC__SystemAppDomain__STRINGER17CLR_RT_StackFrame
080577e8 T _ZN38Library_corlib_native_System_AppDomain48GetAssemblies___SZARRAY_SystemReflectionAssemblyER17CLR_RT_StackFrame
08057868 T _ZN38Library_corlib_native_System_AppDomain72LoadInternal___SystemReflectionAssembly__STRING__BOOLEAN__I4__I4__I4__I4ER17CLR_RT_StackFrame
08027294 W _ZN38Library_corlib_native_System_Exception10GetHResultEP16CLR_RT_HeapBlock
08027274 W _ZN38Library_corlib_native_System_Exception10GetMessageEP16CLR_RT_HeapBlock
080598e0 T _ZN38Library_corlib_native_System_Exception13GetStackTraceEP16CLR_RT_HeapBlockRj
0805977c T _ZN38Library_corlib_native_System_Exception13SetStackTraceER16CLR_RT_HeapBlockP17CLR_RT_StackFrame
08059630 T _ZN38Library_corlib_native_System_Exception14CreateInstanceER16CLR_RT_HeapBlockRK20CLR_RT_TypeDef_IndexiP17CLR_RT_StackFrame
080596fc T _ZN38Library_corlib_native_System_Exception14CreateInstanceER16CLR_RT_HeapBlockiP17CLR_RT_StackFrame
08059434 T _ZN38Library_corlib_native_System_Exception23get_StackTrace___STRINGER17CLR_RT_StackFrame
080598ac T _ZN38Library_corlib_native_System_Exception9GetTargetER16CLR_RT_HeapBlock
080616d4 T _ZN38Library_corlib_native_System_ValueType24Equals___BOOLEAN__OBJECTER17CLR_RT_StackFrame
08064888 T _ZN39Library_spot_native_Microsoft_SPOT_Math20Cos___STATIC__I4__I4ER17CLR_RT_StackFrame
080648ac T _ZN39Library_spot_native_Microsoft_SPOT_Math20Sin___STATIC__I4__I4ER17CLR_RT_StackFrame
08071690 W _ZN3MACI7MessageI19IEEE802_15_4_HeaderLt113E19IEEE802_15_4_Footer21IEEE802_15_4_MetadataE9MacConfigE10SetAddressEt
0805cda0 T _ZN40Library_corlib_native_System_RuntimeType17GetTypeDescriptorER16CLR_RT_HeapBlockR23CLR_RT_TypeDef_Instance
0805cd70 T _ZN40Library_corlib_native_System_RuntimeType17GetTypeDescriptorER16CLR_RT_HeapBlockR23CLR_RT_TypeDef_InstancePj
0805c960 T _ZN40Library_corlib_native_System_RuntimeType17get_Name___STRINGER17CLR_RT_StackFrame
0805c9b0 T _ZN40Library_corlib_native_System_RuntimeType21get_FullName___STRINGER17CLR_RT_StackFrame
0805ca00 T _ZN40Library_corlib_native_System_RuntimeType25get_BaseType___SystemTypeER17CLR_RT_StackFrame
0805ccc0 T _ZN40Library_corlib_native_System_RuntimeType27GetElementType___SystemTypeER17CLR_RT_StackFrame
0805cba0 T _ZN40Library_corlib_native_System_RuntimeType34GetInterfaces___SZARRAY_SystemTypeER17CLR_RT_StackFrame
0805c8b8 T _ZN40Library_corlib_native_System_RuntimeType39get_Assembly___SystemReflectionAssemblyER17CLR_RT_StackFrame
0805cb24 T _ZN40Library_corlib_native_System_RuntimeType74GetField___SystemReflectionFieldInfo__STRING__SystemReflectionBindingFlagsER17CLR_RT_StackFrame
0805cb68 T _ZN40Library_corlib_native_System_RuntimeType75GetFields___SZARRAY_SystemReflectionFieldInfo__SystemReflectionBindingFlagsER17CLR_RT_StackFrame
0805cae0 T _ZN40Library_corlib_native_System_RuntimeType77GetMethods___SZARRAY_SystemReflectionMethodInfo__SystemReflectionBindingFlagsER17CLR_RT_StackFrame
0805cdec T _ZN40Library_corlib_native_System_RuntimeType7GetNameER16CLR_RT_HeapBlockbS1_
08063770 T _ZN40Library_spot_native_Microsoft_SPOT_Debug24GC___STATIC__U4__BOOLEANER17CLR_RT_StackFrame
08063718 T _ZN40Library_spot_native_Microsoft_SPOT_Debug28Print___STATIC__VOID__STRINGER17CLR_RT_StackFrame
080637e4 T _ZN40Library_spot_native_Microsoft_SPOT_Debug40EnableGCMessages___STATIC__VOID__BOOLEANER17CLR_RT_StackFrame
0806175c T _ZN42Library_corlib_native_System_WeakReference19get_Target___OBJECTER17CLR_RT_StackFrame
080617dc T _ZN42Library_corlib_native_System_WeakReference20_ctor___VOID__OBJECTER17CLR_RT_StackFrame
08061714 T _ZN42Library_corlib_native_System_WeakReference21get_IsAlive___BOOLEANER17CLR_RT_StackFrame
0806179c T _ZN42Library_corlib_native_System_WeakReference25set_Target___VOID__OBJECTER17CLR_RT_StackFrame
0805fd98 T _ZN44Library_corlib_native_System_Threading_Timer13CheckDisposedER17CLR_RT_StackFrame
0805fcac T _ZN44Library_corlib_native_System_Threading_Timer14Dispose___VOIDER17CLR_RT_StackFrame
0805fd18 T _ZN44Library_corlib_native_System_Threading_Timer24Change___BOOLEAN__I4__I4ER17CLR_RT_StackFrame
0805fd58 T _ZN44Library_corlib_native_System_Threading_Timer48Change___BOOLEAN__SystemTimeSpan__SystemTimeSpanER17CLR_RT_StackFrame
0805fcd0 T _ZN44Library_corlib_native_System_Threading_Timer58_ctor___VOID__SystemThreadingTimerCallback__OBJECT__I4__I4ER17CLR_RT_StackFrame
0805fcf4 T _ZN44Library_corlib_native_System_Threading_Timer82_ctor___VOID__SystemThreadingTimerCallback__OBJECT__SystemTimeSpan__SystemTimeSpanER17CLR_RT_StackFrame
0805fdb4 T _ZN44Library_corlib_native_System_Threading_Timer9SetValuesER17CLR_RT_StackFramej
0805e7d4 T _ZN45Library_corlib_native_System_Text_UTF8Decoder100Convert___VOID__SZARRAY_U1__I4__I4__SZARRAY_CHAR__I4__I4__BOOLEAN__BYREF_I4__BYREF_I4__BYREF_BOOLEANER17CLR_RT_StackFrame
0805f6e0 T _ZN45Library_corlib_native_System_Threading_Thread11Join___VOIDER17CLR_RT_StackFrame
0805f394 T _ZN45Library_corlib_native_System_Threading_Thread12Abort___VOIDER17CLR_RT_StackFrame
0805f2b0 T _ZN45Library_corlib_native_System_Threading_Thread12Start___VOIDER17CLR_RT_StackFrame
0805f47c T _ZN45Library_corlib_native_System_Threading_Thread13Resume___VOIDER17CLR_RT_StackFrame
0805f3ec T _ZN45Library_corlib_native_System_Threading_Thread14Suspend___VOIDER17CLR_RT_StackFrame
0805faf0 T _ZN45Library_corlib_native_System_Threading_Thread18GetThreadReferenceER17CLR_RT_StackFrame
0805f710 T _ZN45Library_corlib_native_System_Threading_Thread18Join___BOOLEAN__I4ER17CLR_RT_StackFrame
0805fb1c T _ZN45Library_corlib_native_System_Threading_Thread20ResetThreadReferenceER17CLR_RT_StackFrame
0805f690 T _ZN45Library_corlib_native_System_Threading_Thread21get_IsAlive___BOOLEANER17CLR_RT_StackFrame
0805f888 T _ZN45Library_corlib_native_System_Threading_Thread24Sleep___STATIC__VOID__I4ER17CLR_RT_StackFrame
0805f644 T _ZN45Library_corlib_native_System_Threading_Thread24get_ManagedThreadId___I4ER17CLR_RT_StackFrame
0805f76c T _ZN45Library_corlib_native_System_Threading_Thread30Join___BOOLEAN__SystemTimeSpanER17CLR_RT_StackFrame
0805faa4 T _ZN45Library_corlib_native_System_Threading_Thread35GetDomain___STATIC__SystemAppDomainER17CLR_RT_StackFrame
0805f214 T _ZN45Library_corlib_native_System_Threading_Thread40_ctor___VOID__SystemThreadingThreadStartER17CLR_RT_StackFrame
0805f4c0 T _ZN45Library_corlib_native_System_Threading_Thread44get_Priority___SystemThreadingThreadPriorityER17CLR_RT_StackFrame
0805f7d4 T _ZN45Library_corlib_native_System_Threading_Thread44get_ThreadState___SystemThreadingThreadStateER17CLR_RT_StackFrame
0805f954 T _ZN45Library_corlib_native_System_Threading_Thread49get_CurrentThread___STATIC__SystemThreadingThreadER17CLR_RT_StackFrame
0805fbf4 T _ZN45Library_corlib_native_System_Threading_Thread4JoinER17CLR_RT_StackFrameRKx
0805f570 T _ZN45Library_corlib_native_System_Threading_Thread50set_Priority___VOID__SystemThreadingThreadPriorityER17CLR_RT_StackFrame
0805fb80 T _ZN45Library_corlib_native_System_Threading_Thread9GetThreadER17CLR_RT_StackFrameRP13CLR_RT_Threadbb
0805fb44 T _ZN45Library_corlib_native_System_Threading_Thread9SetThreadER17CLR_RT_StackFrameP13CLR_RT_Thread
08064df8 T _ZN45Library_spot_native_Microsoft_SPOT_Reflection116GetAssemblyMemoryInfo___STATIC__BOOLEAN__mscorlibSystemReflectionAssembly__MicrosoftSPOTReflectionAssemblyMemoryInfoER17CLR_RT_StackFrame
08064b2c T _ZN45Library_spot_native_Microsoft_SPOT_Reflection44GetTypeHash___STATIC__U4__mscorlibSystemTypeER17CLR_RT_StackFrame
08065298 T _ZN45Library_spot_native_Microsoft_SPOT_Reflection48GetTypeFromHash___STATIC__mscorlibSystemType__U4ER17CLR_RT_StackFrame
08064ae4 T _ZN45Library_spot_native_Microsoft_SPOT_Reflection50IsTypeLoaded___STATIC__BOOLEAN__mscorlibSystemTypeER17CLR_RT_StackFrame
0806c640 T _ZN45Library_spot_native_Microsoft_SPOT_Reflection58Serialize___STATIC__SZARRAY_U1__OBJECT__mscorlibSystemTypeER17CLR_RT_StackFrame
0806c660 T _ZN45Library_spot_native_Microsoft_SPOT_Reflection60Deserialize___STATIC__OBJECT__SZARRAY_U1__mscorlibSystemTypeER17CLR_RT_StackFrame
08064b84 T _ZN45Library_spot_native_Microsoft_SPOT_Reflection62GetAssemblyHash___STATIC__U4__mscorlibSystemReflectionAssemblyER17CLR_RT_StackFrame
08064be4 T _ZN45Library_spot_native_Microsoft_SPOT_Reflection64GetAssemblies___STATIC__SZARRAY_mscorlibSystemReflectionAssemblyER17CLR_RT_StackFrame
08065324 T _ZN45Library_spot_native_Microsoft_SPOT_Reflection66GetAssemblyFromHash___STATIC__mscorlibSystemReflectionAssembly__U4ER17CLR_RT_StackFrame
08064c30 T _ZN45Library_spot_native_Microsoft_SPOT_Reflection82GetAssemblyInfo___STATIC__BOOLEAN__SZARRAY_U1__MicrosoftSPOTReflectionAssemblyInfoER17CLR_RT_StackFrame
080648d0 T _ZN45Library_spot_native_Microsoft_SPOT_Reflection86GetTypesImplementingInterface___STATIC__SZARRAY_mscorlibSystemType__mscorlibSystemTypeER17CLR_RT_StackFrame
08058600 T _ZN46Library_corlib_native_System_Collections_Queue12Clear___VOIDER17CLR_RT_StackFrame
080586d8 T _ZN46Library_corlib_native_System_Collections_Queue13Peek___OBJECTER17CLR_RT_StackFrame
08058680 T _ZN46Library_corlib_native_System_Collections_Queue16Dequeue___OBJECTER17CLR_RT_StackFrame
08058638 T _ZN46Library_corlib_native_System_Collections_Queue22Enqueue___VOID__OBJECTER17CLR_RT_StackFrame
08058590 T _ZN46Library_corlib_native_System_Collections_Queue30CopyTo___VOID__SystemArray__I4ER17CLR_RT_StackFrame
08058730 T _ZN46Library_corlib_native_System_Collections_Stack12Clear___VOIDER17CLR_RT_StackFrame
080587c0 T _ZN46Library_corlib_native_System_Collections_Stack12Pop___OBJECTER17CLR_RT_StackFrame
08058768 T _ZN46Library_corlib_native_System_Collections_Stack13Peek___OBJECTER17CLR_RT_StackFrame
08058818 T _ZN46Library_corlib_native_System_Collections_Stack19Push___VOID__OBJECTER17CLR_RT_StackFrame
0805a3bc T _ZN46Library_corlib_native_System_MulticastDelegate79op_Equality___STATIC__BOOLEAN__SystemMulticastDelegate__SystemMulticastDelegateER17CLR_RT_StackFrame
0805a3dc T _ZN46Library_corlib_native_System_MulticastDelegate81op_Inequality___STATIC__BOOLEAN__SystemMulticastDelegate__SystemMulticastDelegateER17CLR_RT_StackFrame
0805eb88 T _ZN46Library_corlib_native_System_Text_UTF8Encoding16Helper__GetCharsER17CLR_RT_StackFrameb
0805ea10 T _ZN46Library_corlib_native_System_Text_UTF8Encoding29GetBytes___SZARRAY_U1__STRINGER17CLR_RT_StackFrame
0805ece0 T _ZN46Library_corlib_native_System_Text_UTF8Encoding35GetChars___SZARRAY_CHAR__SZARRAY_U1ER17CLR_RT_StackFrame
0805ed14 T _ZN46Library_corlib_native_System_Text_UTF8Encoding43GetChars___SZARRAY_CHAR__SZARRAY_U1__I4__I4ER17CLR_RT_StackFrame
0805ea98 T _ZN46Library_corlib_native_System_Text_UTF8Encoding45GetBytes___I4__STRING__I4__I4__SZARRAY_U1__I4ER17CLR_RT_StackFrame
0805f19c T _ZN46Library_corlib_native_System_Threading_Monitor27Exit___STATIC__VOID__OBJECTER17CLR_RT_StackFrame
0805f0dc T _ZN46Library_corlib_native_System_Threading_Monitor28Enter___STATIC__VOID__OBJECTER17CLR_RT_StackFrame
080654a0 T _ZN47Library_spot_native_Microsoft_SPOT_WeakDelegate87Remove___STATIC__mscorlibSystemDelegate__mscorlibSystemDelegate__mscorlibSystemDelegateER17CLR_RT_StackFrame
08065460 T _ZN47Library_spot_native_Microsoft_SPOT_WeakDelegate88Combine___STATIC__mscorlibSystemDelegate__mscorlibSystemDelegate__mscorlibSystemDelegateER17CLR_RT_StackFrame
0805b638 T _ZN48Library_corlib_native_System_Reflection_Assembly17GetTypeDescriptorER16CLR_RT_HeapBlockR24CLR_RT_Assembly_Instance
0805adf0 T _ZN48Library_corlib_native_System_Reflection_Assembly21get_FullName___STRINGER17CLR_RT_StackFrame
0805aedc T _ZN48Library_corlib_native_System_Reflection_Assembly28GetType___SystemType__STRINGER17CLR_RT_StackFrame
0805afb0 T _ZN48Library_corlib_native_System_Reflection_Assembly29GetTypes___SZARRAY_SystemTypeER17CLR_RT_StackFrame
0805b198 T _ZN48Library_corlib_native_System_Reflection_Assembly41GetManifestResourceNames___SZARRAY_STRINGER17CLR_RT_StackFrame
0805b4d8 T _ZN48Library_corlib_native_System_Reflection_Assembly51Load___STATIC__SystemReflectionAssembly__SZARRAY_U1ER17CLR_RT_StackFrame
0805b284 T _ZN48Library_corlib_native_System_Reflection_Assembly55GetExecutingAssembly___STATIC__SystemReflectionAssemblyER17CLR_RT_StackFrame
0805b0b4 T _ZN48Library_corlib_native_System_Reflection_Assembly57GetVersion___VOID__BYREF_I4__BYREF_I4__BYREF_I4__BYREF_I4ER17CLR_RT_StackFrame
0805b314 T _ZN48Library_corlib_native_System_Reflection_Assembly80LoadInternal___STATIC__SystemReflectionAssembly__STRING__BOOLEAN__I4__I4__I4__I4ER17CLR_RT_StackFrame
080639f8 T _ZN48Library_spot_native_Microsoft_SPOT_ExtendedTimer106_ctor___VOID__mscorlibSystemThreadingTimerCallback__OBJECT__mscorlibSystemDateTime__mscorlibSystemTimeSpanER17CLR_RT_StackFrame
080639d4 T _ZN48Library_spot_native_Microsoft_SPOT_ExtendedTimer106_ctor___VOID__mscorlibSystemThreadingTimerCallback__OBJECT__mscorlibSystemTimeSpan__mscorlibSystemTimeSpanER17CLR_RT_StackFrame
0806398c T _ZN48Library_spot_native_Microsoft_SPOT_ExtendedTimer14Dispose___VOIDER17CLR_RT_StackFrame
08063a74 T _ZN48Library_spot_native_Microsoft_SPOT_ExtendedTimer21Change___VOID__I4__I4ER17CLR_RT_StackFrame
08063ae0 T _ZN48Library_spot_native_Microsoft_SPOT_ExtendedTimer43get_LastExpiration___mscorlibSystemTimeSpanER17CLR_RT_StackFrame
08063abc T _ZN48Library_spot_native_Microsoft_SPOT_ExtendedTimer61Change___VOID__mscorlibSystemDateTime__mscorlibSystemTimeSpanER17CLR_RT_StackFrame
08063a98 T _ZN48Library_spot_native_Microsoft_SPOT_ExtendedTimer61Change___VOID__mscorlibSystemTimeSpan__mscorlibSystemTimeSpanER17CLR_RT_StackFrame
080639b0 T _ZN48Library_spot_native_Microsoft_SPOT_ExtendedTimer66_ctor___VOID__mscorlibSystemThreadingTimerCallback__OBJECT__I4__I4ER17CLR_RT_StackFrame
08063a1c T _ZN48Library_spot_native_Microsoft_SPOT_ExtendedTimer96_ctor___VOID__mscorlibSystemThreadingTimerCallback__OBJECT__MicrosoftSPOTExtendedTimerTimeEventsER17CLR_RT_StackFrame
08063b44 T _ZN48Library_spot_native_Microsoft_SPOT_ExtendedTimer9SetValuesER17CLR_RT_StackFramej
08059238 T _ZN49Library_corlib_native_System_Diagnostics_Debugger20Break___STATIC__VOIDER17CLR_RT_StackFrame
080591fc T _ZN49Library_corlib_native_System_Diagnostics_Debugger32get_IsAttached___STATIC__BOOLEANER17CLR_RT_StackFrame
0805ba60 T _ZN49Library_corlib_native_System_Reflection_FieldInfo10InitializeER17CLR_RT_StackFrameR24CLR_RT_FieldDef_InstanceR23CLR_RT_TypeDef_InstanceRP16CLR_RT_HeapBlock
0805b72c T _ZN49Library_corlib_native_System_Reflection_FieldInfo31SetValue___VOID__OBJECT__OBJECTER17CLR_RT_StackFrame
0805fdd8 T _ZN49Library_corlib_native_System_Threading_WaitHandle30WaitOne___BOOLEAN__I4__BOOLEANER17CLR_RT_StackFrame
0805fefc T _ZN49Library_corlib_native_System_Threading_WaitHandle3SetER17CLR_RT_StackFrame
0805ff58 T _ZN49Library_corlib_native_System_Threading_WaitHandle4WaitER17CLR_RT_StackFrameR16CLR_RT_HeapBlockS3_PS2_ib
0805ff28 T _ZN49Library_corlib_native_System_Threading_WaitHandle5ResetER17CLR_RT_StackFrame
0805fe4c T _ZN49Library_corlib_native_System_Threading_WaitHandle82WaitMultiple___STATIC__I4__SZARRAY_SystemThreadingWaitHandle__I4__BOOLEAN__BOOLEANER17CLR_RT_StackFrame
0806d3b8 T _ZN50Library_RealTimeTimer_Samraksh_SPOT_RealTime_Timer22Dispose___STATIC__VOIDER17CLR_RT_StackFrame
0806d3f4 T _ZN50Library_RealTimeTimer_Samraksh_SPOT_RealTime_Timer32Change___STATIC__BOOLEAN__U4__U4ER17CLR_RT_StackFrame
0806d488 T _ZN50Library_RealTimeTimer_Samraksh_SPOT_RealTime_Timer32GenerateInterrupt___STATIC__VOIDER17CLR_RT_StackFrame
08058464 T _ZN50Library_corlib_native_System_Collections_ArrayList12Clear___VOIDER17CLR_RT_StackFrame
080583f8 T _ZN50Library_corlib_native_System_Collections_ArrayList16Add___I4__OBJECTER17CLR_RT_StackFrame
080584f8 T _ZN50Library_corlib_native_System_Collections_ArrayList19RemoveAt___VOID__I4ER17CLR_RT_StackFrame
08058330 T _ZN50Library_corlib_native_System_Collections_ArrayList21get_Item___OBJECT__I4ER17CLR_RT_StackFrame
08058544 T _ZN50Library_corlib_native_System_Collections_ArrayList22SetCapacity___VOID__I4ER17CLR_RT_StackFrame
0805849c T _ZN50Library_corlib_native_System_Collections_ArrayList25Insert___VOID__I4__OBJECTER17CLR_RT_StackFrame
0805839c T _ZN50Library_corlib_native_System_Collections_ArrayList27set_Item___VOID__I4__OBJECTER17CLR_RT_StackFrame
0805be8c T _ZN50Library_corlib_native_System_Reflection_MethodBase10CheckFlagsER17CLR_RT_StackFramejj
0805bd44 T _ZN50Library_corlib_native_System_Reflection_MethodBase17get_Name___STRINGER17CLR_RT_StackFrame
0805be5c T _ZN50Library_corlib_native_System_Reflection_MethodBase19GetMethodDescriptorER17CLR_RT_StackFrameR16CLR_RT_HeapBlockR25CLR_RT_MethodDef_Instance
0805bbb8 T _ZN50Library_corlib_native_System_Reflection_MethodBase21get_IsFinal___BOOLEANER17CLR_RT_StackFrame
0805bb68 T _ZN50Library_corlib_native_System_Reflection_MethodBase22get_IsPublic___BOOLEANER17CLR_RT_StackFrame
0805bb90 T _ZN50Library_corlib_native_System_Reflection_MethodBase22get_IsStatic___BOOLEANER17CLR_RT_StackFrame
0805bbe0 T _ZN50Library_corlib_native_System_Reflection_MethodBase23get_IsVirtual___BOOLEANER17CLR_RT_StackFrame
0805bc08 T _ZN50Library_corlib_native_System_Reflection_MethodBase24get_IsAbstract___BOOLEANER17CLR_RT_StackFrame
0805bda8 T _ZN50Library_corlib_native_System_Reflection_MethodBase30get_DeclaringType___SystemTypeER17CLR_RT_StackFrame
0805bc30 T _ZN50Library_corlib_native_System_Reflection_MethodBase39Invoke___OBJECT__OBJECT__SZARRAY_OBJECTER17CLR_RT_StackFrame
0805ee6c T _ZN50Library_corlib_native_System_Threading_Interlocked32Decrement___STATIC__I4__BYREF_I4ER17CLR_RT_StackFrame
0805ede0 T _ZN50Library_corlib_native_System_Threading_Interlocked32Increment___STATIC__I4__BYREF_I4ER17CLR_RT_StackFrame
0805eef8 T _ZN50Library_corlib_native_System_Threading_Interlocked35Exchange___STATIC__I4__BYREF_I4__I4ER17CLR_RT_StackFrame
0805ef90 T _ZN50Library_corlib_native_System_Threading_Interlocked46CompareExchange___STATIC__I4__BYREF_I4__I4__I4ER17CLR_RT_StackFrame
08065444 T _ZN50Library_spot_native_Microsoft_SPOT_ResourceUtility83set_CurrentUICultureInternal___STATIC__VOID__mscorlibSystemGlobalizationCultureInfoER17CLR_RT_StackFrame
0806540c T _ZN50Library_spot_native_Microsoft_SPOT_ResourceUtility86GetObject___STATIC__OBJECT__mscorlibSystemResourcesResourceManager__mscorlibSystemEnumER17CLR_RT_StackFrame
08065428 T _ZN50Library_spot_native_Microsoft_SPOT_ResourceUtility94GetObject___STATIC__OBJECT__mscorlibSystemResourcesResourceManager__mscorlibSystemEnum__I4__I4ER17CLR_RT_StackFrame
080644dc T _ZN51Library_spot_native_Microsoft_SPOT_Hardware_Utility13CombineArraysER17CLR_RT_StackFrameR16CLR_RT_HeapBlockiiS3_ii
0806435c T _ZN51Library_spot_native_Microsoft_SPOT_Hardware_Utility28Piezo___STATIC__VOID__U4__U4ER17CLR_RT_StackFrame
080643e0 T _ZN51Library_spot_native_Microsoft_SPOT_Hardware_Utility29InsertOrExtractValueFromArrayER17CLR_RT_StackFrameb
080643a4 T _ZN51Library_spot_native_Microsoft_SPOT_Hardware_Utility33Backlight___STATIC__VOID__BOOLEANER17CLR_RT_StackFrame
08063f48 T _ZN51Library_spot_native_Microsoft_SPOT_Hardware_Utility47ComputeCRC___STATIC__U4__SZARRAY_U1__I4__I4__U4ER17CLR_RT_StackFrame
08064328 T _ZN51Library_spot_native_Microsoft_SPOT_Hardware_Utility47GetMachineTime___STATIC__mscorlibSystemTimeSpanER17CLR_RT_StackFrame
08064204 T _ZN51Library_spot_native_Microsoft_SPOT_Hardware_Utility51SetLocalTime___STATIC__VOID__mscorlibSystemDateTimeER17CLR_RT_StackFrame
0806402c T _ZN51Library_spot_native_Microsoft_SPOT_Hardware_Utility54ExtractValueFromArray___STATIC__U4__SZARRAY_U1__I4__I4ER17CLR_RT_StackFrame
0806413c T _ZN51Library_spot_native_Microsoft_SPOT_Hardware_Utility58CombineArrays___STATIC__SZARRAY_U1__SZARRAY_U1__SZARRAY_U1ER17CLR_RT_StackFrame
08064050 T _ZN51Library_spot_native_Microsoft_SPOT_Hardware_Utility59InsertValueIntoArray___STATIC__VOID__SZARRAY_U1__I4__I4__U4ER17CLR_RT_StackFrame
08064074 T _ZN51Library_spot_native_Microsoft_SPOT_Hardware_Utility62ExtractRangeFromArray___STATIC__SZARRAY_U1__SZARRAY_U1__I4__I4ER17CLR_RT_StackFrame
08064184 T _ZN51Library_spot_native_Microsoft_SPOT_Hardware_Utility74CombineArrays___STATIC__SZARRAY_U1__SZARRAY_U1__I4__I4__SZARRAY_U1__I4__I4ER17CLR_RT_StackFrame
0806e05c T _ZN52Library_Samraksh_SPOT_Net_Samraksh_SPOT_Net_Mac_CSMA104InternalInitialize___STATIC__SamrakshSPOTNetDeviceStatus__SamrakshSPOTNetMacMacConfiguration__SZARRAY_U1ER17CLR_RT_StackFrame
0806ddbc T _ZN52Library_Samraksh_SPOT_Net_Samraksh_SPOT_Net_Mac_CSMA10GetID___U1ER17CLR_RT_StackFrame
0806dd58 T _ZN52Library_Samraksh_SPOT_Net_Samraksh_SPOT_Net_Mac_CSMA15GetAddress___U2ER17CLR_RT_StackFrame
0806df04 T _ZN52Library_Samraksh_SPOT_Net_Samraksh_SPOT_Net_Mac_CSMA18GetBufferSize___U1ER17CLR_RT_StackFrame
0806df68 T _ZN52Library_Samraksh_SPOT_Net_Samraksh_SPOT_Net_Mac_CSMA26GetPendingPacketCount___U1ER17CLR_RT_StackFrame
0806dbfc T _ZN52Library_Samraksh_SPOT_Net_Samraksh_SPOT_Net_Mac_CSMA42UnInitialize___SamrakshSPOTNetDeviceStatusER17CLR_RT_StackFrame
0806de80 T _ZN52Library_Samraksh_SPOT_Net_Samraksh_SPOT_Net_Mac_CSMA45GetNeighbors___SamrakshSPOTNetMacNeighbor__U2ER17CLR_RT_StackFrame
0806de20 T _ZN52Library_Samraksh_SPOT_Net_Samraksh_SPOT_Net_Mac_CSMA50GetNeighborTable___SamrakshSPOTNetMacNeighborTableER17CLR_RT_StackFrame
0806dfcc T _ZN52Library_Samraksh_SPOT_Net_Samraksh_SPOT_Net_Mac_CSMA54RemovePacket___SamrakshSPOTNetDeviceStatus__SZARRAY_U1ER17CLR_RT_StackFrame
0806dc5c T _ZN52Library_Samraksh_SPOT_Net_Samraksh_SPOT_Net_Mac_CSMA57Send___SamrakshSPOTNetNetOpStatus__U2__SZARRAY_U1__U2__U2ER17CLR_RT_StackFrame
0806db78 T _ZN52Library_Samraksh_SPOT_Net_Samraksh_SPOT_Net_Mac_CSMA75Configure___SamrakshSPOTNetDeviceStatus__SamrakshSPOTNetMacMacConfigurationER17CLR_RT_StackFrame
0805bf08 T _ZN52Library_corlib_native_System_Reflection_PropertyInfo41GetValue___OBJECT__OBJECT__SZARRAY_OBJECTER17CLR_RT_StackFrame
0805bf28 T _ZN52Library_corlib_native_System_Reflection_PropertyInfo47SetValue___VOID__OBJECT__OBJECT__SZARRAY_OBJECTER17CLR_RT_StackFrame
0805edc0 T _ZN53Library_corlib_native_System_Threading_AutoResetEvent13Set___BOOLEANER17CLR_RT_StackFrame
0805eda0 T _ZN53Library_corlib_native_System_Threading_AutoResetEvent15Reset___BOOLEANER17CLR_RT_StackFrame
0805ed48 T _ZN53Library_corlib_native_System_Threading_AutoResetEvent21_ctor___VOID__BOOLEANER17CLR_RT_StackFrame
08066088 T _ZN53Library_spot_hardware_native_Microsoft_SPOT_EventSink18EventConfig___VOIDER17CLR_RT_StackFrame
080693f0 T _ZN53Library_spot_native_Microsoft_SPOT_Messaging_EndPoint36_ctor___VOID__mscorlibSystemType__U4ER17CLR_RT_StackFrame
08069430 T _ZN53Library_spot_native_Microsoft_SPOT_Messaging_EndPoint43Check___BOOLEAN__mscorlibSystemType__U4__I4ER17CLR_RT_StackFrame
08069410 T _ZN53Library_spot_native_Microsoft_SPOT_Messaging_EndPoint46GetMessage___MicrosoftSPOTMessagingMessage__I4ER17CLR_RT_StackFrame
08069470 T _ZN53Library_spot_native_Microsoft_SPOT_Messaging_EndPoint58ReplyRaw___VOID__MicrosoftSPOTMessagingMessage__SZARRAY_U1ER17CLR_RT_StackFrame
08069450 T _ZN53Library_spot_native_Microsoft_SPOT_Messaging_EndPoint67SendMessageRaw___SZARRAY_U1__mscorlibSystemType__U4__I4__SZARRAY_U1ER17CLR_RT_StackFrame
08059a8c T _ZN54Library_corlib_native_System_Globalization_CultureInfo69get_CurrentUICultureInternal___STATIC__SystemGlobalizationCultureInfoER17CLR_RT_StackFrame
08059ac4 T _ZN54Library_corlib_native_System_Globalization_CultureInfo75set_CurrentUICultureInternal___STATIC__VOID__SystemGlobalizationCultureInfoER17CLR_RT_StackFrame
0805c3d0 T _ZN54Library_corlib_native_System_Resources_ResourceManager30GetObjectInternal___OBJECT__I2ER17CLR_RT_StackFrame
0805c5c4 T _ZN54Library_corlib_native_System_Resources_ResourceManager38GetObjectInternal___OBJECT__I2__I4__I4ER17CLR_RT_StackFrame
0805c334 T _ZN54Library_corlib_native_System_Resources_ResourceManager59FindResource___STATIC__I4__STRING__SystemReflectionAssemblyER17CLR_RT_StackFrame
0805c75c T _ZN54Library_corlib_native_System_Resources_ResourceManager70GetObject___STATIC__OBJECT__SystemResourcesResourceManager__SystemEnumER17CLR_RT_StackFrame
0805c834 T _ZN54Library_corlib_native_System_Resources_ResourceManager78GetObject___STATIC__OBJECT__SystemResourcesResourceManager__SystemEnum__I4__I4ER17CLR_RT_StackFrame
08063834 T _ZN54Library_spot_native_Microsoft_SPOT_ExecutionConstraint30Install___STATIC__VOID__I4__I4ER17CLR_RT_StackFrame
080646e0 T _ZN54Library_spot_native_Microsoft_SPOT_Hardware_SystemInfo30get_OEMString___STATIC__STRINGER17CLR_RT_StackFrame
08064714 T _ZN54Library_spot_native_Microsoft_SPOT_Hardware_SystemInfo33get_IsBigEndian___STATIC__BOOLEANER17CLR_RT_StackFrame
080645e4 T _ZN54Library_spot_native_Microsoft_SPOT_Hardware_SystemInfo71GetSystemVersion___STATIC__VOID__BYREF_I4__BYREF_I4__BYREF_I4__BYREF_I4ER17CLR_RT_StackFrame
0805b664 T _ZN55Library_corlib_native_System_Reflection_ConstructorInfo31Invoke___OBJECT__SZARRAY_OBJECTER17CLR_RT_StackFrame
0805f0bc T _ZN55Library_corlib_native_System_Threading_ManualResetEvent13Set___BOOLEANER17CLR_RT_StackFrame
0805f09c T _ZN55Library_corlib_native_System_Threading_ManualResetEvent15Reset___BOOLEANER17CLR_RT_StackFrame
0805f04c T _ZN55Library_corlib_native_System_Threading_ManualResetEvent21_ctor___VOID__BOOLEANER17CLR_RT_StackFrame
0805bf48 T _ZN56Library_corlib_native_System_Reflection_RuntimeFieldInfo17get_Name___STRINGER17CLR_RT_StackFrame
0805c250 T _ZN56Library_corlib_native_System_Reflection_RuntimeFieldInfo18GetFieldDescriptorER17CLR_RT_StackFrameR16CLR_RT_HeapBlockR24CLR_RT_FieldDef_Instance
0805c120 T _ZN56Library_corlib_native_System_Reflection_RuntimeFieldInfo25GetValue___OBJECT__OBJECTER17CLR_RT_StackFrame
0805c068 T _ZN56Library_corlib_native_System_Reflection_RuntimeFieldInfo26get_FieldType___SystemTypeER17CLR_RT_StackFrame
0805bfb0 T _ZN56Library_corlib_native_System_Reflection_RuntimeFieldInfo30get_DeclaringType___SystemTypeER17CLR_RT_StackFrame
08065ea8 T _ZN56Library_spot_hardware_native_Microsoft_SPOT_Hardware_Cpu26get_SlowClock___STATIC__U4ER17CLR_RT_StackFrame
08065e7c T _ZN56Library_spot_hardware_native_Microsoft_SPOT_Hardware_Cpu28get_SystemClock___STATIC__U4ER17CLR_RT_StackFrame
08065ed4 T _ZN56Library_spot_hardware_native_Microsoft_SPOT_Hardware_Cpu53get_GlitchFilterTime___STATIC__mscorlibSystemTimeSpanER17CLR_RT_StackFrame
08065f3c T _ZN56Library_spot_hardware_native_Microsoft_SPOT_Hardware_Cpu59set_GlitchFilterTime___STATIC__VOID__mscorlibSystemTimeSpanER17CLR_RT_StackFrame
0806853c T _ZN56Library_spot_hardware_native_Microsoft_SPOT_Hardware_SPI68InternalWriteRead___VOID__SZARRAY_U1__I4__I4__SZARRAY_U1__I4__I4__I4ER17CLR_RT_StackFrame
080683e8 T _ZN56Library_spot_hardware_native_Microsoft_SPOT_Hardware_SPI68InternalWriteRead___VOID__SZARRAY_U2__I4__I4__SZARRAY_U2__I4__I4__I4ER17CLR_RT_StackFrame
08063cc0 T _ZN56Library_spot_native_Microsoft_SPOT_ExtendedWeakReference11get_Id___U4ER17CLR_RT_StackFrame
08063d04 T _ZN56Library_spot_native_Microsoft_SPOT_ExtendedWeakReference14get_Flags___U4ER17CLR_RT_StackFrame
08063d48 T _ZN56Library_spot_native_Microsoft_SPOT_ExtendedWeakReference17get_Priority___I4ER17CLR_RT_StackFrame
08063ef4 T _ZN56Library_spot_native_Microsoft_SPOT_ExtendedWeakReference23FlushAll___STATIC__VOIDER17CLR_RT_StackFrame
08063d88 T _ZN56Library_spot_native_Microsoft_SPOT_ExtendedWeakReference23set_Priority___VOID__I4ER17CLR_RT_StackFrame
08063dd8 T _ZN56Library_spot_native_Microsoft_SPOT_ExtendedWeakReference30PushBackIntoRecoverList___VOIDER17CLR_RT_StackFrame
08063c30 T _ZN56Library_spot_native_Microsoft_SPOT_ExtendedWeakReference33get_Selector___mscorlibSystemTypeER17CLR_RT_StackFrame
08063b68 T _ZN56Library_spot_native_Microsoft_SPOT_ExtendedWeakReference48_ctor___VOID__OBJECT__mscorlibSystemType__U4__U4ER17CLR_RT_StackFrame
08063e18 T _ZN56Library_spot_native_Microsoft_SPOT_ExtendedWeakReference76Recover___STATIC__MicrosoftSPOTExtendedWeakReference__mscorlibSystemType__U4ER17CLR_RT_StackFrame
08059afc T _ZN57Library_corlib_native_System_Globalization_DateTimeFormat37FormatDigits___STATIC__STRING__I4__I4ER17CLR_RT_StackFrame
0805c270 T _ZN57Library_corlib_native_System_Reflection_RuntimeMethodInfo27get_ReturnType___SystemTypeER17CLR_RT_StackFrame
0806789c T _ZN57Library_spot_hardware_native_Microsoft_SPOT_Hardware_Port11ChangeStateEP16CLR_RT_HeapBlockP38CLR_RT_HeapBlock_NativeEventDispatcherb
08067d14 T _ZN57Library_spot_hardware_native_Microsoft_SPOT_Hardware_Port129_ctor___VOID__MicrosoftSPOTHardwareCpuPin__BOOLEAN__MicrosoftSPOTHardwarePortResistorMode__MicrosoftSPOTHardwarePortInterruptModeER17CLR_RT_StackFrame
08067788 T _ZN57Library_spot_hardware_native_Microsoft_SPOT_Hardware_Port12IsrProcedureEjjPv
08067f20 T _ZN57Library_spot_hardware_native_Microsoft_SPOT_Hardware_Port14Read___BOOLEANER17CLR_RT_StackFrame
08067a04 T _ZN57Library_spot_hardware_native_Microsoft_SPOT_Hardware_Port23Dispose___VOID__BOOLEANER17CLR_RT_StackFrame
08067fa8 T _ZN57Library_spot_hardware_native_Microsoft_SPOT_Hardware_Port36get_Id___MicrosoftSPOTHardwareCpuPinER17CLR_RT_StackFrame
08067dcc T _ZN57Library_spot_hardware_native_Microsoft_SPOT_Hardware_Port50_ctor___VOID__MicrosoftSPOTHardwareCpuPin__BOOLEANER17CLR_RT_StackFrame
08067ff8 T _ZN57Library_spot_hardware_native_Microsoft_SPOT_Hardware_Port66ReservePin___STATIC__BOOLEAN__MicrosoftSPOTHardwareCpuPin__BOOLEANER17CLR_RT_StackFrame
08067e60 T _ZN57Library_spot_hardware_native_Microsoft_SPOT_Hardware_Port98_ctor___VOID__MicrosoftSPOTHardwareCpuPin__BOOLEAN__BOOLEAN__MicrosoftSPOTHardwarePortResistorModeER17CLR_RT_StackFrame
08070cd0 W _ZN5RadioI7MessageI19IEEE802_15_4_HeaderLt113E19IEEE802_15_4_Footer21IEEE802_15_4_MetadataEE10GetRadioIDEv
08070c08 W _ZN5RadioI7MessageI19IEEE802_15_4_HeaderLt113E19IEEE802_15_4_Footer21IEEE802_15_4_MetadataEE10InitializeEP17RadioEventHandlerh
2000766c V _ZN5RadioI7MessageI19IEEE802_15_4_HeaderLt113E19IEEE802_15_4_Footer21IEEE802_15_4_MetadataEE10MacIDIndexE
0806fe90 W _ZN5RadioI7MessageI19IEEE802_15_4_HeaderLt113E19IEEE802_15_4_Footer21IEEE802_15_4_MetadataEE10SetAddressEt
08070c98 W _ZN5RadioI7MessageI19IEEE802_15_4_HeaderLt113E19IEEE802_15_4_Footer21IEEE802_15_4_MetadataEE10SetRadioIDEh
20007670 V _ZN5RadioI7MessageI19IEEE802_15_4_HeaderLt113E19IEEE802_15_4_Footer21IEEE802_15_4_MetadataEE11MacHandlersE
08070d04 W _ZN5RadioI7MessageI19IEEE802_15_4_HeaderLt113E19IEEE802_15_4_Footer21IEEE802_15_4_MetadataEE13GetMacHandlerEh
08070be8 W _ZN5RadioI7MessageI19IEEE802_15_4_HeaderLt113E19IEEE802_15_4_Footer21IEEE802_15_4_MetadataEE13GetMacIdIndexEv
08070cb4 W _ZN5RadioI7MessageI19IEEE802_15_4_HeaderLt113E19IEEE802_15_4_Footer21IEEE802_15_4_MetadataEE14SetInitializedEj
08070d2c W _ZN5RadioI7MessageI19IEEE802_15_4_HeaderLt113E19IEEE802_15_4_Footer21IEEE802_15_4_MetadataEE18SetDefaultHandlersEv
20007668 V _ZN5RadioI7MessageI19IEEE802_15_4_HeaderLt113E19IEEE802_15_4_Footer21IEEE802_15_4_MetadataEE6MacIDsE
08034ec4 W _ZN5STM324AITCEv
08065ac0 T _ZN60Library_spot_hardware_native_Microsoft_SPOT_Hardware_Battery24ReadVoltage___STATIC__I4ER17CLR_RT_StackFrame
08065bf0 T _ZN60Library_spot_hardware_native_Microsoft_SPOT_Hardware_Battery26StateOfCharge___STATIC__I4ER17CLR_RT_StackFrame
08065b50 T _ZN60Library_spot_hardware_native_Microsoft_SPOT_Hardware_Battery27OnCharger___STATIC__BOOLEANER17CLR_RT_StackFrame
08065b08 T _ZN60Library_spot_hardware_native_Microsoft_SPOT_Hardware_Battery28ReadTemperature___STATIC__I4ER17CLR_RT_StackFrame
08065b9c T _ZN60Library_spot_hardware_native_Microsoft_SPOT_Hardware_Battery32IsFullyCharged___STATIC__BOOLEANER17CLR_RT_StackFrame
08065c38 T _ZN60Library_spot_hardware_native_Microsoft_SPOT_Hardware_Battery34WaitForEvent___STATIC__BOOLEAN__I4ER17CLR_RT_StackFrame
0806967c T _ZN60Library_spot_hardware_pwm_native_Microsoft_SPOT_Hardware_PWM11Init___VOIDER17CLR_RT_StackFrame
080694f0 T _ZN60Library_spot_hardware_pwm_native_Microsoft_SPOT_Hardware_PWM11Stop___VOIDER17CLR_RT_StackFrame
08069490 T _ZN60Library_spot_hardware_pwm_native_Microsoft_SPOT_Hardware_PWM12Start___VOIDER17CLR_RT_StackFrame
08069550 T _ZN60Library_spot_hardware_pwm_native_Microsoft_SPOT_Hardware_PWM13Commit___VOIDER17CLR_RT_StackFrame
080696c8 T _ZN60Library_spot_hardware_pwm_native_Microsoft_SPOT_Hardware_PWM13Uninit___VOIDER17CLR_RT_StackFrame
08069804 T _ZN60Library_spot_hardware_pwm_native_Microsoft_SPOT_Hardware_PWM18GetChannelsAndPinsEP22CLR_RT_HeapBlock_ArrayP11PWM_CHANNELPjRj
0806978c T _ZN60Library_spot_hardware_pwm_native_Microsoft_SPOT_Hardware_PWM53Stop___STATIC__VOID__SZARRAY_MicrosoftSPOTHardwarePWMER17CLR_RT_StackFrame
08069714 T _ZN60Library_spot_hardware_pwm_native_Microsoft_SPOT_Hardware_PWM54Start___STATIC__VOID__SZARRAY_MicrosoftSPOTHardwarePWMER17CLR_RT_StackFrame
08068f64 T _ZN61Library_spot_hardware_native_Microsoft_SPOT_Hardware_Watchdog143GetLastOcurrenceDetails___STATIC__BOOLEAN__BYREF_mscorlibSystemDateTime__BYREF_mscorlibSystemTimeSpan__BYREF_mscorlibSystemReflectionMethodInfoER17CLR_RT_StackFrame
08068d44 T _ZN61Library_spot_hardware_native_Microsoft_SPOT_Hardware_Watchdog29get_Enabled___STATIC__BOOLEANER17CLR_RT_StackFrame
08068d80 T _ZN61Library_spot_hardware_native_Microsoft_SPOT_Hardware_Watchdog35set_Enabled___STATIC__VOID__BOOLEANER17CLR_RT_StackFrame
08068de8 T _ZN61Library_spot_hardware_native_Microsoft_SPOT_Hardware_Watchdog44get_Timeout___STATIC__mscorlibSystemTimeSpanER17CLR_RT_StackFrame
08068e58 T _ZN61Library_spot_hardware_native_Microsoft_SPOT_Hardware_Watchdog50set_Timeout___STATIC__VOID__mscorlibSystemTimeSpanER17CLR_RT_StackFrame
08068f24 T _ZN61Library_spot_hardware_native_Microsoft_SPOT_Hardware_Watchdog54get_Log___STATIC__MicrosoftSPOTNativeMicrosoftSPOTILogER17CLR_RT_StackFrame
08068eb0 T _ZN61Library_spot_hardware_native_Microsoft_SPOT_Hardware_Watchdog60get_Behavior___STATIC__MicrosoftSPOTHardwareWatchdogBehaviorER17CLR_RT_StackFrame
08068f44 T _ZN61Library_spot_hardware_native_Microsoft_SPOT_Hardware_Watchdog60set_Log___STATIC__VOID__MicrosoftSPOTNativeMicrosoftSPOTILogER17CLR_RT_StackFrame
08068ee0 T _ZN61Library_spot_hardware_native_Microsoft_SPOT_Hardware_Watchdog66set_Behavior___STATIC__VOID__MicrosoftSPOTHardwareWatchdogBehaviorER17CLR_RT_StackFrame
0805d070 T _ZN62Library_corlib_native_System_Runtime_Remoting_RemotingServices44IsTransparentProxy___STATIC__BOOLEAN__OBJECTER17CLR_RT_StackFrame
08066b90 T _ZN62Library_spot_hardware_native_Microsoft_SPOT_Hardware_I2CDevice17Initialize___VOIDER17CLR_RT_StackFrame
08066be4 T _ZN62Library_spot_hardware_native_Microsoft_SPOT_Hardware_I2CDevice70Execute___I4__SZARRAY_MicrosoftSPOTHardwareI2CDeviceI2CTransaction__I4ER17CLR_RT_StackFrame
08067160 T _ZN62Library_spot_hardware_native_Microsoft_SPOT_Hardware_InputPort26get_GlitchFilter___BOOLEANER17CLR_RT_StackFrame
080671ac T _ZN62Library_spot_hardware_native_Microsoft_SPOT_Hardware_InputPort32set_GlitchFilter___VOID__BOOLEANER17CLR_RT_StackFrame
0806707c T _ZN62Library_spot_hardware_native_Microsoft_SPOT_Hardware_InputPort52get_Resistor___MicrosoftSPOTHardwarePortResistorModeER17CLR_RT_StackFrame
080670c8 T _ZN62Library_spot_hardware_native_Microsoft_SPOT_Hardware_InputPort58set_Resistor___VOID__MicrosoftSPOTHardwarePortResistorModeER17CLR_RT_StackFrame
08069fc8 T _ZN62Library_spot_hardware_serial_native_System_IO_Ports_SerialPort12Flush___VOIDER17CLR_RT_StackFrame
080698cc T _ZN62Library_spot_hardware_serial_native_System_IO_Ports_SerialPort19InternalOpen___VOIDER17CLR_RT_StackFrame
080699f4 T _ZN62Library_spot_hardware_serial_native_System_IO_Ports_SerialPort20InternalClose___VOIDER17CLR_RT_StackFrame
08069f54 T _ZN62Library_spot_hardware_serial_native_System_IO_Ports_SerialPort22InternalDispose___VOIDER17CLR_RT_StackFrame
0806a05c T _ZN62Library_spot_hardware_serial_native_System_IO_Ports_SerialPort27BytesInBuffer___I4__BOOLEANER17CLR_RT_StackFrame
0806a128 T _ZN62Library_spot_hardware_serial_native_System_IO_Ports_SerialPort29DiscardBuffer___VOID__BOOLEANER17CLR_RT_StackFrame
08069ab8 T _ZN62Library_spot_hardware_serial_native_System_IO_Ports_SerialPort29Read___I4__SZARRAY_U1__I4__I4ER17CLR_RT_StackFrame
08069d08 T _ZN62Library_spot_hardware_serial_native_System_IO_Ports_SerialPort32Write___VOID__SZARRAY_U1__I4__I4ER17CLR_RT_StackFrame
0806767c T _ZN63Library_spot_hardware_native_Microsoft_SPOT_Hardware_OutputPort21Write___VOID__BOOLEANER17CLR_RT_StackFrame
08067738 T _ZN63Library_spot_hardware_native_Microsoft_SPOT_Hardware_OutputPort26get_InitialState___BOOLEANER17CLR_RT_StackFrame
08068070 T _ZN63Library_spot_hardware_native_Microsoft_SPOT_Hardware_PowerState30Reboot___STATIC__VOID__BOOLEANER17CLR_RT_StackFrame
080680b8 T _ZN63Library_spot_hardware_native_Microsoft_SPOT_Hardware_PowerState40WaitForIdleCPU___STATIC__BOOLEAN__I4__I4ER17CLR_RT_StackFrame
08068228 T _ZN63Library_spot_hardware_native_Microsoft_SPOT_Hardware_PowerState43get_Uptime___STATIC__mscorlibSystemTimeSpanER17CLR_RT_StackFrame
080681b4 T _ZN63Library_spot_hardware_native_Microsoft_SPOT_Hardware_PowerState56get_MaximumTimeToActive___STATIC__mscorlibSystemTimeSpanER17CLR_RT_StackFrame
0806825c T _ZN63Library_spot_hardware_native_Microsoft_SPOT_Hardware_PowerState61get_WakeupEvents___STATIC__MicrosoftSPOTHardwareHardwareEventER17CLR_RT_StackFrame
080681ec T _ZN63Library_spot_hardware_native_Microsoft_SPOT_Hardware_PowerState62set_MaximumTimeToActive___STATIC__VOID__mscorlibSystemTimeSpanER17CLR_RT_StackFrame
0806828c T _ZN63Library_spot_hardware_native_Microsoft_SPOT_Hardware_PowerState67set_WakeupEvents___STATIC__VOID__MicrosoftSPOTHardwareHardwareEventER17CLR_RT_StackFrame
080683b0 T _ZN63Library_spot_hardware_native_Microsoft_SPOT_Hardware_PowerState72InternalChangePowerLevel___STATIC__VOID__MicrosoftSPOTHardwarePowerLevelER17CLR_RT_StackFrame
080682d8 T _ZN63Library_spot_hardware_native_Microsoft_SPOT_Hardware_PowerState97InternalSleep___STATIC__VOID__MicrosoftSPOTHardwareSleepLevel__MicrosoftSPOTHardwareHardwareEventER17CLR_RT_StackFrame
0806f31c T _ZN63Library_spot_native_Samraksh_SPOT_Hardware_EmoteDotNow_EmoteLCD159Write___BOOLEAN__SamrakshSPOTHardwareEmoteDotNowLCD__SamrakshSPOTHardwareEmoteDotNowLCD__SamrakshSPOTHardwareEmoteDotNowLCD__SamrakshSPOTHardwareEmoteDotNowLCDER17CLR_RT_StackFrame
0806f730 T _ZN63Library_spot_native_Samraksh_SPOT_Hardware_EmoteDotNow_EmoteLCD15Clear___BOOLEANER17CLR_RT_StackFrame
0806f24c T _ZN63Library_spot_native_Samraksh_SPOT_Hardware_EmoteDotNow_EmoteLCD20Initialize___BOOLEANER17CLR_RT_StackFrame
0806f2b4 T _ZN63Library_spot_native_Samraksh_SPOT_Hardware_EmoteDotNow_EmoteLCD22Uninitialize___BOOLEANER17CLR_RT_StackFrame
0806f5b0 T _ZN63Library_spot_native_Samraksh_SPOT_Hardware_EmoteDotNow_EmoteLCD39WriteRawBytes___BOOLEAN__I4__I4__I4__I4ER17CLR_RT_StackFrame
0806f410 T _ZN63Library_spot_native_Samraksh_SPOT_Hardware_EmoteDotNow_EmoteLCD51SetDP___BOOLEAN__BOOLEAN__BOOLEAN__BOOLEAN__BOOLEANER17CLR_RT_StackFrame
0806f6a4 T _ZN63Library_spot_native_Samraksh_SPOT_Hardware_EmoteDotNow_EmoteLCD53Blink___BOOLEAN__SamrakshSPOTHardwareEmoteDotNowBlinkER17CLR_RT_StackFrame
0806f508 T _ZN63Library_spot_native_Samraksh_SPOT_Hardware_EmoteDotNow_EmoteLCD56WriteN___BOOLEAN__I4__SamrakshSPOTHardwareEmoteDotNowLCDER17CLR_RT_StackFrame
0806ea5c T _ZN64Library_Samraksh_SPOT_Net_Samraksh_SPOT_Net_Radio_Radio_802_15_4108InternalInitialize___STATIC__SamrakshSPOTNetDeviceStatus__SamrakshSPOTNetRadioRadioConfiguration__SZARRAY_U1ER17CLR_RT_StackFrame
0806e580 T _ZN64Library_Samraksh_SPOT_Net_Samraksh_SPOT_Net_Radio_Radio_802_15_410GetID___U1ER17CLR_RT_StackFrame
0806e968 T _ZN64Library_Samraksh_SPOT_Net_Samraksh_SPOT_Net_Radio_Radio_802_15_431ClearChannelAssesment___BOOLEANER17CLR_RT_StackFrame
0806e9d0 T _ZN64Library_Samraksh_SPOT_Net_Samraksh_SPOT_Net_Radio_Radio_802_15_435ClearChannelAssesment___BOOLEAN__U2ER17CLR_RT_StackFrame
0806e5e4 T _ZN64Library_Samraksh_SPOT_Net_Samraksh_SPOT_Net_Radio_Radio_802_15_436TurnOn___SamrakshSPOTNetDeviceStatusER17CLR_RT_StackFrame
0806e77c T _ZN64Library_Samraksh_SPOT_Net_Samraksh_SPOT_Net_Radio_Radio_802_15_439SendStrobe___SamrakshSPOTNetNetOpStatusER17CLR_RT_StackFrame
0806e644 T _ZN64Library_Samraksh_SPOT_Net_Samraksh_SPOT_Net_Radio_Radio_802_15_439Sleep___SamrakshSPOTNetDeviceStatus__U1ER17CLR_RT_StackFrame
0806e520 T _ZN64Library_Samraksh_SPOT_Net_Samraksh_SPOT_Net_Radio_Radio_802_15_442UnInitialize___SamrakshSPOTNetDeviceStatusER17CLR_RT_StackFrame
0806e7dc T _ZN64Library_Samraksh_SPOT_Net_Samraksh_SPOT_Net_Radio_Radio_802_15_449Send___SamrakshSPOTNetNetOpStatus__SZARRAY_U1__U2ER17CLR_RT_StackFrame
0806e6c8 T _ZN64Library_Samraksh_SPOT_Net_Samraksh_SPOT_Net_Radio_Radio_802_15_452PreLoad___SamrakshSPOTNetNetOpStatus__SZARRAY_U1__U2ER17CLR_RT_StackFrame
0806e890 T _ZN64Library_Samraksh_SPOT_Net_Samraksh_SPOT_Net_Radio_Radio_802_15_464SendTimeStamped___SamrakshSPOTNetNetOpStatus__SZARRAY_U1__U2__U4ER17CLR_RT_StackFrame
0806e49c T _ZN64Library_Samraksh_SPOT_Net_Samraksh_SPOT_Net_Radio_Radio_802_15_479Configure___SamrakshSPOTNetDeviceStatus__SamrakshSPOTNetRadioRadioConfigurationER17CLR_RT_StackFrame
080658e0 T _ZN64Library_spot_hardware_native_Microsoft_SPOT_Hardware_AnalogInput12ReadRaw___I4ER17CLR_RT_StackFrame
08065990 T _ZN64Library_spot_hardware_native_Microsoft_SPOT_Hardware_AnalogInput66Uninitialize___STATIC__VOID__MicrosoftSPOTHardwareCpuAnalogChannelER17CLR_RT_StackFrame
0806592c T _ZN64Library_spot_hardware_native_Microsoft_SPOT_Hardware_AnalogInput68Initialize___STATIC__VOID__MicrosoftSPOTHardwareCpuAnalogChannel__I4ER17CLR_RT_StackFrame
080690f8 T _ZN64Library_spot_hardware_native_Microsoft_SPOT_Hardware_LargeBuffer18CreateBufferHelperER16CLR_RT_HeapBlockj
08069210 T _ZN64Library_spot_hardware_native_Microsoft_SPOT_Hardware_LargeBuffer28InternalDestroyBuffer___VOIDER17CLR_RT_StackFrame
080691b8 T _ZN64Library_spot_hardware_native_Microsoft_SPOT_Hardware_LargeBuffer31InternalCreateBuffer___VOID__I4ER17CLR_RT_StackFrame
08064750 T _ZN64Library_spot_native_Microsoft_SPOT_Hardware_SystemInfo__SystemID20get_OEM___STATIC__U1ER17CLR_RT_StackFrame
080647b0 T _ZN64Library_spot_native_Microsoft_SPOT_Hardware_SystemInfo__SystemID20get_SKU___STATIC__U2ER17CLR_RT_StackFrame
08064780 T _ZN64Library_spot_native_Microsoft_SPOT_Hardware_SystemInfo__SystemID22get_Model___STATIC__U1ER17CLR_RT_StackFrame
080659c8 T _ZN65Library_spot_hardware_native_Microsoft_SPOT_Hardware_AnalogOutput19WriteRaw___VOID__I4ER17CLR_RT_StackFrame
08065a88 T _ZN65Library_spot_hardware_native_Microsoft_SPOT_Hardware_AnalogOutput72Uninitialize___STATIC__VOID__MicrosoftSPOTHardwareCpuAnalogOutputChannelER17CLR_RT_StackFrame
08065a20 T _ZN65Library_spot_hardware_native_Microsoft_SPOT_Hardware_AnalogOutput74Initialize___STATIC__VOID__MicrosoftSPOTHardwareCpuAnalogOutputChannel__I4ER17CLR_RT_StackFrame
080687c4 T _ZN65Library_spot_hardware_native_Microsoft_SPOT_Hardware_TristatePort20get_Active___BOOLEANER17CLR_RT_StackFrame
08068944 T _ZN65Library_spot_hardware_native_Microsoft_SPOT_Hardware_TristatePort26get_GlitchFilter___BOOLEANER17CLR_RT_StackFrame
0806881c T _ZN65Library_spot_hardware_native_Microsoft_SPOT_Hardware_TristatePort26set_Active___VOID__BOOLEANER17CLR_RT_StackFrame
0806890c T _ZN65Library_spot_hardware_native_Microsoft_SPOT_Hardware_TristatePort52get_Resistor___MicrosoftSPOTHardwarePortResistorModeER17CLR_RT_StackFrame
08068928 T _ZN65Library_spot_hardware_native_Microsoft_SPOT_Hardware_TristatePort58set_Resistor___VOID__MicrosoftSPOTHardwarePortResistorModeER17CLR_RT_StackFrame
080674cc T _ZN66Library_spot_hardware_native_Microsoft_SPOT_Hardware_InterruptPort21ClearInterrupt___VOIDER17CLR_RT_StackFrame
080673cc T _ZN66Library_spot_hardware_native_Microsoft_SPOT_Hardware_InterruptPort22EnableInterrupt___VOIDER17CLR_RT_StackFrame
0806744c T _ZN66Library_spot_hardware_native_Microsoft_SPOT_Hardware_InterruptPort23DisableInterrupt___VOIDER17CLR_RT_StackFrame
08067570 T _ZN66Library_spot_hardware_native_Microsoft_SPOT_Hardware_InterruptPort54get_Interrupt___MicrosoftSPOTHardwarePortInterruptModeER17CLR_RT_StackFrame
080675c0 T _ZN66Library_spot_hardware_native_Microsoft_SPOT_Hardware_InterruptPort60set_Interrupt___VOID__MicrosoftSPOTHardwarePortInterruptModeER17CLR_RT_StackFrame
0806efb0 T _ZN66Library_spot_native_Samraksh_SPOT_Hardware_EmoteDotNow_ADCInternal21Init___STATIC__I4__I4ER17CLR_RT_StackFrame
0806f01c T _ZN66Library_spot_native_Samraksh_SPOT_Hardware_EmoteDotNow_ADCInternal21Read___STATIC__R8__I4ER17CLR_RT_StackFrame
0806f08c T _ZN66Library_spot_native_Samraksh_SPOT_Hardware_EmoteDotNow_ADCInternal55ConfigureBatchMode___STATIC__I4__SZARRAY_U2__I4__U4__U4ER17CLR_RT_StackFrame
0806f16c T _ZN66Library_spot_native_Samraksh_SPOT_Hardware_EmoteDotNow_ADCInternal60ConfigureContinuousMode___STATIC__I4__SZARRAY_U2__I4__U4__U4ER17CLR_RT_StackFrame
0805d054 T _ZN68Library_corlib_native_System_Runtime_CompilerServices_RuntimeHelpers35get_OffsetToStringData___STATIC__I4ER17CLR_RT_StackFrame
0805cfac T _ZN68Library_corlib_native_System_Runtime_CompilerServices_RuntimeHelpers39GetObjectValue___STATIC__OBJECT__OBJECTER17CLR_RT_StackFrame
0805d038 T _ZN68Library_corlib_native_System_Runtime_CompilerServices_RuntimeHelpers59RunClassConstructor___STATIC__VOID__SystemRuntimeTypeHandleER17CLR_RT_StackFrame
0805ceb8 T _ZN68Library_corlib_native_System_Runtime_CompilerServices_RuntimeHelpers69InitializeArray___STATIC__VOID__SystemArray__SystemRuntimeFieldHandleER17CLR_RT_StackFrame
080666bc T _ZN69Library_spot_hardware_native_Microsoft_SPOT_Hardware_HardwareProvider107NativeGetSupportedResistorModes___MicrosoftSPOTHardwareCpuPinValidResistorMode__MicrosoftSPOTHardwareCpuPinER17CLR_RT_StackFrame
08066a68 T _ZN69Library_spot_hardware_native_Microsoft_SPOT_Hardware_HardwareProvider109NativeGetAnalogOutputPinForChannel___MicrosoftSPOTHardwareCpuPin__MicrosoftSPOTHardwareCpuAnalogOutputChannelER17CLR_RT_StackFrame
080666f8 T _ZN69Library_spot_hardware_native_Microsoft_SPOT_Hardware_HardwareProvider109NativeGetSupportedInterruptModes___MicrosoftSPOTHardwareCpuPinValidInterruptMode__MicrosoftSPOTHardwareCpuPinER17CLR_RT_StackFrame
08066abc T _ZN69Library_spot_hardware_native_Microsoft_SPOT_Hardware_HardwareProvider113NativeGetAvailableAnalogOutputPrecisionInBitsForChannel___SZARRAY_I4__MicrosoftSPOTHardwareCpuAnalogOutputChannelER17CLR_RT_StackFrame
08066424 T _ZN69Library_spot_hardware_native_Microsoft_SPOT_Hardware_HardwareProvider163NativeGetSpiPins___VOID__MicrosoftSPOTHardwareSPISPImodule__BYREF_MicrosoftSPOTHardwareCpuPin__BYREF_MicrosoftSPOTHardwareCpuPin__BYREF_MicrosoftSPOTHardwareCpuPinER17CLR_RT_StackFrame
080660a0 T _ZN69Library_spot_hardware_native_Microsoft_SPOT_Hardware_HardwareProvider170NativeGetSerialPins___VOID__I4__BYREF_MicrosoftSPOTHardwareCpuPin__BYREF_MicrosoftSPOTHardwareCpuPin__BYREF_MicrosoftSPOTHardwareCpuPin__BYREF_MicrosoftSPOTHardwareCpuPinER17CLR_RT_StackFrame
08066604 T _ZN69Library_spot_hardware_native_Microsoft_SPOT_Hardware_HardwareProvider23NativeGetPinsCount___I4ER17CLR_RT_StackFrame
08066538 T _ZN69Library_spot_hardware_native_Microsoft_SPOT_Hardware_HardwareProvider27NativeGetSpiPortsCount___I4ER17CLR_RT_StackFrame
08066884 T _ZN69Library_spot_hardware_native_Microsoft_SPOT_Hardware_HardwareProvider30NativeGetPWMChannelsCount___I4ER17CLR_RT_StackFrame
080661fc T _ZN69Library_spot_hardware_native_Microsoft_SPOT_Hardware_HardwareProvider30NativeGetSerialPortsCount___I4ER17CLR_RT_StackFrame
080668f0 T _ZN69Library_spot_hardware_native_Microsoft_SPOT_Hardware_HardwareProvider33NativeGetAnalogChannelsCount___I4ER17CLR_RT_StackFrame
08066a40 T _ZN69Library_spot_hardware_native_Microsoft_SPOT_Hardware_HardwareProvider39NativeGetAnalogOutputChannelsCount___I4ER17CLR_RT_StackFrame
08066224 T _ZN69Library_spot_hardware_native_Microsoft_SPOT_Hardware_HardwareProvider47NativeSupportsNonStandardBaudRate___BOOLEAN__I4ER17CLR_RT_StackFrame
08066358 T _ZN69Library_spot_hardware_native_Microsoft_SPOT_Hardware_HardwareProvider49NativeIsSupportedBaudRate___BOOLEAN__I4__BYREF_U4ER17CLR_RT_StackFrame
08066280 T _ZN69Library_spot_hardware_native_Microsoft_SPOT_Hardware_HardwareProvider56NativeGetBaudRateBoundary___VOID__I4__BYREF_U4__BYREF_U4ER17CLR_RT_StackFrame
0806662c T _ZN69Library_spot_hardware_native_Microsoft_SPOT_Hardware_HardwareProvider65NativeGetPinsMap___VOID__SZARRAY_MicrosoftSPOTHardwareCpuPinUsageER17CLR_RT_StackFrame
08066770 T _ZN69Library_spot_hardware_native_Microsoft_SPOT_Hardware_HardwareProvider66NativeGetLCDMetrics___VOID__BYREF_I4__BYREF_I4__BYREF_I4__BYREF_I4ER17CLR_RT_StackFrame
08066734 T _ZN69Library_spot_hardware_native_Microsoft_SPOT_Hardware_HardwareProvider78NativeGetButtonPins___MicrosoftSPOTHardwareCpuPin__MicrosoftSPOTHardwareButtonER17CLR_RT_StackFrame
08066680 T _ZN69Library_spot_hardware_native_Microsoft_SPOT_Hardware_HardwareProvider81NativeGetPinUsage___MicrosoftSPOTHardwareCpuPinUsage__MicrosoftSPOTHardwareCpuPinER17CLR_RT_StackFrame
080668ac T _ZN69Library_spot_hardware_native_Microsoft_SPOT_Hardware_HardwareProvider91NativeGetPWMPinForChannel___MicrosoftSPOTHardwareCpuPin__MicrosoftSPOTHardwareCpuPWMChannelER17CLR_RT_StackFrame
08066560 T _ZN69Library_spot_hardware_native_Microsoft_SPOT_Hardware_HardwareProvider93NativeGetI2CPins___VOID__BYREF_MicrosoftSPOTHardwareCpuPin__BYREF_MicrosoftSPOTHardwareCpuPinER17CLR_RT_StackFrame
0806696c T _ZN69Library_spot_hardware_native_Microsoft_SPOT_Hardware_HardwareProvider95NativeGetAvailablePrecisionInBitsForChannel___SZARRAY_I4__MicrosoftSPOTHardwareCpuAnalogChannelER17CLR_RT_StackFrame
08066918 T _ZN69Library_spot_hardware_native_Microsoft_SPOT_Hardware_HardwareProvider97NativeGetAnalogPinForChannel___MicrosoftSPOTHardwareCpuPin__MicrosoftSPOTHardwareCpuAnalogChannelER17CLR_RT_StackFrame
200074c8 B _ZN6MAC_ID13Unique_Mac_IDE
08070f68 W _ZN6MAC_ID14GetUniqueMacIDEv
08063404 T _ZN6System4Math13IEEERemainderEdd
080633ac T _ZN6System4Math3CosEd
08063438 T _ZN6System4Math3ExpEd
080634c4 T _ZN6System4Math3LogEd
0806351c T _ZN6System4Math3PowEdd
08063550 T _ZN6System4Math3SinEd
080635d4 T _ZN6System4Math3TanEd
080632c8 T _ZN6System4Math4AcosEd
080632f4 T _ZN6System4Math4AsinEd
08063320 T _ZN6System4Math4AtanEd
080633d8 T _ZN6System4Math4CoshEd
08063490 T _ZN6System4Math4FmodEdd
0806357c T _ZN6System4Math4SinhEd
080635a8 T _ZN6System4Math4SqrtEd
08063600 T _ZN6System4Math4TanhEd
0806334c T _ZN6System4Math5Atan2Edd
08063464 T _ZN6System4Math5FloorEd
080634f0 T _ZN6System4Math5Log10Ed
08063380 T _ZN6System4Math7CeilingEd
0806362c T _ZN6System4Math8TruncateEdRd
0806317c T _ZN6System6Double10IsInfinityEd
080631f0 T _ZN6System6Double18IsNegativeInfinityEd
08063260 T _ZN6System6Double18IsPositiveInfinityEd
080631c4 T _ZN6System6Double5IsNaNEd
0806306c T _ZN6System6Double9CompareToEdd
08068690 T _ZN71Library_spot_hardware_native_Microsoft_SPOT_Hardware_SPI__Configuration16GetInitialConfigER16CLR_RT_HeapBlockR17SPI_CONFIGURATION
08065cb8 T _ZN74Library_spot_hardware_native_Microsoft_SPOT_Hardware_Battery__ChargerModel12_ctor___VOIDER17CLR_RT_StackFrame
08069264 T _ZN74Library_spot_hardware_native_Microsoft_SPOT_Hardware_LargeBufferMarshaller54MarshalBuffer___VOID__MicrosoftSPOTHardwareLargeBufferER17CLR_RT_StackFrame
080692fc T _ZN74Library_spot_hardware_native_Microsoft_SPOT_Hardware_LargeBufferMarshaller62UnMarshalBuffer___VOID__BYREF_MicrosoftSPOTHardwareLargeBufferER17CLR_RT_StackFrame
08068d18 T _ZN74Library_spot_hardware_native_Microsoft_SPOT_Hardware_NativeEventDispatcher18GetEventDispatcherER17CLR_RT_StackFrame
08068ce0 T _ZN74Library_spot_hardware_native_Microsoft_SPOT_Hardware_NativeEventDispatcher18GetEventDispatcherER17CLR_RT_StackFrameRP38CLR_RT_HeapBlock_NativeEventDispatcher
08068cb4 T _ZN74Library_spot_hardware_native_Microsoft_SPOT_Hardware_NativeEventDispatcher21GetEventDispReferenceER17CLR_RT_StackFrame
08068960 T _ZN74Library_spot_hardware_native_Microsoft_SPOT_Hardware_NativeEventDispatcher22EnableInterrupt___VOIDER17CLR_RT_StackFrame
08068a0c T _ZN74Library_spot_hardware_native_Microsoft_SPOT_Hardware_NativeEventDispatcher23DisableInterrupt___VOIDER17CLR_RT_StackFrame
08068ab0 T _ZN74Library_spot_hardware_native_Microsoft_SPOT_Hardware_NativeEventDispatcher23Dispose___VOID__BOOLEANER17CLR_RT_StackFrame
08068b30 T _ZN74Library_spot_hardware_native_Microsoft_SPOT_Hardware_NativeEventDispatcher24_ctor___VOID__STRING__U8ER17CLR_RT_StackFrame
0806c388 T _ZN76Library_spot_hardware_usb_native_Microsoft_SPOT_Hardware_UsbClient_UsbStream18nativeClose___VOIDER17CLR_RT_StackFrame
0806c5d8 T _ZN76Library_spot_hardware_usb_native_Microsoft_SPOT_Hardware_UsbClient_UsbStream18nativeFlush___VOIDER17CLR_RT_StackFrame
0806c2bc T _ZN76Library_spot_hardware_usb_native_Microsoft_SPOT_Hardware_UsbClient_UsbStream23nativeOpen___I4__I4__I4ER17CLR_RT_StackFrame
0806c408 T _ZN76Library_spot_hardware_usb_native_Microsoft_SPOT_Hardware_UsbClient_UsbStream35nativeRead___I4__SZARRAY_U1__I4__I4ER17CLR_RT_StackFrame
0806c4f0 T _ZN76Library_spot_hardware_usb_native_Microsoft_SPOT_Hardware_UsbClient_UsbStream36nativeWrite___I4__SZARRAY_U1__I4__I4ER17CLR_RT_StackFrame
08066ff4 T _ZN77Library_spot_hardware_native_Microsoft_SPOT_Hardware_I2CDevice__Configuration16GetInitialConfigER16CLR_RT_HeapBlockR22I2C_USER_CONFIGURATION
0806e468 W _ZN7MessageI19IEEE802_15_4_HeaderLt113E19IEEE802_15_4_Footer21IEEE802_15_4_MetadataE10GetPayloadEv
08070ce8 W _ZN7MessageI19IEEE802_15_4_HeaderLt113E19IEEE802_15_4_Footer21IEEE802_15_4_MetadataE11GetMetaDataEv
08071918 W _ZN7MessageI19IEEE802_15_4_HeaderLt113E19IEEE802_15_4_Footer21IEEE802_15_4_MetadataE14GetMessageSizeEv
0806e484 W _ZN7MessageI19IEEE802_15_4_HeaderLt113E19IEEE802_15_4_Footer21IEEE802_15_4_MetadataE9GetHeaderEv
200074fa B _ZN7RadioID13UniqueRadioIdE
0806ffa0 W _ZN7RadioID16GetUniqueRadioIdEv
080710b4 T _ZN7csmaMAC10InitializeEP15MacEventHandlerPhhP9MacConfig
08071378 T _ZN7csmaMAC11SendToRadioEv
0807166c T _ZN7csmaMAC13GetBufferSizeEv
08071470 T _ZN7csmaMAC14ReceiveHandlerEP7MessageI19IEEE802_15_4_HeaderLt113E19IEEE802_15_4_Footer21IEEE802_15_4_MetadataEi
08071614 T _ZN7csmaMAC14SendAckHandlerEPvi11NetOpStatus
080715cc T _ZN7csmaMAC20HandleUnicastMessageEP7MessageI19IEEE802_15_4_HeaderLt113E19IEEE802_15_4_Footer21IEEE802_15_4_MetadataE
080715f4 T _ZN7csmaMAC21RadioInterruptHandlerE14RadioInterruptPv
080715b8 T _ZN7csmaMAC22HandleBroadcastMessageEP7MessageI19IEEE802_15_4_HeaderLt113E19IEEE802_15_4_Footer21IEEE802_15_4_MetadataE
080715e0 T _ZN7csmaMAC23HandlePromiscousMessageEP7MessageI19IEEE802_15_4_HeaderLt113E19IEEE802_15_4_Footer21IEEE802_15_4_MetadataE
08071238 T _ZN7csmaMAC4SendEthPvi
08071058 T _ZN7csmaMAC9SetConfigEP9MacConfig
0806a5b8 T _ZN80Library_spot_hardware_usb_native_Microsoft_SPOT_Hardware_UsbClient_UsbController20nativeStop___BOOLEANER17CLR_RT_StackFrame
0806a544 T _ZN80Library_spot_hardware_usb_native_Microsoft_SPOT_Hardware_UsbClient_UsbController21nativeStart___BOOLEANER17CLR_RT_StackFrame
0806a628 T _ZN80Library_spot_hardware_usb_native_Microsoft_SPOT_Hardware_UsbClient_UsbController22get_Count___STATIC__I4ER17CLR_RT_StackFrame
0806a654 T _ZN80Library_spot_hardware_usb_native_Microsoft_SPOT_Hardware_UsbClient_UsbController63get_Configuration___MicrosoftSPOTHardwareUsbClientConfigurationER17CLR_RT_StackFrame
0806a4d8 T _ZN80Library_spot_hardware_usb_native_Microsoft_SPOT_Hardware_UsbClient_UsbController65get_Status___MicrosoftSPOTHardwareUsbClientUsbControllerPortStateER17CLR_RT_StackFrame
0806ad64 T _ZN80Library_spot_hardware_usb_native_Microsoft_SPOT_Hardware_UsbClient_UsbController69set_Configuration___VOID__MicrosoftSPOTHardwareUsbClientConfigurationER17CLR_RT_StackFrame
080654dc T _ZN81Library_spot_native_System_Security_Cryptography_X509Certificates_X509Certificate139ParseCertificate___STATIC__VOID__SZARRAY_U1__STRING__BYREF_STRING__BYREF_STRING__BYREF_mscorlibSystemDateTime__BYREF_mscorlibSystemDateTimeER17CLR_RT_StackFrame
08071b3c W _ZN8HALTimer11get_m_dtimeEv
08071b20 W _ZN8HALTimer11set_m_dtimeEj
08071bd8 W _ZN8HALTimer14get_m_callbackEv
08071aec W _ZN8HALTimer14get_m_timer_idEv
08071bbc W _ZN8HALTimer14set_m_callBackEPFvPvE
08071bf0 W _ZN8HALTimer14set_m_reservedEb
08071ad0 W _ZN8HALTimer14set_m_timer_idEh
08071ba4 W _ZN8HALTimer16get_m_is_runningEv
08071b88 W _ZN8HALTimer16set_m_is_runningEj
08071b70 W _ZN8HALTimer17get_m_is_one_shotEv
08071b54 W _ZN8HALTimer17set_m_is_one_shotEj
08071b04 W _ZN8HALTimer17set_m_start_timerEj
08071ab4 W _ZN8HALTimer21get_m_ticksTillExpireEv
08071a94 W _ZN8HALTimer21set_m_ticksTillExpireEy
0806d8b8 T _ZN8Samraksh4SPOT3Net3Mac4CSMA10GetAddressEP16CLR_RT_HeapBlockRi
20006af4 B _ZN8Samraksh4SPOT3Net3Mac4CSMA10ne_ContextE
20006af8 B _ZN8Samraksh4SPOT3Net3Mac4CSMA11ne_userDataE
0806d918 T _ZN8Samraksh4SPOT3Net3Mac4CSMA12GetNeighborsEP16CLR_RT_HeapBlocktRi
0806d984 T _ZN8Samraksh4SPOT3Net3Mac4CSMA12RemovePacketEP16CLR_RT_HeapBlock17CLR_RT_TypedArrayIhERi
0806d810 T _ZN8Samraksh4SPOT3Net3Mac4CSMA12UnInitializeEP16CLR_RT_HeapBlockRi
0806d93c T _ZN8Samraksh4SPOT3Net3Mac4CSMA13GetBufferSizeEP16CLR_RT_HeapBlockRi
20006b00 B _ZN8Samraksh4SPOT3Net3Mac4CSMA14managedCSMAMsgE
0806d8f8 T _ZN8Samraksh4SPOT3Net3Mac4CSMA16GetNeighborTableEP16CLR_RT_HeapBlockRi
20006ae8 B _ZN8Samraksh4SPOT3Net3Mac4CSMA18CSMA_Event_HandlerE
0806d9ac T _ZN8Samraksh4SPOT3Net3Mac4CSMA18InternalInitializeEP16CLR_RT_HeapBlock17CLR_RT_TypedArrayIhERi
0806d964 T _ZN8Samraksh4SPOT3Net3Mac4CSMA21GetPendingPacketCountEP16CLR_RT_HeapBlockRi
0806d830 T _ZN8Samraksh4SPOT3Net3Mac4CSMA4SendEP16CLR_RT_HeapBlockt17CLR_RT_TypedArrayIhEttRi
0806d8d8 T _ZN8Samraksh4SPOT3Net3Mac4CSMA5GetIDEP16CLR_RT_HeapBlockRi
20006af0 B _ZN8Samraksh4SPOT3Net3Mac4CSMA5MacIDE
20006af1 B _ZN8Samraksh4SPOT3Net3Mac4CSMA7MyAppIDE
0806d7f0 T _ZN8Samraksh4SPOT3Net3Mac4CSMA9ConfigureEP16CLR_RT_HeapBlockS5_Ri
20006cac B _ZN8Samraksh4SPOT3Net5Radio14Radio_802_15_410SendMsgPtrE
0806e1f4 T _ZN8Samraksh4SPOT3Net5Radio14Radio_802_15_410SendStrobeEP16CLR_RT_HeapBlockRi
20006cb4 B _ZN8Samraksh4SPOT3Net5Radio14Radio_802_15_410ne_ContextE
20006cb8 B _ZN8Samraksh4SPOT3Net5Radio14Radio_802_15_411ne_userDataE
0806e148 T _ZN8Samraksh4SPOT3Net5Radio14Radio_802_15_412UnInitializeEP16CLR_RT_HeapBlockRi
0806e2a8 T _ZN8Samraksh4SPOT3Net5Radio14Radio_802_15_415SendTimeStampedEP16CLR_RT_HeapBlock17CLR_RT_TypedArrayIhEtjRi
20006cc0 B _ZN8Samraksh4SPOT3Net5Radio14Radio_802_15_415managedRadioMsgE
0806e314 T _ZN8Samraksh4SPOT3Net5Radio14Radio_802_15_418InternalInitializeEP16CLR_RT_HeapBlock17CLR_RT_TypedArrayIhERi
20006b88 B _ZN8Samraksh4SPOT3Net5Radio14Radio_802_15_419Radio_Event_HandlerE
0806e2d0 T _ZN8Samraksh4SPOT3Net5Radio14Radio_802_15_421ClearChannelAssesmentEP16CLR_RT_HeapBlockRi
0806e2f0 T _ZN8Samraksh4SPOT3Net5Radio14Radio_802_15_421ClearChannelAssesmentEP16CLR_RT_HeapBlocktRi
0806e214 T _ZN8Samraksh4SPOT3Net5Radio14Radio_802_15_44SendEP16CLR_RT_HeapBlock17CLR_RT_TypedArrayIhEtRi
0806e168 T _ZN8Samraksh4SPOT3Net5Radio14Radio_802_15_45GetIDEP16CLR_RT_HeapBlockRi
0806e1a8 T _ZN8Samraksh4SPOT3Net5Radio14Radio_802_15_45SleepEP16CLR_RT_HeapBlockhRi
20006c24 B _ZN8Samraksh4SPOT3Net5Radio14Radio_802_15_46RcvMsgE
0806e188 T _ZN8Samraksh4SPOT3Net5Radio14Radio_802_15_46TurnOnEP16CLR_RT_HeapBlockRi
0806e1cc T _ZN8Samraksh4SPOT3Net5Radio14Radio_802_15_47PreLoadEP16CLR_RT_HeapBlock17CLR_RT_TypedArrayIhEtRi
20006b98 B _ZN8Samraksh4SPOT3Net5Radio14Radio_802_15_47RadioIDE
20006b9c B _ZN8Samraksh4SPOT3Net5Radio14Radio_802_15_47SendMsgE
0806e128 T _ZN8Samraksh4SPOT3Net5Radio14Radio_802_15_49ConfigureEP16CLR_RT_HeapBlockS5_Ri
20006cb0 B _ZN8Samraksh4SPOT3Net5Radio14Radio_802_15_49RcvMsgPtrE
0806eb64 T _ZN8Samraksh4SPOT8Hardware11EmoteDotNow11ADCInternal18ConfigureBatchModeE17CLR_RT_TypedArrayItEijjRi
0806ec50 T _ZN8Samraksh4SPOT8Hardware11EmoteDotNow11ADCInternal23ConfigureContinuousModeE17CLR_RT_TypedArrayItEijjRi
0806eaf4 T _ZN8Samraksh4SPOT8Hardware11EmoteDotNow11ADCInternal4InitEiRi
0806eb20 T _ZN8Samraksh4SPOT8Hardware11EmoteDotNow11ADCInternal4ReadEiRi
08070d98 T _ZN8Samraksh4SPOT8Hardware11EmoteDotNow8EmoteLCD10InitializeEP16CLR_RT_HeapBlockRi
08070dc4 T _ZN8Samraksh4SPOT8Hardware11EmoteDotNow8EmoteLCD12UninitializeEP16CLR_RT_HeapBlockRi
08070ec4 T _ZN8Samraksh4SPOT8Hardware11EmoteDotNow8EmoteLCD13WriteRawBytesEP16CLR_RT_HeapBlockiiiiRi
08070efc T _ZN8Samraksh4SPOT8Hardware11EmoteDotNow8EmoteLCD5BlinkEP16CLR_RT_HeapBlockiRi
08070f2c T _ZN8Samraksh4SPOT8Hardware11EmoteDotNow8EmoteLCD5ClearEP16CLR_RT_HeapBlockRi
08070e28 T _ZN8Samraksh4SPOT8Hardware11EmoteDotNow8EmoteLCD5SetDPEP16CLR_RT_HeapBlockaaaaRi
08070df0 T _ZN8Samraksh4SPOT8Hardware11EmoteDotNow8EmoteLCD5WriteEP16CLR_RT_HeapBlockiiiiRi
08070e90 T _ZN8Samraksh4SPOT8Hardware11EmoteDotNow8EmoteLCD6WriteNEP16CLR_RT_HeapBlockiiRi
0806feec T _ZN8Samraksh4SPOT8RealTime5Timer17GenerateInterruptERi
0806fec8 T _ZN8Samraksh4SPOT8RealTime5Timer6ChangeEjjRi
0806feb4 T _ZN8Samraksh4SPOT8RealTime5Timer7DisposeERi
080204e0 W _ZN8Settings10InitializeE12CLR_SETTINGS
08020584 W _ZN8Settings12LoadAssemblyEPK19CLR_RECORD_ASSEMBLYRP15CLR_RT_Assembly
08020818 W _ZN8Settings19LoadKnownAssembliesEPcS0_
08020a9c W _ZN8Settings24LoadDeploymentAssembliesEj
080208fc W _ZN8Settings25ContiguousBlockAssembliesE18BlockStorageStreamj
08020740 W _ZN8Settings29CheckKnownAssembliesForNonXIPEPPcS1_
08020678 W _ZN8Settings4LoadEv
08020b3c W _ZN8Settings7CleanupEv
08027360 T _ZN9CLR_Debug4EmitEPKci
080275d0 T _ZN9CLR_Debug6PrintfEPKcz
08027550 T _ZN9CLR_Debug7PrintfVEPKcSt9__va_list
08020d20 W _ZN9MFVersion4InitERS_tttt
08020da8 W _ZNK10BlockRange12IsDeploymentEv
08020dcc W _ZNK10BlockRange13GetBlockCountEv
08028b60 W _ZNK10BlockRange13GetBlockUsageEv
08020d74 W _ZNK10BlockRange8IsConfigEv
08030c00 W _ZNK12HAL_CALLBACK13GetEntryPointEv
08030c18 W _ZNK12HAL_CALLBACK7ExecuteEv
08052a30 T _ZNK13CLR_RECORD_EH8GetTokenEv
0803a1e0 W _ZNK13CLR_RT_Thread10FirstFrameEv
08021714 W _ZNK13CLR_RT_Thread12CurrentFrameEv
0803a258 W _ZNK13CLR_RT_Thread15GetQuantumDebitEv
0803a200 W _ZNK13CLR_RT_Thread16CurrentAppDomainEv
08021734 W _ZNK13CLR_RT_Thread16CurrentSubThreadEv
08021754 W _ZNK13CLR_RT_Thread17GetThreadPriorityEv
0803a234 W _ZNK13CLR_RT_Thread19GetExecutionCounterEv
08029850 T _ZNK15BlockDeviceInfo17FindForBlockUsageEjRjS0_S0_
08029894 T _ZNK15BlockDeviceInfo18FindNextUsageBlockEjRjS0_S0_
08029750 T _ZNK15BlockDeviceInfo21FindRegionFromAddressEjRjS0_
08020df0 W _ZNK15BlockRegionInfo12BlockAddressEj
08020e18 W _ZNK15BlockRegionInfo15OffsetFromBlockEj
08020e48 W _ZNK15BlockRegionInfo21BlockIndexFromAddressEj
08052b74 T _ZNK15CLR_RT_Assembly14IsSameAssemblyERKS_
08021484 W _ZNK16CLR_RT_HeapBlock10ArrayIndexEv
08039654 W _ZNK16CLR_RT_HeapBlock10ObjectLockEv
080395b4 W _ZNK16CLR_RT_HeapBlock10SameHeaderERKS_
0802141c W _ZNK16CLR_RT_HeapBlock10StringTextEv
0802149c W _ZNK16CLR_RT_HeapBlock11DereferenceEv
08021374 W _ZNK16CLR_RT_HeapBlock12IsAValueTypeEv
08039240 W _ZNK16CLR_RT_HeapBlock13IsForcedAliveEv
080271f8 W _ZNK16CLR_RT_HeapBlock13RecoverStringEv
080395fc W _ZNK16CLR_RT_HeapBlock14DataByRefConstEv
0803963c W _ZNK16CLR_RT_HeapBlock14StringAssemblyEv
080214b4 W _ZNK16CLR_RT_HeapBlock16DereferenceArrayEv
080396dc W _ZNK16CLR_RT_HeapBlock17DereferenceStringEv
08021400 W _ZNK16CLR_RT_HeapBlock17NumericByRefConstEv
080212e8 W _ZNK16CLR_RT_HeapBlock18Debug_CheckPointerEv
080394f0 W _ZNK16CLR_RT_HeapBlock18IsTransparentProxyEv
080214d0 W _ZNK16CLR_RT_HeapBlock19DereferenceDelegateEv
08021450 W _ZNK16CLR_RT_HeapBlock19ReflectionDataConstEv
08057720 W _ZNK16CLR_RT_HeapBlock21DereferenceBinaryBlobEv
080426c0 T _ZNK16CLR_RT_HeapBlock22GetAtomicDataUsedBytesEv
08039550 W _ZNK16CLR_RT_HeapBlock22IsAReferenceOfThisTypeE12CLR_DataType
080396f8 W _ZNK16CLR_RT_HeapBlock23DereferenceDelegateListEv
08039688 W _ZNK16CLR_RT_HeapBlock24BinaryBlobMarkingHandlerEv
08043c88 T _ZNK16CLR_RT_HeapBlock24TransparentProxyValidateEv
080394bc W _ZNK16CLR_RT_HeapBlock25TransparentProxyAppDomainEv
080396a0 W _ZNK16CLR_RT_HeapBlock27BinaryBlobRelocationHandlerEv
08038f34 W _ZNK16CLR_RT_HeapBlock27CLR_RT_HeapBlock_AtomicData7Numeric2R8cvdEv
080211d0 W _ZNK16CLR_RT_HeapBlock27CLR_RT_HeapBlock_AtomicData7Numeric2S8cvxEv
080389d8 W _ZNK16CLR_RT_HeapBlock27CLR_RT_HeapBlock_AtomicData7Numeric2U8cvyEv
080394d4 W _ZNK16CLR_RT_HeapBlock27TransparentProxyDereferenceEv
0802146c W _ZNK16CLR_RT_HeapBlock5ArrayEv
080423b0 T _ZNK16CLR_RT_HeapBlock6IsZeroEv
08039200 W _ZNK16CLR_RT_HeapBlock7IsAliveEv
080212fc W _ZNK16CLR_RT_HeapBlock7IsBoxedEv
08039220 W _ZNK16CLR_RT_HeapBlock7IsEventEv
08021268 W _ZNK16CLR_RT_HeapBlock8DataSizeEv
08021238 W _ZNK16CLR_RT_HeapBlock8DataTypeEv
08039260 W _ZNK16CLR_RT_HeapBlock8IsPinnedEv
08021250 W _ZNK16CLR_RT_HeapBlock9DataFlagsEv
080212b8 W _ZNK16CLR_RT_HeapBlock9IsFlagSetEh
08021434 W _ZNK16CLR_RT_HeapBlock9ObjectClsEv
08030c40 W _ZNK16HAL_CONTINUATION13GetEntryPointEv
08030c60 W _ZNK16HAL_CONTINUATION7ExecuteEv
08039e8c W _ZNK17CLR_RT_StackFrame4Arg0Ev
08039ea4 W _ZNK17CLR_RT_StackFrame4Arg1Ev
0805773c W _ZNK17CLR_RT_StackFrame4Arg2Ev
08057758 W _ZNK17CLR_RT_StackFrame4Arg3Ev
08057774 W _ZNK17CLR_RT_StackFrame4Arg4Ev
08057790 W _ZNK17CLR_RT_StackFrame4Arg5Ev
080658a8 W _ZNK17CLR_RT_StackFrame4Arg6Ev
080658c4 W _ZNK17CLR_RT_StackFrame4Arg7Ev
08039ec0 W _ZNK17CLR_RT_StackFrame4ArgNEi
08039e68 W _ZNK17CLR_RT_StackFrame4ThisEv
08039e50 W _ZNK17CLR_RT_StackFrame7ThisRefEv
08031434 W _ZNK17HAL_DblLinkedListI16HAL_CONTINUATIONE14FirstValidNodeEv
0803139c W _ZNK17HAL_DblLinkedListI16HAL_CONTINUATIONE4HeadEv
0803137c W _ZNK17HAL_DblLinkedListI16HAL_CONTINUATIONE4TailEv
08031304 W _ZNK17HAL_DblLinkedListI16HAL_CONTINUATIONE7IsEmptyEv
08031244 W _ZNK17HAL_DblLinkedListI16HAL_CONTINUATIONE9FirstNodeEv
080385a0 W _ZNK17HAL_DblLinkedListI16PalEventListenerE4HeadEv
08038580 W _ZNK17HAL_DblLinkedListI16PalEventListenerE4TailEv
08029a58 W _ZNK17HAL_DblLinkedListI18BlockStorageDeviceE14FirstValidNodeEv
08029ac0 W _ZNK17HAL_DblLinkedListI18BlockStorageDeviceE4HeadEv
08029aa0 W _ZNK17HAL_DblLinkedListI18BlockStorageDeviceE4TailEv
08029998 W _ZNK17HAL_DblLinkedListI18BlockStorageDeviceE9FirstNodeEv
0803125c W _ZNK17HAL_DblLinkedNodeI16HAL_CONTINUATIONE4NextEv
0803141c W _ZNK17HAL_DblLinkedNodeI16HAL_CONTINUATIONE4PrevEv
080299b0 W _ZNK17HAL_DblLinkedNodeI18BlockStorageDeviceE4NextEv
08029a88 W _ZNK17HAL_DblLinkedNodeI18BlockStorageDeviceE4PrevEv
08020ed0 W _ZNK18BlockStorageDevice10EraseBlockEj
0803884c W _ZNK18CLR_RECORD_TYPEDEF10IsDelegateEv
08020f70 W _ZNK18CLR_RECORD_TYPEDEF6IsEnumEv
080528a4 T _ZNK19CLR_RECORD_ASSEMBLY10GoodHeaderEv
08038804 W _ZNK19CLR_RECORD_ASSEMBLY11SizeOfTableE14CLR_TABLESENUM
0805294c T _ZNK19CLR_RECORD_ASSEMBLY12GoodAssemblyEv
080204a8 W _ZNK19CLR_RECORD_ASSEMBLY9TotalSizeEv
080398dc W _ZNK20CLR_RT_DblLinkedList13LastValidNodeEv
080398b0 W _ZNK20CLR_RT_DblLinkedList14FirstValidNodeEv
08026404 W _ZNK20CLR_RT_DblLinkedList4HeadEv
08026420 W _ZNK20CLR_RT_DblLinkedList4TailEv
08039888 W _ZNK20CLR_RT_DblLinkedList7IsEmptyEv
08021560 W _ZNK20CLR_RT_DblLinkedList8LastNodeEv
08021548 W _ZNK20CLR_RT_DblLinkedList9FirstNodeEv
08021020 W _ZNK20CLR_RT_TypeDef_Index4TypeEv
08021000 W _ZNK20CLR_RT_TypeDef_Index8AssemblyEv
08020fb8 W _ZNK21CLR_RT_Assembly_Index8AssemblyEv
08021084 W _ZNK21CLR_RT_FieldDef_Index5FieldEv
08021064 W _ZNK21CLR_RT_FieldDef_Index8AssemblyEv
08021530 W _ZNK21CLR_RT_HeapBlock_Node4NextEv
08026344 W _ZNK21CLR_RT_HeapBlock_Node4PrevEv
080388b8 W _ZNK21CLR_RT_TypeSpec_Index8AssemblyEv
080388d8 W _ZNK21CLR_RT_TypeSpec_Index8TypeSpecEv
0803be40 T _ZNK22CLR_RT_ExecutionEngine30UpdateToLowestExecutionCounterEP13CLR_RT_Thread
0803a364 W _ZNK22CLR_RT_ExecutionEngine31ExecutionConstraintCompensation6AdjustEx
08021104 W _ZNK22CLR_RT_MethodDef_Index6MethodEv
080210e4 W _ZNK22CLR_RT_MethodDef_Index8AssemblyEv
080215bc W _ZNK22CLR_RT_SignatureParser9AvailableEv
0803a154 W _ZNK23CLR_RT_ExceptionHandler10IsCatchAllEv
0803a178 W _ZNK23CLR_RT_ExceptionHandler8IsFilterEv
0803a19c W _ZNK23CLR_RT_ExceptionHandler9IsFinallyEv
08051df0 T _ZNK23CLR_RT_TypeDef_Instance12HasFinalizerEv
080215d4 W _ZNK23CLR_RT_TypeDef_Instance14CrossReferenceEv
080215fc W _ZNK24CLR_RT_FieldDef_Instance14CrossReferenceEv
08027258 W _ZNK25CLR_RT_HeapBlock_Delegate11DelegateFtnEv
08021624 W _ZNK25CLR_RT_MethodDef_Instance13DebuggingInfoEv
08039e10 W _ZNK25CLR_RT_MethodDef_Instance14CrossReferenceEv
08051034 T _ZNK26CLR_RT_ReflectionDef_Index11GetTypeHashEv
08038964 W _ZNK30CLR_RT_MethodDef_DebuggingInfo13HasBreakpointEv
08038944 W _ZNK30CLR_RT_MethodDef_DebuggingInfo5IsJMCEv
080389a8 W _ZNK30CLR_RT_MethodDef_DebuggingInfo9IsFlagSetEh
0803892c W _ZNK31CLR_RT_MethodDef_CrossReference8GetOwnerEv
08027e28 T _ZNK39CLR_RT_HeapBlock_WeakReference_Identity10ComputeCRCEPKhj
08070c80 W _ZNK5RadioI7MessageI19IEEE802_15_4_HeaderLt113E19IEEE802_15_4_Footer21IEEE802_15_4_MetadataEE13IsInitializedEv
080873f8 V _ZZ16CLR_TkFromStreamRPKhE8c_lookup
08087404 V _ZZ23CLR_UncompressTypeTokenjE8c_lookup
080873fc V _ZZ24CLR_UncompressFieldTokenjE8c_lookup
08087400 V _ZZ25CLR_UncompressMethodTokenjE8c_lookup
20002174 b _ZZN10TimeDriver16DateTimeToStringERKxE8rgBuffer
200021f4 b _ZZN10TimeDriver16TimeSpanToStringERKxE8rgBuffer
20000f14 b _ZZN11CLR_RT_DUMP15GETERRORMESSAGEEiE5s_tmp
080873f0 t _ZZN13CLR_RT_Random4NextEvE2IA
080873ec t _ZZN13CLR_RT_Random4NextEvE2IM
080873e8 t _ZZN13CLR_RT_Random4NextEvE2IQ
080873e4 t _ZZN13CLR_RT_Random4NextEvE2IR
080873e0 t _ZZN13CLR_RT_Random4NextEvE4MASK
20002b48 b _ZZN15CLR_HW_Hardware15ProcessActivityEvE10lastStatus
080873dc t _ZZN15CLR_RT_Assembly9GetStringEtE4iMax
200022a8 b _ZZN15Watchdog_Driver16WatchdogCallbackEPvE15iReentrantState
20000478 d _ZZN15Watchdog_Driver16WatchdogCallbackEPvE8lastTime
20000f34 b _ZZN9CLR_Debug4EmitEPKciE7s_chars
20000f38 b _ZZN9CLR_Debug4EmitEPKciE8s_buffer
0802a920 t __DSB
0807eb38 T ___Unwind_Backtrace
0807eb14 T ___Unwind_ForcedUnwind
0807eaa8 T ___Unwind_RaiseException
0807eacc T ___Unwind_Resume
0807eaf0 T ___Unwind_Resume_or_Rethrow
0807ce24 T __adddf3
0807d7b4 T __addsf3
0807d644 T __aeabi_cdcmpeq
0807d644 T __aeabi_cdcmple
0807d634 T __aeabi_cdrcmple
0807dcd8 T __aeabi_cfcmpeq
0807dcd8 T __aeabi_cfcmple
0807dcd0 T __aeabi_cfrcmple
0807d708 T __aeabi_d2f
0807d6b8 T __aeabi_d2iz
0807ddf8 T __aeabi_d2lz
0807eef4 T __aeabi_d2uiz
0807de78 T __aeabi_d2ulz
0807ce24 T __aeabi_dadd
0807d654 T __aeabi_dcmpeq
0807d690 T __aeabi_dcmpge
0807d6a4 T __aeabi_dcmpgt
0807d67c T __aeabi_dcmple
0807d668 T __aeabi_dcmplt
0807d3dc T __aeabi_ddiv
0807d188 T __aeabi_dmul
0807ce18 T __aeabi_drsub
0807ce20 T __aeabi_dsub
0807d0e0 T __aeabi_f2d
0807dd4c T __aeabi_f2iz
0807ddc8 T __aeabi_f2lz
0807de30 T __aeabi_f2ulz
0807d7b4 T __aeabi_fadd
0807dce8 T __aeabi_fcmpeq
0807dd24 T __aeabi_fcmpge
0807dd38 T __aeabi_fcmpgt
0807dd10 T __aeabi_fcmple
0807dcfc T __aeabi_fcmplt
0807db2c T __aeabi_fdiv
0807d9c4 T __aeabi_fmul
0807d7a8 T __aeabi_frsub
0807d7b0 T __aeabi_fsub
0807d0bc T __aeabi_i2d
0807d91c T __aeabi_i2f
0807cd70 T __aeabi_idiv
0807ce14 T __aeabi_idiv0
0807ce04 T __aeabi_idivmod
0807d12c T __aeabi_l2d
0807d948 T __aeabi_l2f
0807ce14 T __aeabi_ldiv0
0807dd98 T __aeabi_ldivmod
0807d09c T __aeabi_ui2d
0807d914 T __aeabi_ui2f
0807cce8 T __aeabi_uidiv
0807cd60 T __aeabi_uidivmod
0807d11c T __aeabi_ul2d
0807d938 T __aeabi_ul2f
0807ddb0 T __aeabi_uldivmod
0807e32c T __aeabi_unwind_cpp_pr0
0807e320 W __aeabi_unwind_cpp_pr1
0807e314 W __aeabi_unwind_cpp_pr2
0807c21c T __any_on
0807c094 T __b2d
0807d5bc T __cmpdf2
0807dc74 T __cmpsf2
0807c1d4 T __copybits
         w __cxa_begin_cleanup
         w __cxa_call_unexpected
         w __cxa_type_match
0807c2c4 T __d2b
0802a914 t __disable_irq
0802a844 t __disable_irq
0807ce14 T __div0
0807d3dc T __divdf3
0807ef34 T __divdi3
0807db2c T __divsf3
0807cd70 T __divsi3
0802a838 t __enable_irq
0807d5bc T __eqdf2
0807dc74 T __eqsf2
08078c34 T __errno
2000a564 B __exidx_end
2000a564 B __exidx_start
0807d0e0 T __extendsfdf2
20000504 D __fdlib_version
0807ddf8 T __fixdfdi
0807d6b8 T __fixdfsi
0807ddc8 T __fixsfdi
0807dd4c T __fixsfsi
0807de78 T __fixunsdfdi
0807eef4 T __fixunsdfsi
0807de30 T __fixunssfdi
0807d12c T __floatdidf
0807d948 T __floatdisf
0807d0bc T __floatsidf
0807d91c T __floatsisf
0807d11c T __floatundidf
0807d938 T __floatundisf
0807d09c T __floatunsidf
0807d914 T __floatunsisf
0807d5ac T __gedf2
0807dc64 T __gesf2
0807e464 T __gnu_Unwind_Backtrace
         w __gnu_Unwind_Find_exidx
0807e610 T __gnu_Unwind_ForcedUnwind
0807e654 T __gnu_Unwind_RaiseException
0807e9c8 T __gnu_Unwind_Restore_VFP
0807e9d8 T __gnu_Unwind_Restore_VFP_D
0807e9e8 T __gnu_Unwind_Restore_VFP_D_16_to_31
0807ea80 T __gnu_Unwind_Restore_WMMXC
0807e9f8 T __gnu_Unwind_Restore_WMMXD
0807e6e8 T __gnu_Unwind_Resume
0807e6d0 T __gnu_Unwind_Resume_or_Rethrow
0807e9d0 T __gnu_Unwind_Save_VFP
0807e9e0 T __gnu_Unwind_Save_VFP_D
0807e9f0 T __gnu_Unwind_Save_VFP_D_16_to_31
0807ea94 T __gnu_Unwind_Save_WMMXC
0807ea3c T __gnu_Unwind_Save_WMMXD
0807deec T __gnu_ldivmod_helper
0807debc T __gnu_uldivmod_helper
0807ebe0 T __gnu_unwind_execute
0807eec8 T __gnu_unwind_frame
0807e044 t __gnu_unwind_pr_common
0807d5ac T __gtdf2
0807dc64 T __gtsf2
0807bf50 T __hi0bits
0807c6f0 T __i2b
08074970 T __ieee754_acos
08074e10 T __ieee754_asin
08075260 T __ieee754_atan2
08075468 T __ieee754_cosh
080755e8 T __ieee754_exp
080758f0 T __ieee754_fmod
08075b60 T __ieee754_log
08075f98 T __ieee754_log10
080760d0 T __ieee754_pow
08076c40 T __ieee754_rem_pio2
08077088 T __ieee754_remainder
08077228 T __ieee754_sinh
080773f0 T __ieee754_sqrt
080737c0 T __isinfd
080737e4 T __isnand
080775c8 T __kernel_cos
08077810 T __kernel_rem_pio2
08078080 T __kernel_sin
080781f0 T __kernel_tan
0807d5b4 T __ledf2
0807dc6c T __lesf2
0807bf9c T __lo0bits
0807b928 T __locale_charset
0807c4c8 T __lshift
0807d5b4 T __ltdf2
0807dc6c T __ltsf2
20000938 D __malloc_av_
2000a534 B __malloc_current_mallinfo
0807bf2c T __malloc_lock
2000a55c B __malloc_max_sbrked_mem
2000a560 B __malloc_max_total_mem
20000d40 D __malloc_sbrk_base
2000a530 B __malloc_top_pad
20000d44 D __malloc_trim_threshold
0807bf30 T __malloc_unlock
0807c004 T __mcmp
0807c3a8 T __mdiff
08089b80 T __mprec_bigtens
08089aa8 T __mprec_tens
08089ba8 T __mprec_tinytens
0807d188 T __muldf3
0807d9c4 T __mulsf3
0807c708 T __multadd
0807c58c T __multiply
0807d5bc T __nedf2
0807dc74 T __nesf2
0807c7ac T __pow5mult
0807c130 T __ratio
0807e9b0 T __restore_core_regs
0807c864 T __s2b
080739e4 T __signbitd
080739dc T __signbitf
0807f6b4 T __sigtramp
0807f65c T __sigtramp_r
080790b0 t __sprint_r
0807ce20 T __subdf3
0807d7b0 T __subsf3
0807d708 T __truncdfsf2
0807f28c T __udivdi3
0807cce8 T __udivsi3
0807c044 T __ulp
00000000 A __use_no_semihosting_swi
0807cc8c T _calloc_r
0807a84c T _dtoa_r
0809b684 T _exit
0807b77c T _free_r
0809b684 T _getpid
0807f72c T _getpid_r
20000508 D _impure_ptr
0807f648 T _init_signal
0807f610 T _init_signal_r
0809b684 T _kill
0807f738 T _kill_r
0807b934 T _localeconv_r
0807b9ac T _malloc_r
0807b6d8 T _malloc_trim_r
0807c194 T _mprec_log10
0807f59c T _raise_r
0807c900 T _realloc_r
0809b684 T _sbrk
0807cc54 T _sbrk_r
0807b94c T _setlocale_r
0807f6cc T _signal_r
         U _start
080791e4 T _svfprintf_r
08079028 T _vsnprintf_r
0807f58c T abort
08073c28 T acos
20006cf4 B adcBuffer
200074c4 B adcBufferCounter
20006cdc B adcChannel
20006ce0 B adcNumSamples
20006ce4 B adcTicks
08073cf0 T asin
08073118 T atan
08073db8 T atan2
080895a0 t atanhi
080895c0 t atanlo
20006cf0 B batchModeADC
080899f0 t blanks.3587
08089680 t bp
08078bd4 T bsearch
08081e54 T c_CLR_RT_DataTypeLookup
080824a0 T c_CLR_RT_LogicalOpcodeLookup
0808237c T c_CLR_RT_OpcodeLookup
080813d0 T c_CLR_radians
0807fe48 T c_Debugger_Lookup_Reply
0807fe54 T c_Debugger_Lookup_Reply_count
0807fc80 T c_Debugger_Lookup_Request
0807fe50 T c_Debugger_Lookup_Request_count
08073460 T ceil
08089a60 t charset
08078bb8 T copysign
080735a8 T cos
08073dc8 T cosh
0802de00 T debug_printf
080896a0 t dp_h
08089690 t dp_l
20001010 B errno
08073ea0 T exp
080785b0 T expm1
08073660 T fabs
08078a68 T finite
08073678 T floor
08073fb0 T fmod
20006ce8 B gAdcCSharpBuffer
20007688 B gHalTimerManagerObject
0808953c T g_CLR_AssemblyNative_ADC
0808932c T g_CLR_AssemblyNative_CSMACallback
080887b8 T g_CLR_AssemblyNative_Microsoft_SPOT_EventSink_DriverProcs
080887a0 T g_CLR_AssemblyNative_Microsoft_SPOT_Hardware
08088cdc T g_CLR_AssemblyNative_Microsoft_SPOT_Hardware_PWM
08088e24 T g_CLR_AssemblyNative_Microsoft_SPOT_Hardware_SerialPort
08088e68 T g_CLR_AssemblyNative_Microsoft_SPOT_Hardware_UsartError
08088e44 T g_CLR_AssemblyNative_Microsoft_SPOT_Hardware_UsartEvent
08089034 T g_CLR_AssemblyNative_Microsoft_SPOT_Hardware_Usb
080884d8 T g_CLR_AssemblyNative_Microsoft_SPOT_Native
08089310 T g_CLR_AssemblyNative_RadioCallback_802_15_4
08089204 T g_CLR_AssemblyNative_RealTimeInteropTimer
080891e0 T g_CLR_AssemblyNative_RealTimeTimer
080894b8 T g_CLR_AssemblyNative_Samraksh_SPOT_Hardware
080892ec T g_CLR_AssemblyNative_Samraksh_SPOT_Net
08087414 T g_CLR_AssemblyNative_mscorlib
20002a44 B g_CLR_DBG_Debuggers
20002950 B g_CLR_HW_Hardware
200004ac D g_CLR_InteropAssembliesNativeData
20000f10 B g_CLR_Messaging
20002714 B g_CLR_RT_EventCache
200022c8 B g_CLR_RT_ExecutionEngine
20002908 B g_CLR_RT_GarbageCollector
20002a48 B g_CLR_RT_Persistence_Manager
20002604 B g_CLR_RT_TypeSystem
200025fc B g_CLR_RT_WellKnownMethods
20002488 B g_CLR_RT_WellKnownTypes
20002b40 B g_CLR_RT_fBadStack
0809e000 R g_ConfigurationSector
200002d8 D g_DebuggerPortSslConfig
20000fd4 B g_Event_Callback
20000fd8 B g_Event_Callback_Arg
20000fe0 B g_Events_BoolTimerCompletion
200019bc B g_HAL_Completion_List
200019c8 B g_HAL_Continuation_List
200019f4 B g_I2C_Driver
2000a51c B g_LCD_PCF85162_Driver
20002148 B g_TimeDriver
20001f78 B g_Time_Driver
20001f88 B g_Timer_Driver
20002278 B g_Watchdog_Driver
20006cc8 B g_adcContext
200022c0 B g_buildCRC
20001068 B g_fDoNotUninitializeDebuggerPort
200022b0 B g_palEventDriver
20002988 B g_scratchDebugger
20002990 B g_scratchDebuggerMessaging
20005578 B g_scratchInlineBuffer
20005e7c B g_scratchInterruptDispatchingStorage
20000e5c B g_scratchMessaging
20003d74 B g_scratchVirtualMethodPayload
20002b64 B g_scratchVirtualMethodTableLink
2000356c B g_scratchVirtualMethodTableLinkMRU
20007bd8 B gcsmaMacObject
0807e338 t get_eit_entry
2000a508 B glcdObject
20001a08 B gpinIsr
20007500 B grf231Radio
08089660 t halF
20000510 d impure_data
08089838 t init_jk
20006a90 B interrupt
200074fc B irq_handler
200003d4 D isErased
0802de74 T lcd_printf
08089a64 t lconv
08089640 t ln2HI
08089650 t ln2LO
0807b940 T localeconv
08074098 T log
080741a8 T log10
08078a84 T matherr
0807beac T memchr
08078c40 T memcmp
08078c98 T memcpy
08078d9c T memmove
08078e3c T memset
08073804 T modf
00000000 a nFDPROT
00000000 a nFEPROT
00000000 a nFPROT0
00000000 a nFPROT1
00000000 a nFPROT2
00000000 a nFPROT3
08078a88 T nan
0807eb5c t next_unwind_byte
080896b0 t npio2_hw
08089b70 t p05.2435
20001a04 B pinState
080742b8 T pow
08047a80 T private_free
08047a60 T private_malloc
0807a6f8 t quorem
200074f1 B radio_hal_CCAMode
200074e0 B radio_hal_CurrentChannel
200074e8 B radio_hal_CurrentPage
200074d8 B radio_hal_IeeeAddress
200074ee B radio_hal_MaxBE
200074d0 B radio_hal_MaxCSMABackoffs
200074ea B radio_hal_MaxFrameDuration
200074ef B radio_hal_MaxFrameRetries
200074d1 B radio_hal_MinBE
200074d2 B radio_hal_PANId
200074f4 B radio_hal_PrivatePanCoordinator
200074ec B radio_hal_SHRDuration
200074d4 B radio_hal_ShortAddress
200074e4 B radio_hal_SupportedChannels
200074ed B radio_hal_SymbolsPerOctet
200074f0 B radio_hal_TransmitPower
200074f8 B radio_hal_state
200074f9 B radio_hal_trx_status
0807f5f8 T raise
080746e8 T remainder
0807e9b0 T restore_core_regs
0807e400 t restore_non_core_regs
080738a4 T rint
20002b34 B s_CLR_RT_Heap
20002b44 B s_CLR_RT_fTrace_AssemblyOverhead
20000484 D s_CLR_RT_fTrace_Errors
20000488 D s_CLR_RT_fTrace_Exceptions
2000048c D s_CLR_RT_fTrace_MemoryStats
200004a0 D s_TickMask
20000498 D s_UTCMask
08078a98 T scalbn
0807dfd0 t search_EIT_table
0807dfbc t selfrel_offset31
0807b990 T setlocale
0807f70c T signal
080739f8 T sin
080747b0 T sinh
080748a8 T sqrt
08078ecc T strchr
08078fa0 T strcmp
08078fb4 T strcpy
0807cc7c T strlen
08078fc4 T strncpy
08073ab8 T tan
08073b30 T tanh
2000a500 B test
08089730 t two_over_pi
0807ebb4 t unwind_UCB_from_context
0807e624 t unwind_phase2
0807e504 t unwind_phase2_forced
08079088 T vsnprintf
08089a00 t zeroes.3588
