
c:\ADC_Interface.elf:     file format elf32-littlearm

Disassembly of section .isr_vector:

08000000 <g_pfnVectors>:
 8000000:	20000400 	.word	0x20000400
 8000004:	08000c85 	.word	0x08000c85
 8000008:	0800025d 	.word	0x0800025d
 800000c:	08000269 	.word	0x08000269
 8000010:	08000271 	.word	0x08000271
 8000014:	08000279 	.word	0x08000279
 8000018:	08000281 	.word	0x08000281
	...
 800002c:	08000289 	.word	0x08000289
 8000030:	08000295 	.word	0x08000295
 8000034:	00000000 	.word	0x00000000
 8000038:	080002a1 	.word	0x080002a1
 800003c:	080002ad 	.word	0x080002ad
 8000040:	08000cdf 	.word	0x08000cdf
 8000044:	08000cdf 	.word	0x08000cdf
 8000048:	08000cdf 	.word	0x08000cdf
 800004c:	08000cdf 	.word	0x08000cdf
 8000050:	08000cdf 	.word	0x08000cdf
 8000054:	08000cdf 	.word	0x08000cdf
 8000058:	08000cdf 	.word	0x08000cdf
 800005c:	08000cdf 	.word	0x08000cdf
 8000060:	08000cdf 	.word	0x08000cdf
 8000064:	08000cdf 	.word	0x08000cdf
 8000068:	08000cdf 	.word	0x08000cdf
 800006c:	08000cdf 	.word	0x08000cdf
 8000070:	08000cdf 	.word	0x08000cdf
 8000074:	08000cdf 	.word	0x08000cdf
 8000078:	08000cdf 	.word	0x08000cdf
 800007c:	08000cdf 	.word	0x08000cdf
 8000080:	08000cdf 	.word	0x08000cdf
 8000084:	08000cdf 	.word	0x08000cdf
 8000088:	08000cdf 	.word	0x08000cdf
 800008c:	08000cdf 	.word	0x08000cdf
 8000090:	08000cdf 	.word	0x08000cdf
 8000094:	08000cdf 	.word	0x08000cdf
 8000098:	08000cdf 	.word	0x08000cdf
 800009c:	080002b9 	.word	0x080002b9
 80000a0:	08000cdf 	.word	0x08000cdf
 80000a4:	08000cdf 	.word	0x08000cdf
 80000a8:	08000cdf 	.word	0x08000cdf
 80000ac:	08000cdf 	.word	0x08000cdf
 80000b0:	08000cdf 	.word	0x08000cdf
 80000b4:	08000cdf 	.word	0x08000cdf
 80000b8:	08000cdf 	.word	0x08000cdf
 80000bc:	08000cdf 	.word	0x08000cdf
 80000c0:	08000cdf 	.word	0x08000cdf
 80000c4:	08000cdf 	.word	0x08000cdf
 80000c8:	08000cdf 	.word	0x08000cdf
 80000cc:	08000cdf 	.word	0x08000cdf
 80000d0:	08000cdf 	.word	0x08000cdf
 80000d4:	08000cdf 	.word	0x08000cdf
 80000d8:	08000cdf 	.word	0x08000cdf
 80000dc:	08000cdf 	.word	0x08000cdf
 80000e0:	08000cdf 	.word	0x08000cdf
 80000e4:	08000cdf 	.word	0x08000cdf
 80000e8:	08000cdf 	.word	0x08000cdf
 80000ec:	08000cdf 	.word	0x08000cdf
 80000f0:	08000cdf 	.word	0x08000cdf
 80000f4:	08000cdf 	.word	0x08000cdf
 80000f8:	08000cdf 	.word	0x08000cdf
 80000fc:	08000cdf 	.word	0x08000cdf
 8000100:	08000cdf 	.word	0x08000cdf
 8000104:	08000cdf 	.word	0x08000cdf
 8000108:	08000cdf 	.word	0x08000cdf
 800010c:	08000cdf 	.word	0x08000cdf
 8000110:	08000cdf 	.word	0x08000cdf
 8000114:	08000cdf 	.word	0x08000cdf
 8000118:	08000cdf 	.word	0x08000cdf
 800011c:	08000cdf 	.word	0x08000cdf
 8000120:	08000cdf 	.word	0x08000cdf
 8000124:	08000cdf 	.word	0x08000cdf
 8000128:	08000cdf 	.word	0x08000cdf
 800012c:	08000cdf 	.word	0x08000cdf
	...
 80001e0:	f1e0f85f 	.word	0xf1e0f85f
Disassembly of section .text:

080001e4 <__do_global_dtors_aux>:
 80001e4:	b510      	push	{r4, lr}
 80001e6:	4c05      	ldr	r4, [pc, #20]	(80001fc <__do_global_dtors_aux+0x18>)
 80001e8:	7823      	ldrb	r3, [r4, #0]
 80001ea:	b933      	cbnz	r3, 80001fa <__do_global_dtors_aux+0x16>
 80001ec:	4b04      	ldr	r3, [pc, #16]	(8000200 <__do_global_dtors_aux+0x1c>)
 80001ee:	b113      	cbz	r3, 80001f6 <__do_global_dtors_aux+0x12>
 80001f0:	4804      	ldr	r0, [pc, #16]	(8000204 <__do_global_dtors_aux+0x20>)
 80001f2:	e000      	b.n	80001f6 <__do_global_dtors_aux+0x12>
 80001f4:	bf00      	nop
 80001f6:	2301      	movs	r3, #1
 80001f8:	7023      	strb	r3, [r4, #0]
 80001fa:	bd10      	pop	{r4, pc}
 80001fc:	20000030 	.word	0x20000030
 8000200:	00000000 	.word	0x00000000
 8000204:	08000db4 	.word	0x08000db4

08000208 <frame_dummy>:
 8000208:	4b06      	ldr	r3, [pc, #24]	(8000224 <frame_dummy+0x1c>)
 800020a:	b510      	push	{r4, lr}
 800020c:	b11b      	cbz	r3, 8000216 <frame_dummy+0xe>
 800020e:	4806      	ldr	r0, [pc, #24]	(8000228 <frame_dummy+0x20>)
 8000210:	4906      	ldr	r1, [pc, #24]	(800022c <frame_dummy+0x24>)
 8000212:	e000      	b.n	8000216 <frame_dummy+0xe>
 8000214:	bf00      	nop
 8000216:	4806      	ldr	r0, [pc, #24]	(8000230 <frame_dummy+0x28>)
 8000218:	6803      	ldr	r3, [r0, #0]
 800021a:	b113      	cbz	r3, 8000222 <frame_dummy+0x1a>
 800021c:	4b05      	ldr	r3, [pc, #20]	(8000234 <frame_dummy+0x2c>)
 800021e:	b103      	cbz	r3, 8000222 <frame_dummy+0x1a>
 8000220:	4798      	blx	r3
 8000222:	bd10      	pop	{r4, pc}
 8000224:	00000000 	.word	0x00000000
 8000228:	08000db4 	.word	0x08000db4
 800022c:	20000034 	.word	0x20000034
 8000230:	20000030 	.word	0x20000030
 8000234:	00000000 	.word	0x00000000

08000238 <main>:
 8000238:	b580      	push	{r7, lr}
 800023a:	af00      	add	r7, sp, #0
 800023c:	f04f 0000 	mov.w	r0, #0	; 0x0
 8000240:	f000 fb26 	bl	8000890 <STM_EVAL_LEDInit>
 8000244:	f04f 0002 	mov.w	r0, #2	; 0x2
 8000248:	f04f 0101 	mov.w	r1, #1	; 0x1
 800024c:	f000 fb74 	bl	8000938 <STM_EVAL_PBInit>
 8000250:	f44f 7080 	mov.w	r0, #256	; 0x100
 8000254:	f000 f960 	bl	8000518 <EXTI_GenerateSWInterrupt>
 8000258:	e7fe      	b.n	8000258 <main+0x20>
 800025a:	46c0      	nop			(mov r8, r8)

0800025c <NMI_Handler>:
 800025c:	b480      	push	{r7}
 800025e:	af00      	add	r7, sp, #0
 8000260:	46bd      	mov	sp, r7
 8000262:	bc80      	pop	{r7}
 8000264:	4770      	bx	lr
 8000266:	46c0      	nop			(mov r8, r8)

08000268 <HardFault_Handler>:
 8000268:	b480      	push	{r7}
 800026a:	af00      	add	r7, sp, #0
 800026c:	e7fe      	b.n	800026c <HardFault_Handler+0x4>
 800026e:	46c0      	nop			(mov r8, r8)

08000270 <MemManage_Handler>:
 8000270:	b480      	push	{r7}
 8000272:	af00      	add	r7, sp, #0
 8000274:	e7fe      	b.n	8000274 <MemManage_Handler+0x4>
 8000276:	46c0      	nop			(mov r8, r8)

08000278 <BusFault_Handler>:
 8000278:	b480      	push	{r7}
 800027a:	af00      	add	r7, sp, #0
 800027c:	e7fe      	b.n	800027c <BusFault_Handler+0x4>
 800027e:	46c0      	nop			(mov r8, r8)

08000280 <UsageFault_Handler>:
 8000280:	b480      	push	{r7}
 8000282:	af00      	add	r7, sp, #0
 8000284:	e7fe      	b.n	8000284 <UsageFault_Handler+0x4>
 8000286:	46c0      	nop			(mov r8, r8)

08000288 <SVC_Handler>:
 8000288:	b480      	push	{r7}
 800028a:	af00      	add	r7, sp, #0
 800028c:	46bd      	mov	sp, r7
 800028e:	bc80      	pop	{r7}
 8000290:	4770      	bx	lr
 8000292:	46c0      	nop			(mov r8, r8)

08000294 <DebugMon_Handler>:
 8000294:	b480      	push	{r7}
 8000296:	af00      	add	r7, sp, #0
 8000298:	46bd      	mov	sp, r7
 800029a:	bc80      	pop	{r7}
 800029c:	4770      	bx	lr
 800029e:	46c0      	nop			(mov r8, r8)

080002a0 <PendSV_Handler>:
 80002a0:	b480      	push	{r7}
 80002a2:	af00      	add	r7, sp, #0
 80002a4:	46bd      	mov	sp, r7
 80002a6:	bc80      	pop	{r7}
 80002a8:	4770      	bx	lr
 80002aa:	46c0      	nop			(mov r8, r8)

080002ac <SysTick_Handler>:
 80002ac:	b480      	push	{r7}
 80002ae:	af00      	add	r7, sp, #0
 80002b0:	46bd      	mov	sp, r7
 80002b2:	bc80      	pop	{r7}
 80002b4:	4770      	bx	lr
 80002b6:	46c0      	nop			(mov r8, r8)

080002b8 <EXTI9_5_IRQHandler>:
 80002b8:	b580      	push	{r7, lr}
 80002ba:	af00      	add	r7, sp, #0
 80002bc:	f44f 7080 	mov.w	r0, #256	; 0x100
 80002c0:	f000 f940 	bl	8000544 <EXTI_GetITStatus>
 80002c4:	4603      	mov	r3, r0
 80002c6:	2b00      	cmp	r3, #0
 80002c8:	d007      	beq.n	80002da <EXTI9_5_IRQHandler+0x22>
 80002ca:	f04f 0000 	mov.w	r0, #0	; 0x0
 80002ce:	f000 fb0f 	bl	80008f0 <STM_EVAL_LEDToggle>
 80002d2:	f44f 7080 	mov.w	r0, #256	; 0x100
 80002d6:	f000 f963 	bl	80005a0 <EXTI_ClearITPendingBit>
 80002da:	46bd      	mov	sp, r7
 80002dc:	bd80      	pop	{r7, pc}
 80002de:	46c0      	nop			(mov r8, r8)

080002e0 <NVIC_Init>:
 80002e0:	b480      	push	{r7}
 80002e2:	b087      	sub	sp, #28
 80002e4:	af00      	add	r7, sp, #0
 80002e6:	6078      	str	r0, [r7, #4]
 80002e8:	f04f 0300 	mov.w	r3, #0	; 0x0
 80002ec:	60fb      	str	r3, [r7, #12]
 80002ee:	f04f 0300 	mov.w	r3, #0	; 0x0
 80002f2:	613b      	str	r3, [r7, #16]
 80002f4:	f04f 030f 	mov.w	r3, #15	; 0xf
 80002f8:	617b      	str	r3, [r7, #20]
 80002fa:	687b      	ldr	r3, [r7, #4]
 80002fc:	78db      	ldrb	r3, [r3, #3]
 80002fe:	2b00      	cmp	r3, #0
 8000300:	d049      	beq.n	8000396 <NVIC_Init+0xb6>
 8000302:	f64e 5300 	movw	r3, #60672	; 0xed00
 8000306:	f2ce 0300 	movt	r3, #57344	; 0xe000
 800030a:	68db      	ldr	r3, [r3, #12]
 800030c:	ea6f 0303 	mvn.w	r3, r3
 8000310:	f403 63e0 	and.w	r3, r3, #1792	; 0x700
 8000314:	ea4f 2313 	mov.w	r3, r3, lsr #8
 8000318:	60fb      	str	r3, [r7, #12]
 800031a:	68fb      	ldr	r3, [r7, #12]
 800031c:	f1c3 0304 	rsb	r3, r3, #4	; 0x4
 8000320:	613b      	str	r3, [r7, #16]
 8000322:	68fb      	ldr	r3, [r7, #12]
 8000324:	697a      	ldr	r2, [r7, #20]
 8000326:	fa22 f303 	lsr.w	r3, r2, r3
 800032a:	617b      	str	r3, [r7, #20]
 800032c:	687b      	ldr	r3, [r7, #4]
 800032e:	785b      	ldrb	r3, [r3, #1]
 8000330:	461a      	mov	r2, r3
 8000332:	693b      	ldr	r3, [r7, #16]
 8000334:	fa02 f303 	lsl.w	r3, r2, r3
 8000338:	60fb      	str	r3, [r7, #12]
 800033a:	687b      	ldr	r3, [r7, #4]
 800033c:	789b      	ldrb	r3, [r3, #2]
 800033e:	461a      	mov	r2, r3
 8000340:	697b      	ldr	r3, [r7, #20]
 8000342:	ea02 0303 	and.w	r3, r2, r3
 8000346:	68fa      	ldr	r2, [r7, #12]
 8000348:	ea42 0303 	orr.w	r3, r2, r3
 800034c:	60fb      	str	r3, [r7, #12]
 800034e:	68fb      	ldr	r3, [r7, #12]
 8000350:	ea4f 1303 	mov.w	r3, r3, lsl #4
 8000354:	60fb      	str	r3, [r7, #12]
 8000356:	f24e 1300 	movw	r3, #57600	; 0xe100
 800035a:	f2ce 0300 	movt	r3, #57344	; 0xe000
 800035e:	687a      	ldr	r2, [r7, #4]
 8000360:	7812      	ldrb	r2, [r2, #0]
 8000362:	4611      	mov	r1, r2
 8000364:	68fa      	ldr	r2, [r7, #12]
 8000366:	b2d2      	uxtb	r2, r2
 8000368:	440b      	add	r3, r1
 800036a:	f883 2300 	strb.w	r2, [r3, #768]
 800036e:	f24e 1300 	movw	r3, #57600	; 0xe100
 8000372:	f2ce 0300 	movt	r3, #57344	; 0xe000
 8000376:	687a      	ldr	r2, [r7, #4]
 8000378:	7812      	ldrb	r2, [r2, #0]
 800037a:	ea4f 1252 	mov.w	r2, r2, lsr #5
 800037e:	b2d2      	uxtb	r2, r2
 8000380:	6879      	ldr	r1, [r7, #4]
 8000382:	7809      	ldrb	r1, [r1, #0]
 8000384:	f001 011f 	and.w	r1, r1, #31	; 0x1f
 8000388:	f04f 0001 	mov.w	r0, #1	; 0x1
 800038c:	fa00 f101 	lsl.w	r1, r0, r1
 8000390:	f843 1022 	str.w	r1, [r3, r2, lsl #2]
 8000394:	e014      	b.n	80003c0 <NVIC_Init+0xe0>
 8000396:	f24e 1300 	movw	r3, #57600	; 0xe100
 800039a:	f2ce 0300 	movt	r3, #57344	; 0xe000
 800039e:	687a      	ldr	r2, [r7, #4]
 80003a0:	7812      	ldrb	r2, [r2, #0]
 80003a2:	ea4f 1252 	mov.w	r2, r2, lsr #5
 80003a6:	b2d2      	uxtb	r2, r2
 80003a8:	6879      	ldr	r1, [r7, #4]
 80003aa:	7809      	ldrb	r1, [r1, #0]
 80003ac:	f001 011f 	and.w	r1, r1, #31	; 0x1f
 80003b0:	f04f 0001 	mov.w	r0, #1	; 0x1
 80003b4:	fa00 f101 	lsl.w	r1, r0, r1
 80003b8:	f102 0220 	add.w	r2, r2, #32	; 0x20
 80003bc:	f843 1022 	str.w	r1, [r3, r2, lsl #2]
 80003c0:	f107 071c 	add.w	r7, r7, #28	; 0x1c
 80003c4:	46bd      	mov	sp, r7
 80003c6:	bc80      	pop	{r7}
 80003c8:	4770      	bx	lr
 80003ca:	46c0      	nop			(mov r8, r8)

080003cc <EXTI_Init>:
 80003cc:	b480      	push	{r7}
 80003ce:	b085      	sub	sp, #20
 80003d0:	af00      	add	r7, sp, #0
 80003d2:	6078      	str	r0, [r7, #4]
 80003d4:	f04f 0300 	mov.w	r3, #0	; 0x0
 80003d8:	60fb      	str	r3, [r7, #12]
 80003da:	f240 4300 	movw	r3, #1024	; 0x400
 80003de:	f2c4 0301 	movt	r3, #16385	; 0x4001
 80003e2:	60fb      	str	r3, [r7, #12]
 80003e4:	687b      	ldr	r3, [r7, #4]
 80003e6:	799b      	ldrb	r3, [r3, #6]
 80003e8:	2b00      	cmp	r3, #0
 80003ea:	f000 8081 	beq.w	80004f0 <EXTI_Init+0x124>
 80003ee:	f240 4300 	movw	r3, #1024	; 0x400
 80003f2:	f2c4 0301 	movt	r3, #16385	; 0x4001
 80003f6:	f240 4200 	movw	r2, #1024	; 0x400
 80003fa:	f2c4 0201 	movt	r2, #16385	; 0x4001
 80003fe:	6811      	ldr	r1, [r2, #0]
 8000400:	687a      	ldr	r2, [r7, #4]
 8000402:	6812      	ldr	r2, [r2, #0]
 8000404:	ea6f 0202 	mvn.w	r2, r2
 8000408:	ea01 0202 	and.w	r2, r1, r2
 800040c:	601a      	str	r2, [r3, #0]
 800040e:	f240 4300 	movw	r3, #1024	; 0x400
 8000412:	f2c4 0301 	movt	r3, #16385	; 0x4001
 8000416:	f240 4200 	movw	r2, #1024	; 0x400
 800041a:	f2c4 0201 	movt	r2, #16385	; 0x4001
 800041e:	6851      	ldr	r1, [r2, #4]
 8000420:	687a      	ldr	r2, [r7, #4]
 8000422:	6812      	ldr	r2, [r2, #0]
 8000424:	ea6f 0202 	mvn.w	r2, r2
 8000428:	ea01 0202 	and.w	r2, r1, r2
 800042c:	605a      	str	r2, [r3, #4]
 800042e:	687b      	ldr	r3, [r7, #4]
 8000430:	791b      	ldrb	r3, [r3, #4]
 8000432:	68fa      	ldr	r2, [r7, #12]
 8000434:	4413      	add	r3, r2
 8000436:	60fb      	str	r3, [r7, #12]
 8000438:	68fb      	ldr	r3, [r7, #12]
 800043a:	68fa      	ldr	r2, [r7, #12]
 800043c:	6811      	ldr	r1, [r2, #0]
 800043e:	687a      	ldr	r2, [r7, #4]
 8000440:	6812      	ldr	r2, [r2, #0]
 8000442:	ea41 0202 	orr.w	r2, r1, r2
 8000446:	601a      	str	r2, [r3, #0]
 8000448:	f240 4300 	movw	r3, #1024	; 0x400
 800044c:	f2c4 0301 	movt	r3, #16385	; 0x4001
 8000450:	f240 4200 	movw	r2, #1024	; 0x400
 8000454:	f2c4 0201 	movt	r2, #16385	; 0x4001
 8000458:	6891      	ldr	r1, [r2, #8]
 800045a:	687a      	ldr	r2, [r7, #4]
 800045c:	6812      	ldr	r2, [r2, #0]
 800045e:	ea6f 0202 	mvn.w	r2, r2
 8000462:	ea01 0202 	and.w	r2, r1, r2
 8000466:	609a      	str	r2, [r3, #8]
 8000468:	f240 4300 	movw	r3, #1024	; 0x400
 800046c:	f2c4 0301 	movt	r3, #16385	; 0x4001
 8000470:	f240 4200 	movw	r2, #1024	; 0x400
 8000474:	f2c4 0201 	movt	r2, #16385	; 0x4001
 8000478:	68d1      	ldr	r1, [r2, #12]
 800047a:	687a      	ldr	r2, [r7, #4]
 800047c:	6812      	ldr	r2, [r2, #0]
 800047e:	ea6f 0202 	mvn.w	r2, r2
 8000482:	ea01 0202 	and.w	r2, r1, r2
 8000486:	60da      	str	r2, [r3, #12]
 8000488:	687b      	ldr	r3, [r7, #4]
 800048a:	795b      	ldrb	r3, [r3, #5]
 800048c:	2b10      	cmp	r3, #16
 800048e:	d11c      	bne.n	80004ca <EXTI_Init+0xfe>
 8000490:	f240 4300 	movw	r3, #1024	; 0x400
 8000494:	f2c4 0301 	movt	r3, #16385	; 0x4001
 8000498:	f240 4200 	movw	r2, #1024	; 0x400
 800049c:	f2c4 0201 	movt	r2, #16385	; 0x4001
 80004a0:	6891      	ldr	r1, [r2, #8]
 80004a2:	687a      	ldr	r2, [r7, #4]
 80004a4:	6812      	ldr	r2, [r2, #0]
 80004a6:	ea41 0202 	orr.w	r2, r1, r2
 80004aa:	609a      	str	r2, [r3, #8]
 80004ac:	f240 4300 	movw	r3, #1024	; 0x400
 80004b0:	f2c4 0301 	movt	r3, #16385	; 0x4001
 80004b4:	f240 4200 	movw	r2, #1024	; 0x400
 80004b8:	f2c4 0201 	movt	r2, #16385	; 0x4001
 80004bc:	68d1      	ldr	r1, [r2, #12]
 80004be:	687a      	ldr	r2, [r7, #4]
 80004c0:	6812      	ldr	r2, [r2, #0]
 80004c2:	ea41 0202 	orr.w	r2, r1, r2
 80004c6:	60da      	str	r2, [r3, #12]
 80004c8:	e021      	b.n	800050e <EXTI_Init+0x142>
 80004ca:	f240 4300 	movw	r3, #1024	; 0x400
 80004ce:	f2c4 0301 	movt	r3, #16385	; 0x4001
 80004d2:	60fb      	str	r3, [r7, #12]
 80004d4:	687b      	ldr	r3, [r7, #4]
 80004d6:	795b      	ldrb	r3, [r3, #5]
 80004d8:	68fa      	ldr	r2, [r7, #12]
 80004da:	4413      	add	r3, r2
 80004dc:	60fb      	str	r3, [r7, #12]
 80004de:	68fb      	ldr	r3, [r7, #12]
 80004e0:	68fa      	ldr	r2, [r7, #12]
 80004e2:	6811      	ldr	r1, [r2, #0]
 80004e4:	687a      	ldr	r2, [r7, #4]
 80004e6:	6812      	ldr	r2, [r2, #0]
 80004e8:	ea41 0202 	orr.w	r2, r1, r2
 80004ec:	601a      	str	r2, [r3, #0]
 80004ee:	e00e      	b.n	800050e <EXTI_Init+0x142>
 80004f0:	687b      	ldr	r3, [r7, #4]
 80004f2:	791b      	ldrb	r3, [r3, #4]
 80004f4:	68fa      	ldr	r2, [r7, #12]
 80004f6:	4413      	add	r3, r2
 80004f8:	60fb      	str	r3, [r7, #12]
 80004fa:	68fb      	ldr	r3, [r7, #12]
 80004fc:	68fa      	ldr	r2, [r7, #12]
 80004fe:	6811      	ldr	r1, [r2, #0]
 8000500:	687a      	ldr	r2, [r7, #4]
 8000502:	6812      	ldr	r2, [r2, #0]
 8000504:	ea6f 0202 	mvn.w	r2, r2
 8000508:	ea01 0202 	and.w	r2, r1, r2
 800050c:	601a      	str	r2, [r3, #0]
 800050e:	f107 0714 	add.w	r7, r7, #20	; 0x14
 8000512:	46bd      	mov	sp, r7
 8000514:	bc80      	pop	{r7}
 8000516:	4770      	bx	lr

08000518 <EXTI_GenerateSWInterrupt>:
 8000518:	b480      	push	{r7}
 800051a:	b083      	sub	sp, #12
 800051c:	af00      	add	r7, sp, #0
 800051e:	6078      	str	r0, [r7, #4]
 8000520:	f240 4300 	movw	r3, #1024	; 0x400
 8000524:	f2c4 0301 	movt	r3, #16385	; 0x4001
 8000528:	f240 4200 	movw	r2, #1024	; 0x400
 800052c:	f2c4 0201 	movt	r2, #16385	; 0x4001
 8000530:	6911      	ldr	r1, [r2, #16]
 8000532:	687a      	ldr	r2, [r7, #4]
 8000534:	ea41 0202 	orr.w	r2, r1, r2
 8000538:	611a      	str	r2, [r3, #16]
 800053a:	f107 070c 	add.w	r7, r7, #12	; 0xc
 800053e:	46bd      	mov	sp, r7
 8000540:	bc80      	pop	{r7}
 8000542:	4770      	bx	lr

08000544 <EXTI_GetITStatus>:
 8000544:	b480      	push	{r7}
 8000546:	b085      	sub	sp, #20
 8000548:	af00      	add	r7, sp, #0
 800054a:	6078      	str	r0, [r7, #4]
 800054c:	f04f 0300 	mov.w	r3, #0	; 0x0
 8000550:	72fb      	strb	r3, [r7, #11]
 8000552:	f04f 0300 	mov.w	r3, #0	; 0x0
 8000556:	60fb      	str	r3, [r7, #12]
 8000558:	f240 4300 	movw	r3, #1024	; 0x400
 800055c:	f2c4 0301 	movt	r3, #16385	; 0x4001
 8000560:	681a      	ldr	r2, [r3, #0]
 8000562:	687b      	ldr	r3, [r7, #4]
 8000564:	ea02 0303 	and.w	r3, r2, r3
 8000568:	60fb      	str	r3, [r7, #12]
 800056a:	f240 4300 	movw	r3, #1024	; 0x400
 800056e:	f2c4 0301 	movt	r3, #16385	; 0x4001
 8000572:	695a      	ldr	r2, [r3, #20]
 8000574:	687b      	ldr	r3, [r7, #4]
 8000576:	ea02 0303 	and.w	r3, r2, r3
 800057a:	2b00      	cmp	r3, #0
 800057c:	d006      	beq.n	800058c <EXTI_GetITStatus+0x48>
 800057e:	68fb      	ldr	r3, [r7, #12]
 8000580:	2b00      	cmp	r3, #0
 8000582:	d003      	beq.n	800058c <EXTI_GetITStatus+0x48>
 8000584:	f04f 0301 	mov.w	r3, #1	; 0x1
 8000588:	72fb      	strb	r3, [r7, #11]
 800058a:	e002      	b.n	8000592 <EXTI_GetITStatus+0x4e>
 800058c:	f04f 0300 	mov.w	r3, #0	; 0x0
 8000590:	72fb      	strb	r3, [r7, #11]
 8000592:	7afb      	ldrb	r3, [r7, #11]
 8000594:	4618      	mov	r0, r3
 8000596:	f107 0714 	add.w	r7, r7, #20	; 0x14
 800059a:	46bd      	mov	sp, r7
 800059c:	bc80      	pop	{r7}
 800059e:	4770      	bx	lr

080005a0 <EXTI_ClearITPendingBit>:
 80005a0:	b480      	push	{r7}
 80005a2:	b083      	sub	sp, #12
 80005a4:	af00      	add	r7, sp, #0
 80005a6:	6078      	str	r0, [r7, #4]
 80005a8:	f240 4300 	movw	r3, #1024	; 0x400
 80005ac:	f2c4 0301 	movt	r3, #16385	; 0x4001
 80005b0:	687a      	ldr	r2, [r7, #4]
 80005b2:	615a      	str	r2, [r3, #20]
 80005b4:	f107 070c 	add.w	r7, r7, #12	; 0xc
 80005b8:	46bd      	mov	sp, r7
 80005ba:	bc80      	pop	{r7}
 80005bc:	4770      	bx	lr
 80005be:	46c0      	nop			(mov r8, r8)

080005c0 <GPIO_Init>:
 80005c0:	b480      	push	{r7}
 80005c2:	b089      	sub	sp, #36
 80005c4:	af00      	add	r7, sp, #0
 80005c6:	6078      	str	r0, [r7, #4]
 80005c8:	6039      	str	r1, [r7, #0]
 80005ca:	f04f 0300 	mov.w	r3, #0	; 0x0
 80005ce:	60bb      	str	r3, [r7, #8]
 80005d0:	f04f 0300 	mov.w	r3, #0	; 0x0
 80005d4:	60fb      	str	r3, [r7, #12]
 80005d6:	f04f 0300 	mov.w	r3, #0	; 0x0
 80005da:	613b      	str	r3, [r7, #16]
 80005dc:	f04f 0300 	mov.w	r3, #0	; 0x0
 80005e0:	617b      	str	r3, [r7, #20]
 80005e2:	f04f 0300 	mov.w	r3, #0	; 0x0
 80005e6:	61bb      	str	r3, [r7, #24]
 80005e8:	f04f 0300 	mov.w	r3, #0	; 0x0
 80005ec:	61fb      	str	r3, [r7, #28]
 80005ee:	683b      	ldr	r3, [r7, #0]
 80005f0:	78db      	ldrb	r3, [r3, #3]
 80005f2:	f003 030f 	and.w	r3, r3, #15	; 0xf
 80005f6:	60bb      	str	r3, [r7, #8]
 80005f8:	683b      	ldr	r3, [r7, #0]
 80005fa:	78db      	ldrb	r3, [r3, #3]
 80005fc:	f003 0310 	and.w	r3, r3, #16	; 0x10
 8000600:	2b00      	cmp	r3, #0
 8000602:	d005      	beq.n	8000610 <GPIO_Init+0x50>
 8000604:	683b      	ldr	r3, [r7, #0]
 8000606:	789b      	ldrb	r3, [r3, #2]
 8000608:	68ba      	ldr	r2, [r7, #8]
 800060a:	ea42 0303 	orr.w	r3, r2, r3
 800060e:	60bb      	str	r3, [r7, #8]
 8000610:	683b      	ldr	r3, [r7, #0]
 8000612:	881b      	ldrh	r3, [r3, #0]
 8000614:	f003 03ff 	and.w	r3, r3, #255	; 0xff
 8000618:	2b00      	cmp	r3, #0
 800061a:	d051      	beq.n	80006c0 <GPIO_Init+0x100>
 800061c:	687b      	ldr	r3, [r7, #4]
 800061e:	681b      	ldr	r3, [r3, #0]
 8000620:	61bb      	str	r3, [r7, #24]
 8000622:	f04f 0300 	mov.w	r3, #0	; 0x0
 8000626:	613b      	str	r3, [r7, #16]
 8000628:	e044      	b.n	80006b4 <GPIO_Init+0xf4>
 800062a:	693b      	ldr	r3, [r7, #16]
 800062c:	f04f 0201 	mov.w	r2, #1	; 0x1
 8000630:	fa02 f303 	lsl.w	r3, r2, r3
 8000634:	617b      	str	r3, [r7, #20]
 8000636:	683b      	ldr	r3, [r7, #0]
 8000638:	881b      	ldrh	r3, [r3, #0]
 800063a:	461a      	mov	r2, r3
 800063c:	697b      	ldr	r3, [r7, #20]
 800063e:	ea02 0303 	and.w	r3, r2, r3
 8000642:	60fb      	str	r3, [r7, #12]
 8000644:	68fa      	ldr	r2, [r7, #12]
 8000646:	697b      	ldr	r3, [r7, #20]
 8000648:	429a      	cmp	r2, r3
 800064a:	d12f      	bne.n	80006ac <GPIO_Init+0xec>
 800064c:	693b      	ldr	r3, [r7, #16]
 800064e:	ea4f 0383 	mov.w	r3, r3, lsl #2
 8000652:	617b      	str	r3, [r7, #20]
 8000654:	697b      	ldr	r3, [r7, #20]
 8000656:	f04f 020f 	mov.w	r2, #15	; 0xf
 800065a:	fa02 f303 	lsl.w	r3, r2, r3
 800065e:	61fb      	str	r3, [r7, #28]
 8000660:	69fb      	ldr	r3, [r7, #28]
 8000662:	ea6f 0303 	mvn.w	r3, r3
 8000666:	69ba      	ldr	r2, [r7, #24]
 8000668:	ea02 0303 	and.w	r3, r2, r3
 800066c:	61bb      	str	r3, [r7, #24]
 800066e:	697b      	ldr	r3, [r7, #20]
 8000670:	68ba      	ldr	r2, [r7, #8]
 8000672:	fa02 f303 	lsl.w	r3, r2, r3
 8000676:	69ba      	ldr	r2, [r7, #24]
 8000678:	ea42 0303 	orr.w	r3, r2, r3
 800067c:	61bb      	str	r3, [r7, #24]
 800067e:	683b      	ldr	r3, [r7, #0]
 8000680:	78db      	ldrb	r3, [r3, #3]
 8000682:	2b28      	cmp	r3, #40
 8000684:	d107      	bne.n	8000696 <GPIO_Init+0xd6>
 8000686:	693b      	ldr	r3, [r7, #16]
 8000688:	f04f 0201 	mov.w	r2, #1	; 0x1
 800068c:	fa02 f203 	lsl.w	r2, r2, r3
 8000690:	687b      	ldr	r3, [r7, #4]
 8000692:	615a      	str	r2, [r3, #20]
 8000694:	e00a      	b.n	80006ac <GPIO_Init+0xec>
 8000696:	683b      	ldr	r3, [r7, #0]
 8000698:	78db      	ldrb	r3, [r3, #3]
 800069a:	2b48      	cmp	r3, #72
 800069c:	d106      	bne.n	80006ac <GPIO_Init+0xec>
 800069e:	693b      	ldr	r3, [r7, #16]
 80006a0:	f04f 0201 	mov.w	r2, #1	; 0x1
 80006a4:	fa02 f203 	lsl.w	r2, r2, r3
 80006a8:	687b      	ldr	r3, [r7, #4]
 80006aa:	611a      	str	r2, [r3, #16]
 80006ac:	693b      	ldr	r3, [r7, #16]
 80006ae:	f103 0301 	add.w	r3, r3, #1	; 0x1
 80006b2:	613b      	str	r3, [r7, #16]
 80006b4:	693b      	ldr	r3, [r7, #16]
 80006b6:	2b07      	cmp	r3, #7
 80006b8:	d9b7      	bls.n	800062a <GPIO_Init+0x6a>
 80006ba:	687b      	ldr	r3, [r7, #4]
 80006bc:	69ba      	ldr	r2, [r7, #24]
 80006be:	601a      	str	r2, [r3, #0]
 80006c0:	683b      	ldr	r3, [r7, #0]
 80006c2:	881b      	ldrh	r3, [r3, #0]
 80006c4:	2bff      	cmp	r3, #255
 80006c6:	d956      	bls.n	8000776 <GPIO_Init+0x1b6>
 80006c8:	687b      	ldr	r3, [r7, #4]
 80006ca:	685b      	ldr	r3, [r3, #4]
 80006cc:	61bb      	str	r3, [r7, #24]
 80006ce:	f04f 0300 	mov.w	r3, #0	; 0x0
 80006d2:	613b      	str	r3, [r7, #16]
 80006d4:	e049      	b.n	800076a <GPIO_Init+0x1aa>
 80006d6:	693b      	ldr	r3, [r7, #16]
 80006d8:	f103 0308 	add.w	r3, r3, #8	; 0x8
 80006dc:	f04f 0201 	mov.w	r2, #1	; 0x1
 80006e0:	fa02 f303 	lsl.w	r3, r2, r3
 80006e4:	617b      	str	r3, [r7, #20]
 80006e6:	683b      	ldr	r3, [r7, #0]
 80006e8:	881b      	ldrh	r3, [r3, #0]
 80006ea:	461a      	mov	r2, r3
 80006ec:	697b      	ldr	r3, [r7, #20]
 80006ee:	ea02 0303 	and.w	r3, r2, r3
 80006f2:	60fb      	str	r3, [r7, #12]
 80006f4:	68fa      	ldr	r2, [r7, #12]
 80006f6:	697b      	ldr	r3, [r7, #20]
 80006f8:	429a      	cmp	r2, r3
 80006fa:	d132      	bne.n	8000762 <GPIO_Init+0x1a2>
 80006fc:	693b      	ldr	r3, [r7, #16]
 80006fe:	ea4f 0383 	mov.w	r3, r3, lsl #2
 8000702:	617b      	str	r3, [r7, #20]
 8000704:	697b      	ldr	r3, [r7, #20]
 8000706:	f04f 020f 	mov.w	r2, #15	; 0xf
 800070a:	fa02 f303 	lsl.w	r3, r2, r3
 800070e:	61fb      	str	r3, [r7, #28]
 8000710:	69fb      	ldr	r3, [r7, #28]
 8000712:	ea6f 0303 	mvn.w	r3, r3
 8000716:	69ba      	ldr	r2, [r7, #24]
 8000718:	ea02 0303 	and.w	r3, r2, r3
 800071c:	61bb      	str	r3, [r7, #24]
 800071e:	697b      	ldr	r3, [r7, #20]
 8000720:	68ba      	ldr	r2, [r7, #8]
 8000722:	fa02 f303 	lsl.w	r3, r2, r3
 8000726:	69ba      	ldr	r2, [r7, #24]
 8000728:	ea42 0303 	orr.w	r3, r2, r3
 800072c:	61bb      	str	r3, [r7, #24]
 800072e:	683b      	ldr	r3, [r7, #0]
 8000730:	78db      	ldrb	r3, [r3, #3]
 8000732:	2b28      	cmp	r3, #40
 8000734:	d108      	bne.n	8000748 <GPIO_Init+0x188>
 8000736:	693b      	ldr	r3, [r7, #16]
 8000738:	f103 0308 	add.w	r3, r3, #8	; 0x8
 800073c:	f04f 0201 	mov.w	r2, #1	; 0x1
 8000740:	fa02 f203 	lsl.w	r2, r2, r3
 8000744:	687b      	ldr	r3, [r7, #4]
 8000746:	615a      	str	r2, [r3, #20]
 8000748:	683b      	ldr	r3, [r7, #0]
 800074a:	78db      	ldrb	r3, [r3, #3]
 800074c:	2b48      	cmp	r3, #72
 800074e:	d108      	bne.n	8000762 <GPIO_Init+0x1a2>
 8000750:	693b      	ldr	r3, [r7, #16]
 8000752:	f103 0308 	add.w	r3, r3, #8	; 0x8
 8000756:	f04f 0201 	mov.w	r2, #1	; 0x1
 800075a:	fa02 f203 	lsl.w	r2, r2, r3
 800075e:	687b      	ldr	r3, [r7, #4]
 8000760:	611a      	str	r2, [r3, #16]
 8000762:	693b      	ldr	r3, [r7, #16]
 8000764:	f103 0301 	add.w	r3, r3, #1	; 0x1
 8000768:	613b      	str	r3, [r7, #16]
 800076a:	693b      	ldr	r3, [r7, #16]
 800076c:	2b07      	cmp	r3, #7
 800076e:	d9b2      	bls.n	80006d6 <GPIO_Init+0x116>
 8000770:	687b      	ldr	r3, [r7, #4]
 8000772:	69ba      	ldr	r2, [r7, #24]
 8000774:	605a      	str	r2, [r3, #4]
 8000776:	f107 0724 	add.w	r7, r7, #36	; 0x24
 800077a:	46bd      	mov	sp, r7
 800077c:	bc80      	pop	{r7}
 800077e:	4770      	bx	lr

08000780 <GPIO_EXTILineConfig>:
 8000780:	b480      	push	{r7}
 8000782:	b085      	sub	sp, #20
 8000784:	af00      	add	r7, sp, #0
 8000786:	4602      	mov	r2, r0
 8000788:	460b      	mov	r3, r1
 800078a:	71fa      	strb	r2, [r7, #7]
 800078c:	71bb      	strb	r3, [r7, #6]
 800078e:	f04f 0300 	mov.w	r3, #0	; 0x0
 8000792:	60fb      	str	r3, [r7, #12]
 8000794:	79bb      	ldrb	r3, [r7, #6]
 8000796:	f003 0303 	and.w	r3, r3, #3	; 0x3
 800079a:	ea4f 0383 	mov.w	r3, r3, lsl #2
 800079e:	f04f 020f 	mov.w	r2, #15	; 0xf
 80007a2:	fa02 f303 	lsl.w	r3, r2, r3
 80007a6:	60fb      	str	r3, [r7, #12]
 80007a8:	f240 0300 	movw	r3, #0	; 0x0
 80007ac:	f2c4 0301 	movt	r3, #16385	; 0x4001
 80007b0:	79ba      	ldrb	r2, [r7, #6]
 80007b2:	ea4f 0292 	mov.w	r2, r2, lsr #2
 80007b6:	b2d2      	uxtb	r2, r2
 80007b8:	4610      	mov	r0, r2
 80007ba:	f240 0200 	movw	r2, #0	; 0x0
 80007be:	f2c4 0201 	movt	r2, #16385	; 0x4001
 80007c2:	79b9      	ldrb	r1, [r7, #6]
 80007c4:	ea4f 0191 	mov.w	r1, r1, lsr #2
 80007c8:	b2c9      	uxtb	r1, r1
 80007ca:	f101 0102 	add.w	r1, r1, #2	; 0x2
 80007ce:	f852 1021 	ldr.w	r1, [r2, r1, lsl #2]
 80007d2:	68fa      	ldr	r2, [r7, #12]
 80007d4:	ea6f 0202 	mvn.w	r2, r2
 80007d8:	ea01 0102 	and.w	r1, r1, r2
 80007dc:	f100 0202 	add.w	r2, r0, #2	; 0x2
 80007e0:	f843 1022 	str.w	r1, [r3, r2, lsl #2]
 80007e4:	f240 0300 	movw	r3, #0	; 0x0
 80007e8:	f2c4 0301 	movt	r3, #16385	; 0x4001
 80007ec:	79ba      	ldrb	r2, [r7, #6]
 80007ee:	ea4f 0292 	mov.w	r2, r2, lsr #2
 80007f2:	b2d2      	uxtb	r2, r2
 80007f4:	4610      	mov	r0, r2
 80007f6:	f240 0200 	movw	r2, #0	; 0x0
 80007fa:	f2c4 0201 	movt	r2, #16385	; 0x4001
 80007fe:	79b9      	ldrb	r1, [r7, #6]
 8000800:	ea4f 0191 	mov.w	r1, r1, lsr #2
 8000804:	b2c9      	uxtb	r1, r1
 8000806:	f101 0102 	add.w	r1, r1, #2	; 0x2
 800080a:	f852 1021 	ldr.w	r1, [r2, r1, lsl #2]
 800080e:	f897 c007 	ldrb.w	ip, [r7, #7]
 8000812:	79ba      	ldrb	r2, [r7, #6]
 8000814:	f002 0203 	and.w	r2, r2, #3	; 0x3
 8000818:	ea4f 0282 	mov.w	r2, r2, lsl #2
 800081c:	fa0c f202 	lsl.w	r2, ip, r2
 8000820:	ea41 0102 	orr.w	r1, r1, r2
 8000824:	f100 0202 	add.w	r2, r0, #2	; 0x2
 8000828:	f843 1022 	str.w	r1, [r3, r2, lsl #2]
 800082c:	f107 0714 	add.w	r7, r7, #20	; 0x14
 8000830:	46bd      	mov	sp, r7
 8000832:	bc80      	pop	{r7}
 8000834:	4770      	bx	lr
 8000836:	46c0      	nop			(mov r8, r8)

08000838 <RCC_APB2PeriphClockCmd>:
 8000838:	b480      	push	{r7}
 800083a:	b083      	sub	sp, #12
 800083c:	af00      	add	r7, sp, #0
 800083e:	6078      	str	r0, [r7, #4]
 8000840:	460b      	mov	r3, r1
 8000842:	70fb      	strb	r3, [r7, #3]
 8000844:	78fb      	ldrb	r3, [r7, #3]
 8000846:	2b00      	cmp	r3, #0
 8000848:	d00d      	beq.n	8000866 <RCC_APB2PeriphClockCmd+0x2e>
 800084a:	f241 0300 	movw	r3, #4096	; 0x1000
 800084e:	f2c4 0302 	movt	r3, #16386	; 0x4002
 8000852:	f241 0200 	movw	r2, #4096	; 0x1000
 8000856:	f2c4 0202 	movt	r2, #16386	; 0x4002
 800085a:	6991      	ldr	r1, [r2, #24]
 800085c:	687a      	ldr	r2, [r7, #4]
 800085e:	ea41 0202 	orr.w	r2, r1, r2
 8000862:	619a      	str	r2, [r3, #24]
 8000864:	e00e      	b.n	8000884 <RCC_APB2PeriphClockCmd+0x4c>
 8000866:	f241 0300 	movw	r3, #4096	; 0x1000
 800086a:	f2c4 0302 	movt	r3, #16386	; 0x4002
 800086e:	f241 0200 	movw	r2, #4096	; 0x1000
 8000872:	f2c4 0202 	movt	r2, #16386	; 0x4002
 8000876:	6991      	ldr	r1, [r2, #24]
 8000878:	687a      	ldr	r2, [r7, #4]
 800087a:	ea6f 0202 	mvn.w	r2, r2
 800087e:	ea01 0202 	and.w	r2, r1, r2
 8000882:	619a      	str	r2, [r3, #24]
 8000884:	f107 070c 	add.w	r7, r7, #12	; 0xc
 8000888:	46bd      	mov	sp, r7
 800088a:	bc80      	pop	{r7}
 800088c:	4770      	bx	lr
 800088e:	46c0      	nop			(mov r8, r8)

08000890 <STM_EVAL_LEDInit>:
 8000890:	b580      	push	{r7, lr}
 8000892:	b084      	sub	sp, #16
 8000894:	af00      	add	r7, sp, #0
 8000896:	4603      	mov	r3, r0
 8000898:	71fb      	strb	r3, [r7, #7]
 800089a:	79fa      	ldrb	r2, [r7, #7]
 800089c:	f640 5334 	movw	r3, #3380	; 0xd34
 80008a0:	f6c0 0300 	movt	r3, #2048	; 0x800
 80008a4:	f853 3022 	ldr.w	r3, [r3, r2, lsl #2]
 80008a8:	4618      	mov	r0, r3
 80008aa:	f04f 0101 	mov.w	r1, #1	; 0x1
 80008ae:	f7ff ffc3 	bl	8000838 <RCC_APB2PeriphClockCmd>
 80008b2:	79fa      	ldrb	r2, [r7, #7]
 80008b4:	f640 532c 	movw	r3, #3372	; 0xd2c
 80008b8:	f6c0 0300 	movt	r3, #2048	; 0x800
 80008bc:	f833 3012 	ldrh.w	r3, [r3, r2, lsl #1]
 80008c0:	81bb      	strh	r3, [r7, #12]
 80008c2:	f04f 0310 	mov.w	r3, #16	; 0x10
 80008c6:	73fb      	strb	r3, [r7, #15]
 80008c8:	f04f 0303 	mov.w	r3, #3	; 0x3
 80008cc:	73bb      	strb	r3, [r7, #14]
 80008ce:	79fa      	ldrb	r2, [r7, #7]
 80008d0:	f240 0300 	movw	r3, #0	; 0x0
 80008d4:	f2c2 0300 	movt	r3, #8192	; 0x2000
 80008d8:	f853 2022 	ldr.w	r2, [r3, r2, lsl #2]
 80008dc:	f107 030c 	add.w	r3, r7, #12	; 0xc
 80008e0:	4610      	mov	r0, r2
 80008e2:	4619      	mov	r1, r3
 80008e4:	f7ff fe6c 	bl	80005c0 <GPIO_Init>
 80008e8:	f107 0710 	add.w	r7, r7, #16	; 0x10
 80008ec:	46bd      	mov	sp, r7
 80008ee:	bd80      	pop	{r7, pc}

080008f0 <STM_EVAL_LEDToggle>:
 80008f0:	b480      	push	{r7}
 80008f2:	b083      	sub	sp, #12
 80008f4:	af00      	add	r7, sp, #0
 80008f6:	4603      	mov	r3, r0
 80008f8:	71fb      	strb	r3, [r7, #7]
 80008fa:	79fa      	ldrb	r2, [r7, #7]
 80008fc:	f240 0300 	movw	r3, #0	; 0x0
 8000900:	f2c2 0300 	movt	r3, #8192	; 0x2000
 8000904:	f853 2022 	ldr.w	r2, [r3, r2, lsl #2]
 8000908:	79f9      	ldrb	r1, [r7, #7]
 800090a:	f240 0300 	movw	r3, #0	; 0x0
 800090e:	f2c2 0300 	movt	r3, #8192	; 0x2000
 8000912:	f853 3021 	ldr.w	r3, [r3, r1, lsl #2]
 8000916:	68d9      	ldr	r1, [r3, #12]
 8000918:	79f8      	ldrb	r0, [r7, #7]
 800091a:	f640 532c 	movw	r3, #3372	; 0xd2c
 800091e:	f6c0 0300 	movt	r3, #2048	; 0x800
 8000922:	f833 3010 	ldrh.w	r3, [r3, r0, lsl #1]
 8000926:	ea81 0303 	eor.w	r3, r1, r3
 800092a:	60d3      	str	r3, [r2, #12]
 800092c:	f107 070c 	add.w	r7, r7, #12	; 0xc
 8000930:	46bd      	mov	sp, r7
 8000932:	bc80      	pop	{r7}
 8000934:	4770      	bx	lr
 8000936:	46c0      	nop			(mov r8, r8)

08000938 <STM_EVAL_PBInit>:
 8000938:	b580      	push	{r7, lr}
 800093a:	b086      	sub	sp, #24
 800093c:	af00      	add	r7, sp, #0
 800093e:	4602      	mov	r2, r0
 8000940:	460b      	mov	r3, r1
 8000942:	71fa      	strb	r2, [r7, #7]
 8000944:	71bb      	strb	r3, [r7, #6]
 8000946:	79fa      	ldrb	r2, [r7, #7]
 8000948:	f640 5354 	movw	r3, #3412	; 0xd54
 800094c:	f6c0 0300 	movt	r3, #2048	; 0x800
 8000950:	f853 3022 	ldr.w	r3, [r3, r2, lsl #2]
 8000954:	f043 0301 	orr.w	r3, r3, #1	; 0x1
 8000958:	4618      	mov	r0, r3
 800095a:	f04f 0101 	mov.w	r1, #1	; 0x1
 800095e:	f7ff ff6b 	bl	8000838 <RCC_APB2PeriphClockCmd>
 8000962:	f04f 0304 	mov.w	r3, #4	; 0x4
 8000966:	75fb      	strb	r3, [r7, #23]
 8000968:	79fa      	ldrb	r2, [r7, #7]
 800096a:	f640 5344 	movw	r3, #3396	; 0xd44
 800096e:	f6c0 0300 	movt	r3, #2048	; 0x800
 8000972:	f833 3012 	ldrh.w	r3, [r3, r2, lsl #1]
 8000976:	82bb      	strh	r3, [r7, #20]
 8000978:	79fa      	ldrb	r2, [r7, #7]
 800097a:	f240 0310 	movw	r3, #16	; 0x10
 800097e:	f2c2 0300 	movt	r3, #8192	; 0x2000
 8000982:	f853 2022 	ldr.w	r2, [r3, r2, lsl #2]
 8000986:	f107 0314 	add.w	r3, r7, #20	; 0x14
 800098a:	4610      	mov	r0, r2
 800098c:	4619      	mov	r1, r3
 800098e:	f7ff fe17 	bl	80005c0 <GPIO_Init>
 8000992:	79bb      	ldrb	r3, [r7, #6]
 8000994:	2b01      	cmp	r3, #1
 8000996:	d147      	bne.n	8000a28 <STM_EVAL_PBInit+0xf0>
 8000998:	79fa      	ldrb	r2, [r7, #7]
 800099a:	f640 5384 	movw	r3, #3460	; 0xd84
 800099e:	f6c0 0300 	movt	r3, #2048	; 0x800
 80009a2:	f833 3012 	ldrh.w	r3, [r3, r2, lsl #1]
 80009a6:	b2da      	uxtb	r2, r3
 80009a8:	79f9      	ldrb	r1, [r7, #7]
 80009aa:	f640 5394 	movw	r3, #3476	; 0xd94
 80009ae:	f6c0 0300 	movt	r3, #2048	; 0x800
 80009b2:	f833 3011 	ldrh.w	r3, [r3, r1, lsl #1]
 80009b6:	b2db      	uxtb	r3, r3
 80009b8:	4610      	mov	r0, r2
 80009ba:	4619      	mov	r1, r3
 80009bc:	f7ff fee0 	bl	8000780 <GPIO_EXTILineConfig>
 80009c0:	79fa      	ldrb	r2, [r7, #7]
 80009c2:	f640 5374 	movw	r3, #3444	; 0xd74
 80009c6:	f6c0 0300 	movt	r3, #2048	; 0x800
 80009ca:	f833 3012 	ldrh.w	r3, [r3, r2, lsl #1]
 80009ce:	60fb      	str	r3, [r7, #12]
 80009d0:	f04f 0300 	mov.w	r3, #0	; 0x0
 80009d4:	743b      	strb	r3, [r7, #16]
 80009d6:	79fb      	ldrb	r3, [r7, #7]
 80009d8:	2b00      	cmp	r3, #0
 80009da:	d003      	beq.n	80009e4 <STM_EVAL_PBInit+0xac>
 80009dc:	f04f 030c 	mov.w	r3, #12	; 0xc
 80009e0:	747b      	strb	r3, [r7, #17]
 80009e2:	e002      	b.n	80009ea <STM_EVAL_PBInit+0xb2>
 80009e4:	f04f 0308 	mov.w	r3, #8	; 0x8
 80009e8:	747b      	strb	r3, [r7, #17]
 80009ea:	f04f 0301 	mov.w	r3, #1	; 0x1
 80009ee:	74bb      	strb	r3, [r7, #18]
 80009f0:	f107 030c 	add.w	r3, r7, #12	; 0xc
 80009f4:	4618      	mov	r0, r3
 80009f6:	f7ff fce9 	bl	80003cc <EXTI_Init>
 80009fa:	79fa      	ldrb	r2, [r7, #7]
 80009fc:	f640 53a4 	movw	r3, #3492	; 0xda4
 8000a00:	f6c0 0300 	movt	r3, #2048	; 0x800
 8000a04:	f833 3012 	ldrh.w	r3, [r3, r2, lsl #1]
 8000a08:	b2db      	uxtb	r3, r3
 8000a0a:	723b      	strb	r3, [r7, #8]
 8000a0c:	f04f 030f 	mov.w	r3, #15	; 0xf
 8000a10:	727b      	strb	r3, [r7, #9]
 8000a12:	f04f 030f 	mov.w	r3, #15	; 0xf
 8000a16:	72bb      	strb	r3, [r7, #10]
 8000a18:	f04f 0301 	mov.w	r3, #1	; 0x1
 8000a1c:	72fb      	strb	r3, [r7, #11]
 8000a1e:	f107 0308 	add.w	r3, r7, #8	; 0x8
 8000a22:	4618      	mov	r0, r3
 8000a24:	f7ff fc5c 	bl	80002e0 <NVIC_Init>
 8000a28:	f107 0718 	add.w	r7, r7, #24	; 0x18
 8000a2c:	46bd      	mov	sp, r7
 8000a2e:	bd80      	pop	{r7, pc}

08000a30 <SystemInit>:
 8000a30:	b580      	push	{r7, lr}
 8000a32:	af00      	add	r7, sp, #0
 8000a34:	f241 0300 	movw	r3, #4096	; 0x1000
 8000a38:	f2c4 0302 	movt	r3, #16386	; 0x4002
 8000a3c:	f241 0200 	movw	r2, #4096	; 0x1000
 8000a40:	f2c4 0202 	movt	r2, #16386	; 0x4002
 8000a44:	6812      	ldr	r2, [r2, #0]
 8000a46:	f042 0201 	orr.w	r2, r2, #1	; 0x1
 8000a4a:	601a      	str	r2, [r3, #0]
 8000a4c:	f241 0200 	movw	r2, #4096	; 0x1000
 8000a50:	f2c4 0202 	movt	r2, #16386	; 0x4002
 8000a54:	f241 0300 	movw	r3, #4096	; 0x1000
 8000a58:	f2c4 0302 	movt	r3, #16386	; 0x4002
 8000a5c:	6859      	ldr	r1, [r3, #4]
 8000a5e:	f240 0300 	movw	r3, #0	; 0x0
 8000a62:	f6cf 03ff 	movt	r3, #63743	; 0xf8ff
 8000a66:	ea01 0303 	and.w	r3, r1, r3
 8000a6a:	6053      	str	r3, [r2, #4]
 8000a6c:	f241 0300 	movw	r3, #4096	; 0x1000
 8000a70:	f2c4 0302 	movt	r3, #16386	; 0x4002
 8000a74:	f241 0200 	movw	r2, #4096	; 0x1000
 8000a78:	f2c4 0202 	movt	r2, #16386	; 0x4002
 8000a7c:	6812      	ldr	r2, [r2, #0]
 8000a7e:	f022 7284 	bic.w	r2, r2, #17301504	; 0x1080000
 8000a82:	f422 3280 	bic.w	r2, r2, #65536	; 0x10000
 8000a86:	601a      	str	r2, [r3, #0]
 8000a88:	f241 0300 	movw	r3, #4096	; 0x1000
 8000a8c:	f2c4 0302 	movt	r3, #16386	; 0x4002
 8000a90:	f241 0200 	movw	r2, #4096	; 0x1000
 8000a94:	f2c4 0202 	movt	r2, #16386	; 0x4002
 8000a98:	6812      	ldr	r2, [r2, #0]
 8000a9a:	f422 2280 	bic.w	r2, r2, #262144	; 0x40000
 8000a9e:	601a      	str	r2, [r3, #0]
 8000aa0:	f241 0300 	movw	r3, #4096	; 0x1000
 8000aa4:	f2c4 0302 	movt	r3, #16386	; 0x4002
 8000aa8:	f241 0200 	movw	r2, #4096	; 0x1000
 8000aac:	f2c4 0202 	movt	r2, #16386	; 0x4002
 8000ab0:	6852      	ldr	r2, [r2, #4]
 8000ab2:	f422 02fe 	bic.w	r2, r2, #8323072	; 0x7f0000
 8000ab6:	605a      	str	r2, [r3, #4]
 8000ab8:	f241 0300 	movw	r3, #4096	; 0x1000
 8000abc:	f2c4 0302 	movt	r3, #16386	; 0x4002
 8000ac0:	f44f 021f 	mov.w	r2, #10420224	; 0x9f0000
 8000ac4:	609a      	str	r2, [r3, #8]
 8000ac6:	f000 f803 	bl	8000ad0 <SetSysClock>
 8000aca:	46bd      	mov	sp, r7
 8000acc:	bd80      	pop	{r7, pc}
 8000ace:	46c0      	nop			(mov r8, r8)

08000ad0 <SetSysClock>:
 8000ad0:	b580      	push	{r7, lr}
 8000ad2:	af00      	add	r7, sp, #0
 8000ad4:	f000 f802 	bl	8000adc <SetSysClockTo72>
 8000ad8:	46bd      	mov	sp, r7
 8000ada:	bd80      	pop	{r7, pc}

08000adc <SetSysClockTo72>:
 8000adc:	b480      	push	{r7}
 8000ade:	b083      	sub	sp, #12
 8000ae0:	af00      	add	r7, sp, #0
 8000ae2:	f04f 0300 	mov.w	r3, #0	; 0x0
 8000ae6:	607b      	str	r3, [r7, #4]
 8000ae8:	f04f 0300 	mov.w	r3, #0	; 0x0
 8000aec:	603b      	str	r3, [r7, #0]
 8000aee:	f241 0300 	movw	r3, #4096	; 0x1000
 8000af2:	f2c4 0302 	movt	r3, #16386	; 0x4002
 8000af6:	f241 0200 	movw	r2, #4096	; 0x1000
 8000afa:	f2c4 0202 	movt	r2, #16386	; 0x4002
 8000afe:	6812      	ldr	r2, [r2, #0]
 8000b00:	f442 3280 	orr.w	r2, r2, #65536	; 0x10000
 8000b04:	601a      	str	r2, [r3, #0]
 8000b06:	f241 0300 	movw	r3, #4096	; 0x1000
 8000b0a:	f2c4 0302 	movt	r3, #16386	; 0x4002
 8000b0e:	681b      	ldr	r3, [r3, #0]
 8000b10:	f403 3300 	and.w	r3, r3, #131072	; 0x20000
 8000b14:	603b      	str	r3, [r7, #0]
 8000b16:	687b      	ldr	r3, [r7, #4]
 8000b18:	f103 0301 	add.w	r3, r3, #1	; 0x1
 8000b1c:	607b      	str	r3, [r7, #4]
 8000b1e:	683b      	ldr	r3, [r7, #0]
 8000b20:	2b00      	cmp	r3, #0
 8000b22:	d103      	bne.n	8000b2c <SetSysClockTo72+0x50>
 8000b24:	687b      	ldr	r3, [r7, #4]
 8000b26:	f5b3 6fa0 	cmp.w	r3, #1280	; 0x500
 8000b2a:	d1ec      	bne.n	8000b06 <SetSysClockTo72+0x2a>
 8000b2c:	f241 0300 	movw	r3, #4096	; 0x1000
 8000b30:	f2c4 0302 	movt	r3, #16386	; 0x4002
 8000b34:	681b      	ldr	r3, [r3, #0]
 8000b36:	f403 3300 	and.w	r3, r3, #131072	; 0x20000
 8000b3a:	2b00      	cmp	r3, #0
 8000b3c:	d003      	beq.n	8000b46 <SetSysClockTo72+0x6a>
 8000b3e:	f04f 0301 	mov.w	r3, #1	; 0x1
 8000b42:	603b      	str	r3, [r7, #0]
 8000b44:	e002      	b.n	8000b4c <SetSysClockTo72+0x70>
 8000b46:	f04f 0300 	mov.w	r3, #0	; 0x0
 8000b4a:	603b      	str	r3, [r7, #0]
 8000b4c:	683b      	ldr	r3, [r7, #0]
 8000b4e:	2b01      	cmp	r3, #1
 8000b50:	f040 8092 	bne.w	8000c78 <SetSysClockTo72+0x19c>
 8000b54:	f242 0300 	movw	r3, #8192	; 0x2000
 8000b58:	f2c4 0302 	movt	r3, #16386	; 0x4002
 8000b5c:	f242 0200 	movw	r2, #8192	; 0x2000
 8000b60:	f2c4 0202 	movt	r2, #16386	; 0x4002
 8000b64:	6812      	ldr	r2, [r2, #0]
 8000b66:	f042 0210 	orr.w	r2, r2, #16	; 0x10
 8000b6a:	601a      	str	r2, [r3, #0]
 8000b6c:	f242 0300 	movw	r3, #8192	; 0x2000
 8000b70:	f2c4 0302 	movt	r3, #16386	; 0x4002
 8000b74:	f242 0200 	movw	r2, #8192	; 0x2000
 8000b78:	f2c4 0202 	movt	r2, #16386	; 0x4002
 8000b7c:	6812      	ldr	r2, [r2, #0]
 8000b7e:	f022 0203 	bic.w	r2, r2, #3	; 0x3
 8000b82:	601a      	str	r2, [r3, #0]
 8000b84:	f242 0300 	movw	r3, #8192	; 0x2000
 8000b88:	f2c4 0302 	movt	r3, #16386	; 0x4002
 8000b8c:	f242 0200 	movw	r2, #8192	; 0x2000
 8000b90:	f2c4 0202 	movt	r2, #16386	; 0x4002
 8000b94:	6812      	ldr	r2, [r2, #0]
 8000b96:	f042 0202 	orr.w	r2, r2, #2	; 0x2
 8000b9a:	601a      	str	r2, [r3, #0]
 8000b9c:	f241 0300 	movw	r3, #4096	; 0x1000
 8000ba0:	f2c4 0302 	movt	r3, #16386	; 0x4002
 8000ba4:	f241 0200 	movw	r2, #4096	; 0x1000
 8000ba8:	f2c4 0202 	movt	r2, #16386	; 0x4002
 8000bac:	6852      	ldr	r2, [r2, #4]
 8000bae:	605a      	str	r2, [r3, #4]
 8000bb0:	f241 0300 	movw	r3, #4096	; 0x1000
 8000bb4:	f2c4 0302 	movt	r3, #16386	; 0x4002
 8000bb8:	f241 0200 	movw	r2, #4096	; 0x1000
 8000bbc:	f2c4 0202 	movt	r2, #16386	; 0x4002
 8000bc0:	6852      	ldr	r2, [r2, #4]
 8000bc2:	605a      	str	r2, [r3, #4]
 8000bc4:	f241 0300 	movw	r3, #4096	; 0x1000
 8000bc8:	f2c4 0302 	movt	r3, #16386	; 0x4002
 8000bcc:	f241 0200 	movw	r2, #4096	; 0x1000
 8000bd0:	f2c4 0202 	movt	r2, #16386	; 0x4002
 8000bd4:	6852      	ldr	r2, [r2, #4]
 8000bd6:	f442 6280 	orr.w	r2, r2, #1024	; 0x400
 8000bda:	605a      	str	r2, [r3, #4]
 8000bdc:	f241 0300 	movw	r3, #4096	; 0x1000
 8000be0:	f2c4 0302 	movt	r3, #16386	; 0x4002
 8000be4:	f241 0200 	movw	r2, #4096	; 0x1000
 8000be8:	f2c4 0202 	movt	r2, #16386	; 0x4002
 8000bec:	6852      	ldr	r2, [r2, #4]
 8000bee:	f422 127c 	bic.w	r2, r2, #4128768	; 0x3f0000
 8000bf2:	605a      	str	r2, [r3, #4]
 8000bf4:	f241 0300 	movw	r3, #4096	; 0x1000
 8000bf8:	f2c4 0302 	movt	r3, #16386	; 0x4002
 8000bfc:	f241 0200 	movw	r2, #4096	; 0x1000
 8000c00:	f2c4 0202 	movt	r2, #16386	; 0x4002
 8000c04:	6852      	ldr	r2, [r2, #4]
 8000c06:	f442 12e8 	orr.w	r2, r2, #1900544	; 0x1d0000
 8000c0a:	605a      	str	r2, [r3, #4]
 8000c0c:	f241 0300 	movw	r3, #4096	; 0x1000
 8000c10:	f2c4 0302 	movt	r3, #16386	; 0x4002
 8000c14:	f241 0200 	movw	r2, #4096	; 0x1000
 8000c18:	f2c4 0202 	movt	r2, #16386	; 0x4002
 8000c1c:	6812      	ldr	r2, [r2, #0]
 8000c1e:	f042 7280 	orr.w	r2, r2, #16777216	; 0x1000000
 8000c22:	601a      	str	r2, [r3, #0]
 8000c24:	f241 0300 	movw	r3, #4096	; 0x1000
 8000c28:	f2c4 0302 	movt	r3, #16386	; 0x4002
 8000c2c:	681b      	ldr	r3, [r3, #0]
 8000c2e:	f003 7300 	and.w	r3, r3, #33554432	; 0x2000000
 8000c32:	2b00      	cmp	r3, #0
 8000c34:	d0f6      	beq.n	8000c24 <SetSysClockTo72+0x148>
 8000c36:	f241 0300 	movw	r3, #4096	; 0x1000
 8000c3a:	f2c4 0302 	movt	r3, #16386	; 0x4002
 8000c3e:	f241 0200 	movw	r2, #4096	; 0x1000
 8000c42:	f2c4 0202 	movt	r2, #16386	; 0x4002
 8000c46:	6852      	ldr	r2, [r2, #4]
 8000c48:	f022 0203 	bic.w	r2, r2, #3	; 0x3
 8000c4c:	605a      	str	r2, [r3, #4]
 8000c4e:	f241 0300 	movw	r3, #4096	; 0x1000
 8000c52:	f2c4 0302 	movt	r3, #16386	; 0x4002
 8000c56:	f241 0200 	movw	r2, #4096	; 0x1000
 8000c5a:	f2c4 0202 	movt	r2, #16386	; 0x4002
 8000c5e:	6852      	ldr	r2, [r2, #4]
 8000c60:	f042 0202 	orr.w	r2, r2, #2	; 0x2
 8000c64:	605a      	str	r2, [r3, #4]
 8000c66:	f241 0300 	movw	r3, #4096	; 0x1000
 8000c6a:	f2c4 0302 	movt	r3, #16386	; 0x4002
 8000c6e:	685b      	ldr	r3, [r3, #4]
 8000c70:	f003 030c 	and.w	r3, r3, #12	; 0xc
 8000c74:	2b08      	cmp	r3, #8
 8000c76:	d1f6      	bne.n	8000c66 <SetSysClockTo72+0x18a>
 8000c78:	f107 070c 	add.w	r7, r7, #12	; 0xc
 8000c7c:	46bd      	mov	sp, r7
 8000c7e:	bc80      	pop	{r7}
 8000c80:	4770      	bx	lr
 8000c82:	46c0      	nop			(mov r8, r8)

08000c84 <Reset_Handler>:
 8000c84:	f000 f82a 	bl	8000cdc <SystemInit_ExtMemCtl>
 8000c88:	480e      	ldr	r0, [pc, #56]	(8000cc4 <LoopFillZerobss+0x16>)
 8000c8a:	f380 8808 	msr	MSP, r0
 8000c8e:	2100      	movs	r1, #0
 8000c90:	e003      	b.n	8000c9a <LoopCopyDataInit>

08000c92 <CopyDataInit>:
 8000c92:	4b0d      	ldr	r3, [pc, #52]	(8000cc8 <LoopFillZerobss+0x1a>)
 8000c94:	585b      	ldr	r3, [r3, r1]
 8000c96:	5043      	str	r3, [r0, r1]
 8000c98:	3104      	adds	r1, #4

08000c9a <LoopCopyDataInit>:
 8000c9a:	480c      	ldr	r0, [pc, #48]	(8000ccc <LoopFillZerobss+0x1e>)
 8000c9c:	4b0c      	ldr	r3, [pc, #48]	(8000cd0 <LoopFillZerobss+0x22>)
 8000c9e:	1842      	adds	r2, r0, r1
 8000ca0:	429a      	cmp	r2, r3
 8000ca2:	d3f6      	bcc.n	8000c92 <CopyDataInit>
 8000ca4:	4a0b      	ldr	r2, [pc, #44]	(8000cd4 <LoopFillZerobss+0x26>)
 8000ca6:	e002      	b.n	8000cae <LoopFillZerobss>

08000ca8 <FillZerobss>:
 8000ca8:	2300      	movs	r3, #0
 8000caa:	f842 3b04 	str.w	r3, [r2], #4

08000cae <LoopFillZerobss>:
 8000cae:	4b0a      	ldr	r3, [pc, #40]	(8000cd8 <LoopFillZerobss+0x2a>)
 8000cb0:	429a      	cmp	r2, r3
 8000cb2:	d3f9      	bcc.n	8000ca8 <FillZerobss>
 8000cb4:	f7ff febc 	bl	8000a30 <SystemInit>
 8000cb8:	f000 f812 	bl	8000ce0 <__libc_init_array>
 8000cbc:	f7ff fabc 	bl	8000238 <main>
 8000cc0:	4770      	bx	lr
 8000cc2:	0000      	.short	0x0000
 8000cc4:	20010000 	.word	0x20010000
 8000cc8:	08000dd4 	.word	0x08000dd4
 8000ccc:	20000000 	.word	0x20000000
 8000cd0:	20000030 	.word	0x20000030
 8000cd4:	20000030 	.word	0x20000030
 8000cd8:	2000004c 	.word	0x2000004c

08000cdc <SystemInit_ExtMemCtl>:
 8000cdc:	4770      	bx	lr

08000cde <ADC1_2_IRQHandler>:
 8000cde:	e7fe      	b.n	8000cde <ADC1_2_IRQHandler>

08000ce0 <__libc_init_array>:
 8000ce0:	b570      	push	{r4, r5, r6, lr}
 8000ce2:	4d0e      	ldr	r5, [pc, #56]	(8000d1c <__libc_init_array+0x3c>)
 8000ce4:	4e0e      	ldr	r6, [pc, #56]	(8000d20 <__libc_init_array+0x40>)
 8000ce6:	2400      	movs	r4, #0
 8000ce8:	1b76      	subs	r6, r6, r5
 8000cea:	10b6      	asrs	r6, r6, #2
 8000cec:	e003      	b.n	8000cf6 <__libc_init_array+0x16>
 8000cee:	f855 3024 	ldr.w	r3, [r5, r4, lsl #2]
 8000cf2:	3401      	adds	r4, #1
 8000cf4:	4798      	blx	r3
 8000cf6:	42b4      	cmp	r4, r6
 8000cf8:	d3f9      	bcc.n	8000cee <__libc_init_array+0xe>
 8000cfa:	f000 f85b 	bl	8000db4 <_init>
 8000cfe:	4e09      	ldr	r6, [pc, #36]	(8000d24 <__libc_init_array+0x44>)
 8000d00:	4b09      	ldr	r3, [pc, #36]	(8000d28 <__libc_init_array+0x48>)
 8000d02:	2400      	movs	r4, #0
 8000d04:	1af6      	subs	r6, r6, r3
 8000d06:	461d      	mov	r5, r3
 8000d08:	10b6      	asrs	r6, r6, #2
 8000d0a:	e003      	b.n	8000d14 <__libc_init_array+0x34>
 8000d0c:	f855 3024 	ldr.w	r3, [r5, r4, lsl #2]
 8000d10:	3401      	adds	r4, #1
 8000d12:	4798      	blx	r3
 8000d14:	42b4      	cmp	r4, r6
 8000d16:	d3f9      	bcc.n	8000d0c <__libc_init_array+0x2c>
 8000d18:	bd70      	pop	{r4, r5, r6, pc}
 8000d1a:	46c0      	nop			(mov r8, r8)
 8000d1c:	08000dcc 	.word	0x08000dcc
 8000d20:	08000dcc 	.word	0x08000dcc
 8000d24:	08000dd0 	.word	0x08000dd0
 8000d28:	08000dcc 	.word	0x08000dcc

08000d2c <GPIO_PIN>:
 8000d2c:	00800040 	.word	0x00800040
 8000d30:	02000100 	.word	0x02000100

08000d34 <GPIO_CLK>:
 8000d34:	00000080 	.word	0x00000080
 8000d38:	00000080 	.word	0x00000080
 8000d3c:	00000080 	.word	0x00000080
 8000d40:	00000080 	.word	0x00000080

08000d44 <BUTTON_PIN>:
 8000d44:	20000001 	.word	0x20000001
 8000d48:	20000100 	.word	0x20000100
 8000d4c:	80004000 	.word	0x80004000
 8000d50:	00800008 	.word	0x00800008

08000d54 <BUTTON_CLK>:
 8000d54:	00000004 	.word	0x00000004
 8000d58:	00000010 	.word	0x00000010
 8000d5c:	00000100 	.word	0x00000100
 8000d60:	00000100 	.word	0x00000100
 8000d64:	00000100 	.word	0x00000100
 8000d68:	00000100 	.word	0x00000100
 8000d6c:	00000020 	.word	0x00000020
 8000d70:	00000100 	.word	0x00000100

08000d74 <BUTTON_EXTI_LINE>:
 8000d74:	20000001 	.word	0x20000001
 8000d78:	20000100 	.word	0x20000100
 8000d7c:	80004000 	.word	0x80004000
 8000d80:	00800008 	.word	0x00800008

08000d84 <BUTTON_PORT_SOURCE>:
 8000d84:	00020000 	.word	0x00020000
 8000d88:	00060006 	.word	0x00060006
 8000d8c:	00060006 	.word	0x00060006
 8000d90:	00060003 	.word	0x00060003

08000d94 <BUTTON_PIN_SOURCE>:
 8000d94:	000d0000 	.word	0x000d0000
 8000d98:	000d0008 	.word	0x000d0008
 8000d9c:	000f000e 	.word	0x000f000e
 8000da0:	00070003 	.word	0x00070003

08000da4 <BUTTON_IRQn>:
 8000da4:	00280006 	.word	0x00280006
 8000da8:	00280017 	.word	0x00280017
 8000dac:	00280028 	.word	0x00280028
 8000db0:	00170009 	.word	0x00170009

08000db4 <_init>:
 8000db4:	b5f8      	push	{r3, r4, r5, r6, r7, lr}
 8000db6:	46c0      	nop			(mov r8, r8)
 8000db8:	bcf8      	pop	{r3, r4, r5, r6, r7}
 8000dba:	bc08      	pop	{r3}
 8000dbc:	469e      	mov	lr, r3
 8000dbe:	4770      	bx	lr

08000dc0 <_fini>:
 8000dc0:	b5f8      	push	{r3, r4, r5, r6, r7, lr}
 8000dc2:	46c0      	nop			(mov r8, r8)
 8000dc4:	bcf8      	pop	{r3, r4, r5, r6, r7}
 8000dc6:	bc08      	pop	{r3}
 8000dc8:	469e      	mov	lr, r3
 8000dca:	4770      	bx	lr